
distance2:     file format elf64-x86-64


Disassembly of section .init:

0000000000000918 <_init>:
 918:	48 83 ec 08          	sub    rsp,0x8
 91c:	48 8b 05 c5 16 21 00 	mov    rax,QWORD PTR [rip+0x2116c5]        # 211fe8 <__gmon_start__>
 923:	48 85 c0             	test   rax,rax
 926:	74 02                	je     92a <_init+0x12>
 928:	ff d0                	call   rax
 92a:	48 83 c4 08          	add    rsp,0x8
 92e:	c3                   	ret    

Disassembly of section .plt:

0000000000000930 <.plt>:
 930:	ff 35 1a 16 21 00    	push   QWORD PTR [rip+0x21161a]        # 211f50 <_GLOBAL_OFFSET_TABLE_+0x8>
 936:	ff 25 1c 16 21 00    	jmp    QWORD PTR [rip+0x21161c]        # 211f58 <_GLOBAL_OFFSET_TABLE_+0x10>
 93c:	0f 1f 40 00          	nop    DWORD PTR [rax+0x0]

0000000000000940 <funlockfile@plt>:
 940:	ff 25 1a 16 21 00    	jmp    QWORD PTR [rip+0x21161a]        # 211f60 <funlockfile@GLIBC_2.2.5>
 946:	68 00 00 00 00       	push   0x0
 94b:	e9 e0 ff ff ff       	jmp    930 <.plt>

0000000000000950 <strlen@plt>:
 950:	ff 25 12 16 21 00    	jmp    QWORD PTR [rip+0x211612]        # 211f68 <strlen@GLIBC_2.2.5>
 956:	68 01 00 00 00       	push   0x1
 95b:	e9 d0 ff ff ff       	jmp    930 <.plt>

0000000000000960 <__stack_chk_fail@plt>:
 960:	ff 25 0a 16 21 00    	jmp    QWORD PTR [rip+0x21160a]        # 211f70 <__stack_chk_fail@GLIBC_2.4>
 966:	68 02 00 00 00       	push   0x2
 96b:	e9 c0 ff ff ff       	jmp    930 <.plt>

0000000000000970 <mmap@plt>:
 970:	ff 25 02 16 21 00    	jmp    QWORD PTR [rip+0x211602]        # 211f78 <mmap@GLIBC_2.2.5>
 976:	68 03 00 00 00       	push   0x3
 97b:	e9 b0 ff ff ff       	jmp    930 <.plt>

0000000000000980 <memset@plt>:
 980:	ff 25 fa 15 21 00    	jmp    QWORD PTR [rip+0x2115fa]        # 211f80 <memset@GLIBC_2.2.5>
 986:	68 04 00 00 00       	push   0x4
 98b:	e9 a0 ff ff ff       	jmp    930 <.plt>

0000000000000990 <flockfile@plt>:
 990:	ff 25 f2 15 21 00    	jmp    QWORD PTR [rip+0x2115f2]        # 211f88 <flockfile@GLIBC_2.2.5>
 996:	68 05 00 00 00       	push   0x5
 99b:	e9 90 ff ff ff       	jmp    930 <.plt>

00000000000009a0 <signal@plt>:
 9a0:	ff 25 ea 15 21 00    	jmp    QWORD PTR [rip+0x2115ea]        # 211f90 <signal@GLIBC_2.2.5>
 9a6:	68 06 00 00 00       	push   0x6
 9ab:	e9 80 ff ff ff       	jmp    930 <.plt>

00000000000009b0 <__memcpy_chk@plt>:
 9b0:	ff 25 e2 15 21 00    	jmp    QWORD PTR [rip+0x2115e2]        # 211f98 <__memcpy_chk@GLIBC_2.3.4>
 9b6:	68 07 00 00 00       	push   0x7
 9bb:	e9 70 ff ff ff       	jmp    930 <.plt>

00000000000009c0 <memcpy@plt>:
 9c0:	ff 25 da 15 21 00    	jmp    QWORD PTR [rip+0x2115da]        # 211fa0 <memcpy@GLIBC_2.14>
 9c6:	68 08 00 00 00       	push   0x8
 9cb:	e9 60 ff ff ff       	jmp    930 <.plt>

00000000000009d0 <fflush@plt>:
 9d0:	ff 25 d2 15 21 00    	jmp    QWORD PTR [rip+0x2115d2]        # 211fa8 <fflush@GLIBC_2.2.5>
 9d6:	68 09 00 00 00       	push   0x9
 9db:	e9 50 ff ff ff       	jmp    930 <.plt>

00000000000009e0 <munmap@plt>:
 9e0:	ff 25 ca 15 21 00    	jmp    QWORD PTR [rip+0x2115ca]        # 211fb0 <munmap@GLIBC_2.2.5>
 9e6:	68 0a 00 00 00       	push   0xa
 9eb:	e9 40 ff ff ff       	jmp    930 <.plt>

00000000000009f0 <exit@plt>:
 9f0:	ff 25 c2 15 21 00    	jmp    QWORD PTR [rip+0x2115c2]        # 211fb8 <exit@GLIBC_2.2.5>
 9f6:	68 0b 00 00 00       	push   0xb
 9fb:	e9 30 ff ff ff       	jmp    930 <.plt>

0000000000000a00 <fwrite@plt>:
 a00:	ff 25 ba 15 21 00    	jmp    QWORD PTR [rip+0x2115ba]        # 211fc0 <fwrite@GLIBC_2.2.5>
 a06:	68 0c 00 00 00       	push   0xc
 a0b:	e9 20 ff ff ff       	jmp    930 <.plt>

0000000000000a10 <sqrt@plt>:
 a10:	ff 25 b2 15 21 00    	jmp    QWORD PTR [rip+0x2115b2]        # 211fc8 <sqrt@GLIBC_2.2.5>
 a16:	68 0d 00 00 00       	push   0xd
 a1b:	e9 10 ff ff ff       	jmp    930 <.plt>

0000000000000a20 <__sprintf_chk@plt>:
 a20:	ff 25 aa 15 21 00    	jmp    QWORD PTR [rip+0x2115aa]        # 211fd0 <__sprintf_chk@GLIBC_2.3.4>
 a26:	68 0e 00 00 00       	push   0xe
 a2b:	e9 00 ff ff ff       	jmp    930 <.plt>

Disassembly of section .plt.got:

0000000000000a30 <__cxa_finalize@plt>:
 a30:	ff 25 c2 15 21 00    	jmp    QWORD PTR [rip+0x2115c2]        # 211ff8 <__cxa_finalize@GLIBC_2.2.5>
 a36:	66 90                	xchg   ax,ax

Disassembly of section .text:

0000000000000a40 <main>:
     a40:	48 83 ec 18          	sub    rsp,0x18
     a44:	48 89 35 85 4a 21 00 	mov    QWORD PTR [rip+0x214a85],rsi        # 2154d0 <cmdLine>
     a4b:	89 3d 77 4a 21 00    	mov    DWORD PTR [rip+0x214a77],edi        # 2154c8 <cmdCount>
     a51:	48 89 15 80 4a 21 00 	mov    QWORD PTR [rip+0x214a80],rdx        # 2154d8 <gEnv>
     a58:	e8 b3 e5 00 00       	call   f010 <PreMain>
     a5d:	48 8d 05 dc e3 00 00 	lea    rax,[rip+0xe3dc]        # ee40 <NimMainInner>
     a64:	48 89 44 24 08       	mov    QWORD PTR [rsp+0x8],rax
     a69:	48 8b 44 24 08       	mov    rax,QWORD PTR [rsp+0x8]
     a6e:	ff d0                	call   rax
     a70:	8b 05 3a 49 21 00    	mov    eax,DWORD PTR [rip+0x21493a]        # 2153b0 <nim_program_result>
     a76:	48 83 c4 18          	add    rsp,0x18
     a7a:	c3                   	ret    
     a7b:	0f 1f 44 00 00       	nop    DWORD PTR [rax+rax*1+0x0]

0000000000000a80 <_start>:
     a80:	31 ed                	xor    ebp,ebp
     a82:	49 89 d1             	mov    r9,rdx
     a85:	5e                   	pop    rsi
     a86:	48 89 e2             	mov    rdx,rsp
     a89:	48 83 e4 f0          	and    rsp,0xfffffffffffffff0
     a8d:	50                   	push   rax
     a8e:	54                   	push   rsp
     a8f:	4c 8d 05 9a e7 00 00 	lea    r8,[rip+0xe79a]        # f230 <__libc_csu_fini>
     a96:	48 8d 0d 23 e7 00 00 	lea    rcx,[rip+0xe723]        # f1c0 <__libc_csu_init>
     a9d:	48 8d 3d 9c ff ff ff 	lea    rdi,[rip+0xffffffffffffff9c]        # a40 <main>
     aa4:	ff 15 36 15 21 00    	call   QWORD PTR [rip+0x211536]        # 211fe0 <__libc_start_main@GLIBC_2.2.5>
     aaa:	f4                   	hlt    
     aab:	0f 1f 44 00 00       	nop    DWORD PTR [rax+rax*1+0x0]

0000000000000ab0 <deregister_tm_clones>:
     ab0:	48 8d 3d 59 15 21 00 	lea    rdi,[rip+0x211559]        # 212010 <__TMC_END__>
     ab7:	55                   	push   rbp
     ab8:	48 8d 05 51 15 21 00 	lea    rax,[rip+0x211551]        # 212010 <__TMC_END__>
     abf:	48 39 f8             	cmp    rax,rdi
     ac2:	48 89 e5             	mov    rbp,rsp
     ac5:	74 19                	je     ae0 <deregister_tm_clones+0x30>
     ac7:	48 8b 05 0a 15 21 00 	mov    rax,QWORD PTR [rip+0x21150a]        # 211fd8 <_ITM_deregisterTMCloneTable>
     ace:	48 85 c0             	test   rax,rax
     ad1:	74 0d                	je     ae0 <deregister_tm_clones+0x30>
     ad3:	5d                   	pop    rbp
     ad4:	ff e0                	jmp    rax
     ad6:	66 2e 0f 1f 84 00 00 	nop    WORD PTR cs:[rax+rax*1+0x0]
     add:	00 00 00 
     ae0:	5d                   	pop    rbp
     ae1:	c3                   	ret    
     ae2:	0f 1f 40 00          	nop    DWORD PTR [rax+0x0]
     ae6:	66 2e 0f 1f 84 00 00 	nop    WORD PTR cs:[rax+rax*1+0x0]
     aed:	00 00 00 

0000000000000af0 <register_tm_clones>:
     af0:	48 8d 3d 19 15 21 00 	lea    rdi,[rip+0x211519]        # 212010 <__TMC_END__>
     af7:	48 8d 35 12 15 21 00 	lea    rsi,[rip+0x211512]        # 212010 <__TMC_END__>
     afe:	55                   	push   rbp
     aff:	48 29 fe             	sub    rsi,rdi
     b02:	48 89 e5             	mov    rbp,rsp
     b05:	48 c1 fe 03          	sar    rsi,0x3
     b09:	48 89 f0             	mov    rax,rsi
     b0c:	48 c1 e8 3f          	shr    rax,0x3f
     b10:	48 01 c6             	add    rsi,rax
     b13:	48 d1 fe             	sar    rsi,1
     b16:	74 18                	je     b30 <register_tm_clones+0x40>
     b18:	48 8b 05 d1 14 21 00 	mov    rax,QWORD PTR [rip+0x2114d1]        # 211ff0 <_ITM_registerTMCloneTable>
     b1f:	48 85 c0             	test   rax,rax
     b22:	74 0c                	je     b30 <register_tm_clones+0x40>
     b24:	5d                   	pop    rbp
     b25:	ff e0                	jmp    rax
     b27:	66 0f 1f 84 00 00 00 	nop    WORD PTR [rax+rax*1+0x0]
     b2e:	00 00 
     b30:	5d                   	pop    rbp
     b31:	c3                   	ret    
     b32:	0f 1f 40 00          	nop    DWORD PTR [rax+0x0]
     b36:	66 2e 0f 1f 84 00 00 	nop    WORD PTR cs:[rax+rax*1+0x0]
     b3d:	00 00 00 

0000000000000b40 <__do_global_dtors_aux>:
     b40:	80 3d 01 15 21 00 00 	cmp    BYTE PTR [rip+0x211501],0x0        # 212048 <completed.7698>
     b47:	75 2f                	jne    b78 <__do_global_dtors_aux+0x38>
     b49:	48 83 3d a7 14 21 00 	cmp    QWORD PTR [rip+0x2114a7],0x0        # 211ff8 <__cxa_finalize@GLIBC_2.2.5>
     b50:	00 
     b51:	55                   	push   rbp
     b52:	48 89 e5             	mov    rbp,rsp
     b55:	74 0c                	je     b63 <__do_global_dtors_aux+0x23>
     b57:	48 8b 3d aa 14 21 00 	mov    rdi,QWORD PTR [rip+0x2114aa]        # 212008 <__dso_handle>
     b5e:	e8 cd fe ff ff       	call   a30 <__cxa_finalize@plt>
     b63:	e8 48 ff ff ff       	call   ab0 <deregister_tm_clones>
     b68:	c6 05 d9 14 21 00 01 	mov    BYTE PTR [rip+0x2114d9],0x1        # 212048 <completed.7698>
     b6f:	5d                   	pop    rbp
     b70:	c3                   	ret    
     b71:	0f 1f 80 00 00 00 00 	nop    DWORD PTR [rax+0x0]
     b78:	f3 c3                	repz ret 
     b7a:	66 0f 1f 44 00 00    	nop    WORD PTR [rax+rax*1+0x0]

0000000000000b80 <frame_dummy>:
     b80:	55                   	push   rbp
     b81:	48 89 e5             	mov    rbp,rsp
     b84:	5d                   	pop    rbp
     b85:	e9 66 ff ff ff       	jmp    af0 <register_tm_clones>
     b8a:	66 0f 1f 44 00 00    	nop    WORD PTR [rax+rax*1+0x0]

0000000000000b90 <writeToBuffer__Nntp3gW9b170LCR9cOWNy1tg>:
     b90:	0f b6 16             	movzx  edx,BYTE PTR [rsi]
     b93:	84 d2                	test   dl,dl
     b95:	74 18                	je     baf <writeToBuffer__Nntp3gW9b170LCR9cOWNy1tg+0x1f>
     b97:	31 c0                	xor    eax,eax
     b99:	0f 1f 80 00 00 00 00 	nop    DWORD PTR [rax+0x0]
     ba0:	88 14 07             	mov    BYTE PTR [rdi+rax*1],dl
     ba3:	48 83 c0 01          	add    rax,0x1
     ba7:	0f b6 14 06          	movzx  edx,BYTE PTR [rsi+rax*1]
     bab:	84 d2                	test   dl,dl
     bad:	75 f1                	jne    ba0 <writeToBuffer__Nntp3gW9b170LCR9cOWNy1tg+0x10>
     baf:	f3 c3                	repz ret 
     bb1:	0f 1f 44 00 00       	nop    DWORD PTR [rax+rax*1+0x0]
     bb6:	66 2e 0f 1f 84 00 00 	nop    WORD PTR cs:[rax+rax*1+0x0]
     bbd:	00 00 00 

0000000000000bc0 <writeFloatToBuffer__UrA9aquvUwHFUFx78eUQk3A>:
     bc0:	53                   	push   rbx
     bc1:	48 8d 0d 7c e6 00 00 	lea    rcx,[rip+0xe67c]        # f244 <_IO_stdin_used+0x4>
     bc8:	48 c7 c2 ff ff ff ff 	mov    rdx,0xffffffffffffffff
     bcf:	be 01 00 00 00       	mov    esi,0x1
     bd4:	b8 01 00 00 00       	mov    eax,0x1
     bd9:	48 89 fb             	mov    rbx,rdi
     bdc:	e8 3f fe ff ff       	call   a20 <__sprintf_chk@plt>
     be1:	48 8b 0d 28 48 21 00 	mov    rcx,QWORD PTR [rip+0x214828]        # 215410 <nimInErrorMode__759bT87luu8XGcbkw13FUjA>
     be8:	48 85 c9             	test   rcx,rcx
     beb:	0f 85 07 01 00 00    	jne    cf8 <writeFloatToBuffer__UrA9aquvUwHFUFx78eUQk3A+0x138>
     bf1:	4c 63 c0             	movsxd r8,eax
     bf4:	48 89 da             	mov    rdx,rbx
     bf7:	45 31 c9             	xor    r9d,r9d
     bfa:	4a 8d 04 03          	lea    rax,[rbx+r8*1]
     bfe:	eb 23                	jmp    c23 <writeFloatToBuffer__UrA9aquvUwHFUFx78eUQk3A+0x63>
     c00:	89 f7                	mov    edi,esi
     c02:	83 e7 df             	and    edi,0xffffffdf
     c05:	83 ef 41             	sub    edi,0x41
     c08:	40 80 ff 19          	cmp    dil,0x19
     c0c:	76 06                	jbe    c14 <writeFloatToBuffer__UrA9aquvUwHFUFx78eUQk3A+0x54>
     c0e:	40 80 fe 2e          	cmp    sil,0x2e
     c12:	75 06                	jne    c1a <writeFloatToBuffer__UrA9aquvUwHFUFx78eUQk3A+0x5a>
     c14:	41 b9 01 00 00 00    	mov    r9d,0x1
     c1a:	48 83 c2 01          	add    rdx,0x1
     c1e:	48 39 d0             	cmp    rax,rdx
     c21:	74 1b                	je     c3e <writeFloatToBuffer__UrA9aquvUwHFUFx78eUQk3A+0x7e>
     c23:	0f b6 32             	movzx  esi,BYTE PTR [rdx]
     c26:	40 80 fe 2c          	cmp    sil,0x2c
     c2a:	75 d4                	jne    c00 <writeFloatToBuffer__UrA9aquvUwHFUFx78eUQk3A+0x40>
     c2c:	c6 02 2e             	mov    BYTE PTR [rdx],0x2e
     c2f:	48 83 c2 01          	add    rdx,0x1
     c33:	41 b9 01 00 00 00    	mov    r9d,0x1
     c39:	48 39 d0             	cmp    rax,rdx
     c3c:	75 e5                	jne    c23 <writeFloatToBuffer__UrA9aquvUwHFUFx78eUQk3A+0x63>
     c3e:	45 84 c9             	test   r9b,r9b
     c41:	74 5d                	je     ca0 <writeFloatToBuffer__UrA9aquvUwHFUFx78eUQk3A+0xe0>
     c43:	4c 89 c0             	mov    rax,r8
     c46:	42 0f b6 74 03 ff    	movzx  esi,BYTE PTR [rbx+r8*1-0x1]
     c4c:	89 f2                	mov    edx,esi
     c4e:	83 e2 df             	and    edx,0xffffffdf
     c51:	80 fa 44             	cmp    dl,0x44
     c54:	40 0f 95 c7          	setne  dil
     c58:	80 fa 4e             	cmp    dl,0x4e
     c5b:	0f 95 c2             	setne  dl
     c5e:	40 84 d7             	test   dil,dl
     c61:	74 06                	je     c69 <writeFloatToBuffer__UrA9aquvUwHFUFx78eUQk3A+0xa9>
     c63:	40 80 fe 29          	cmp    sil,0x29
     c67:	75 57                	jne    cc0 <writeFloatToBuffer__UrA9aquvUwHFUFx78eUQk3A+0x100>
     c69:	48 8d 35 da e5 00 00 	lea    rsi,[rip+0xe5da]        # f24a <_IO_stdin_used+0xa>
     c70:	ba 6e 00 00 00       	mov    edx,0x6e
     c75:	0f 1f 00             	nop    DWORD PTR [rax]
     c78:	88 14 0b             	mov    BYTE PTR [rbx+rcx*1],dl
     c7b:	48 83 c1 01          	add    rcx,0x1
     c7f:	0f b6 14 0e          	movzx  edx,BYTE PTR [rsi+rcx*1]
     c83:	84 d2                	test   dl,dl
     c85:	75 f1                	jne    c78 <writeFloatToBuffer__UrA9aquvUwHFUFx78eUQk3A+0xb8>
     c87:	48 83 3d 81 47 21 00 	cmp    QWORD PTR [rip+0x214781],0x0        # 215410 <nimInErrorMode__759bT87luu8XGcbkw13FUjA>
     c8e:	00 
     c8f:	75 05                	jne    c96 <writeFloatToBuffer__UrA9aquvUwHFUFx78eUQk3A+0xd6>
     c91:	b8 03 00 00 00       	mov    eax,0x3
     c96:	5b                   	pop    rbx
     c97:	c3                   	ret    
     c98:	0f 1f 84 00 00 00 00 	nop    DWORD PTR [rax+rax*1+0x0]
     c9f:	00 
     ca0:	42 c6 04 03 2e       	mov    BYTE PTR [rbx+r8*1],0x2e
     ca5:	42 c6 44 03 01 30    	mov    BYTE PTR [rbx+r8*1+0x1],0x30
     cab:	49 8d 40 02          	lea    rax,[r8+0x2]
     caf:	42 c6 44 03 02 00    	mov    BYTE PTR [rbx+r8*1+0x2],0x0
     cb5:	eb 8f                	jmp    c46 <writeFloatToBuffer__UrA9aquvUwHFUFx78eUQk3A+0x86>
     cb7:	66 0f 1f 84 00 00 00 	nop    WORD PTR [rax+rax*1+0x0]
     cbe:	00 00 
     cc0:	40 80 fe 46          	cmp    sil,0x46
     cc4:	75 d0                	jne    c96 <writeFloatToBuffer__UrA9aquvUwHFUFx78eUQk3A+0xd6>
     cc6:	80 3b 2d             	cmp    BYTE PTR [rbx],0x2d
     cc9:	ba 69 00 00 00       	mov    edx,0x69
     cce:	48 8d 35 7a e5 00 00 	lea    rsi,[rip+0xe57a]        # f24f <_IO_stdin_used+0xf>
     cd5:	74 25                	je     cfc <writeFloatToBuffer__UrA9aquvUwHFUFx78eUQk3A+0x13c>
     cd7:	66 0f 1f 84 00 00 00 	nop    WORD PTR [rax+rax*1+0x0]
     cde:	00 00 
     ce0:	88 14 0b             	mov    BYTE PTR [rbx+rcx*1],dl
     ce3:	48 83 c1 01          	add    rcx,0x1
     ce7:	0f b6 14 0e          	movzx  edx,BYTE PTR [rsi+rcx*1]
     ceb:	84 d2                	test   dl,dl
     ced:	75 f1                	jne    ce0 <writeFloatToBuffer__UrA9aquvUwHFUFx78eUQk3A+0x120>
     cef:	eb 96                	jmp    c87 <writeFloatToBuffer__UrA9aquvUwHFUFx78eUQk3A+0xc7>
     cf1:	0f 1f 80 00 00 00 00 	nop    DWORD PTR [rax+0x0]
     cf8:	31 c0                	xor    eax,eax
     cfa:	5b                   	pop    rbx
     cfb:	c3                   	ret    
     cfc:	48 8d 35 4b e5 00 00 	lea    rsi,[rip+0xe54b]        # f24e <_IO_stdin_used+0xe>
     d03:	ba 2d 00 00 00       	mov    edx,0x2d
     d08:	0f 1f 84 00 00 00 00 	nop    DWORD PTR [rax+rax*1+0x0]
     d0f:	00 
     d10:	88 14 0b             	mov    BYTE PTR [rbx+rcx*1],dl
     d13:	48 83 c1 01          	add    rcx,0x1
     d17:	0f b6 14 0e          	movzx  edx,BYTE PTR [rsi+rcx*1]
     d1b:	84 d2                	test   dl,dl
     d1d:	75 f1                	jne    d10 <writeFloatToBuffer__UrA9aquvUwHFUFx78eUQk3A+0x150>
     d1f:	48 83 3d e9 46 21 00 	cmp    QWORD PTR [rip+0x2146e9],0x0        # 215410 <nimInErrorMode__759bT87luu8XGcbkw13FUjA>
     d26:	00 
     d27:	ba 04 00 00 00       	mov    edx,0x4
     d2c:	5b                   	pop    rbx
     d2d:	48 0f 44 c2          	cmove  rax,rdx
     d31:	c3                   	ret    
     d32:	66 2e 0f 1f 84 00 00 	nop    WORD PTR cs:[rax+rax*1+0x0]
     d39:	00 00 00 
     d3c:	0f 1f 40 00          	nop    DWORD PTR [rax+0x0]

0000000000000d40 <echoBinSafe>:
     d40:	41 57                	push   r15
     d42:	41 56                	push   r14
     d44:	41 55                	push   r13
     d46:	41 54                	push   r12
     d48:	49 89 fc             	mov    r12,rdi
     d4b:	55                   	push   rbp
     d4c:	53                   	push   rbx
     d4d:	48 89 f3             	mov    rbx,rsi
     d50:	48 83 ec 28          	sub    rsp,0x28
     d54:	48 8b 3d c5 12 21 00 	mov    rdi,QWORD PTR [rip+0x2112c5]        # 212020 <stdout@@GLIBC_2.2.5>
     d5b:	48 c7 05 aa 46 21 00 	mov    QWORD PTR [rip+0x2146aa],0x0        # 215410 <nimInErrorMode__759bT87luu8XGcbkw13FUjA>
     d62:	00 00 00 00 
     d66:	64 48 8b 04 25 28 00 	mov    rax,QWORD PTR fs:0x28
     d6d:	00 00 
     d6f:	48 89 44 24 18       	mov    QWORD PTR [rsp+0x18],rax
     d74:	31 c0                	xor    eax,eax
     d76:	48 c7 04 24 00 00 00 	mov    QWORD PTR [rsp],0x0
     d7d:	00 
     d7e:	48 c7 44 24 08 00 00 	mov    QWORD PTR [rsp+0x8],0x0
     d85:	00 00 
     d87:	e8 04 fc ff ff       	call   990 <flockfile@plt>
     d8c:	4c 8b 35 7d 46 21 00 	mov    r14,QWORD PTR [rip+0x21467d]        # 215410 <nimInErrorMode__759bT87luu8XGcbkw13FUjA>
     d93:	4d 85 f6             	test   r14,r14
     d96:	0f 85 44 01 00 00    	jne    ee0 <echoBinSafe+0x1a0>
     d9c:	48 85 db             	test   rbx,rbx
     d9f:	48 89 e5             	mov    rbp,rsp
     da2:	0f 8e b8 00 00 00    	jle    e60 <echoBinSafe+0x120>
     da8:	31 c0                	xor    eax,eax
     daa:	48 89 e5             	mov    rbp,rsp
     dad:	4c 8d 2d 55 e5 00 00 	lea    r13,[rip+0xe555]        # f309 <_IO_stdin_used+0xc9>
     db4:	eb 23                	jmp    dd9 <echoBinSafe+0x99>
     db6:	66 2e 0f 1f 84 00 00 	nop    WORD PTR cs:[rax+rax*1+0x0]
     dbd:	00 00 00 
     dc0:	49 83 c6 01          	add    r14,0x1
     dc4:	4c 39 f3             	cmp    rbx,r14
     dc7:	0f 8e 93 00 00 00    	jle    e60 <echoBinSafe+0x120>
     dcd:	49 39 de             	cmp    r14,rbx
     dd0:	4c 89 f0             	mov    rax,r14
     dd3:	0f 83 e7 00 00 00    	jae    ec0 <echoBinSafe+0x180>
     dd9:	48 c1 e0 04          	shl    rax,0x4
     ddd:	48 89 ef             	mov    rdi,rbp
     de0:	4c 01 e0             	add    rax,r12
     de3:	48 8b 30             	mov    rsi,QWORD PTR [rax]
     de6:	48 8b 50 08          	mov    rdx,QWORD PTR [rax+0x8]
     dea:	e8 e1 bc 00 00       	call   cad0 <eq___aBBXmHFBEivKqERloP6zmA_2>
     def:	48 8b 44 24 08       	mov    rax,QWORD PTR [rsp+0x8]
     df4:	48 8b 34 24          	mov    rsi,QWORD PTR [rsp]
     df8:	ba 01 00 00 00       	mov    edx,0x1
     dfd:	48 8b 0d 1c 12 21 00 	mov    rcx,QWORD PTR [rip+0x21121c]        # 212020 <stdout@@GLIBC_2.2.5>
     e04:	48 8d 78 08          	lea    rdi,[rax+0x8]
     e08:	48 85 f6             	test   rsi,rsi
     e0b:	49 0f 44 fd          	cmove  rdi,r13
     e0f:	e8 ec fb ff ff       	call   a00 <fwrite@plt>
     e14:	4c 8b 3d f5 45 21 00 	mov    r15,QWORD PTR [rip+0x2145f5]        # 215410 <nimInErrorMode__759bT87luu8XGcbkw13FUjA>
     e1b:	4d 85 ff             	test   r15,r15
     e1e:	74 a0                	je     dc0 <echoBinSafe+0x80>
     e20:	48 89 ef             	mov    rdi,rbp
     e23:	48 c7 05 e2 45 21 00 	mov    QWORD PTR [rip+0x2145e2],0x0        # 215410 <nimInErrorMode__759bT87luu8XGcbkw13FUjA>
     e2a:	00 00 00 00 
     e2e:	e8 5d 29 00 00       	call   3790 <eqdestroy___dS1BF3Vxjg9aJMmmhVJKSpQ>
     e33:	4c 01 3d d6 45 21 00 	add    QWORD PTR [rip+0x2145d6],r15        # 215410 <nimInErrorMode__759bT87luu8XGcbkw13FUjA>
     e3a:	48 8b 44 24 18       	mov    rax,QWORD PTR [rsp+0x18]
     e3f:	64 48 33 04 25 28 00 	xor    rax,QWORD PTR fs:0x28
     e46:	00 00 
     e48:	0f 85 9d 00 00 00    	jne    eeb <echoBinSafe+0x1ab>
     e4e:	48 83 c4 28          	add    rsp,0x28
     e52:	5b                   	pop    rbx
     e53:	5d                   	pop    rbp
     e54:	41 5c                	pop    r12
     e56:	41 5d                	pop    r13
     e58:	41 5e                	pop    r14
     e5a:	41 5f                	pop    r15
     e5c:	c3                   	ret    
     e5d:	0f 1f 00             	nop    DWORD PTR [rax]
     e60:	48 8b 0d b9 11 21 00 	mov    rcx,QWORD PTR [rip+0x2111b9]        # 212020 <stdout@@GLIBC_2.2.5>
     e67:	48 8d 3d 9a e4 00 00 	lea    rdi,[rip+0xe49a]        # f308 <_IO_stdin_used+0xc8>
     e6e:	ba 01 00 00 00       	mov    edx,0x1
     e73:	be 01 00 00 00       	mov    esi,0x1
     e78:	e8 83 fb ff ff       	call   a00 <fwrite@plt>
     e7d:	4c 8b 3d 8c 45 21 00 	mov    r15,QWORD PTR [rip+0x21458c]        # 215410 <nimInErrorMode__759bT87luu8XGcbkw13FUjA>
     e84:	4d 85 ff             	test   r15,r15
     e87:	75 97                	jne    e20 <echoBinSafe+0xe0>
     e89:	48 8b 3d 90 11 21 00 	mov    rdi,QWORD PTR [rip+0x211190]        # 212020 <stdout@@GLIBC_2.2.5>
     e90:	e8 3b fb ff ff       	call   9d0 <fflush@plt>
     e95:	4c 8b 3d 74 45 21 00 	mov    r15,QWORD PTR [rip+0x214574]        # 215410 <nimInErrorMode__759bT87luu8XGcbkw13FUjA>
     e9c:	4d 85 ff             	test   r15,r15
     e9f:	0f 85 7b ff ff ff    	jne    e20 <echoBinSafe+0xe0>
     ea5:	48 8b 3d 74 11 21 00 	mov    rdi,QWORD PTR [rip+0x211174]        # 212020 <stdout@@GLIBC_2.2.5>
     eac:	e8 8f fa ff ff       	call   940 <funlockfile@plt>
     eb1:	4c 8b 3d 58 45 21 00 	mov    r15,QWORD PTR [rip+0x214558]        # 215410 <nimInErrorMode__759bT87luu8XGcbkw13FUjA>
     eb8:	e9 63 ff ff ff       	jmp    e20 <echoBinSafe+0xe0>
     ebd:	0f 1f 00             	nop    DWORD PTR [rax]
     ec0:	48 8d 73 ff          	lea    rsi,[rbx-0x1]
     ec4:	4c 89 f7             	mov    rdi,r14
     ec7:	e8 e4 c0 00 00       	call   cfb0 <raiseIndexError2>
     ecc:	4c 8b 3d 3d 45 21 00 	mov    r15,QWORD PTR [rip+0x21453d]        # 215410 <nimInErrorMode__759bT87luu8XGcbkw13FUjA>
     ed3:	e9 48 ff ff ff       	jmp    e20 <echoBinSafe+0xe0>
     ed8:	0f 1f 84 00 00 00 00 	nop    DWORD PTR [rax+rax*1+0x0]
     edf:	00 
     ee0:	4d 89 f7             	mov    r15,r14
     ee3:	48 89 e5             	mov    rbp,rsp
     ee6:	e9 35 ff ff ff       	jmp    e20 <echoBinSafe+0xe0>
     eeb:	e8 70 fa ff ff       	call   960 <__stack_chk_fail@plt>

0000000000000ef0 <intSetGet__O3FRrWKKUdi8uRTGxiPdIg>:
     ef0:	40 0f b6 c6          	movzx  eax,sil
     ef4:	48 8b 04 c7          	mov    rax,QWORD PTR [rdi+rax*8]
     ef8:	48 85 c0             	test   rax,rax
     efb:	74 19                	je     f16 <intSetGet__O3FRrWKKUdi8uRTGxiPdIg+0x26>
     efd:	48 3b 70 08          	cmp    rsi,QWORD PTR [rax+0x8]
     f01:	75 0b                	jne    f0e <intSetGet__O3FRrWKKUdi8uRTGxiPdIg+0x1e>
     f03:	eb 1b                	jmp    f20 <intSetGet__O3FRrWKKUdi8uRTGxiPdIg+0x30>
     f05:	0f 1f 00             	nop    DWORD PTR [rax]
     f08:	48 39 70 08          	cmp    QWORD PTR [rax+0x8],rsi
     f0c:	74 08                	je     f16 <intSetGet__O3FRrWKKUdi8uRTGxiPdIg+0x26>
     f0e:	48 8b 00             	mov    rax,QWORD PTR [rax]
     f11:	48 85 c0             	test   rax,rax
     f14:	75 f2                	jne    f08 <intSetGet__O3FRrWKKUdi8uRTGxiPdIg+0x18>
     f16:	f3 c3                	repz ret 
     f18:	0f 1f 84 00 00 00 00 	nop    DWORD PTR [rax+rax*1+0x0]
     f1f:	00 
     f20:	f3 c3                	repz ret 
     f22:	0f 1f 40 00          	nop    DWORD PTR [rax+0x0]
     f26:	66 2e 0f 1f 84 00 00 	nop    WORD PTR cs:[rax+rax*1+0x0]
     f2d:	00 00 00 

0000000000000f30 <contains__9b5xR7VBZVwQDvk5Nr9bDKdQ>:
     f30:	48 89 f2             	mov    rdx,rsi
     f33:	48 c1 fa 09          	sar    rdx,0x9
     f37:	0f b6 c2             	movzx  eax,dl
     f3a:	48 8b 04 c7          	mov    rax,QWORD PTR [rdi+rax*8]
     f3e:	48 85 c0             	test   rax,rax
     f41:	75 0d                	jne    f50 <contains__9b5xR7VBZVwQDvk5Nr9bDKdQ+0x20>
     f43:	eb 3b                	jmp    f80 <contains__9b5xR7VBZVwQDvk5Nr9bDKdQ+0x50>
     f45:	0f 1f 00             	nop    DWORD PTR [rax]
     f48:	48 8b 00             	mov    rax,QWORD PTR [rax]
     f4b:	48 85 c0             	test   rax,rax
     f4e:	74 28                	je     f78 <contains__9b5xR7VBZVwQDvk5Nr9bDKdQ+0x48>
     f50:	48 3b 50 08          	cmp    rdx,QWORD PTR [rax+0x8]
     f54:	75 f2                	jne    f48 <contains__9b5xR7VBZVwQDvk5Nr9bDKdQ+0x18>
     f56:	48 89 f1             	mov    rcx,rsi
     f59:	81 e1 ff 01 00 00    	and    ecx,0x1ff
     f5f:	48 89 ca             	mov    rdx,rcx
     f62:	48 c1 fa 06          	sar    rdx,0x6
     f66:	48 8b 44 d0 10       	mov    rax,QWORD PTR [rax+rdx*8+0x10]
     f6b:	48 d3 e8             	shr    rax,cl
     f6e:	83 e0 01             	and    eax,0x1
     f71:	c3                   	ret    
     f72:	66 0f 1f 44 00 00    	nop    WORD PTR [rax+rax*1+0x0]
     f78:	f3 c3                	repz ret 
     f7a:	66 0f 1f 44 00 00    	nop    WORD PTR [rax+rax*1+0x0]
     f80:	31 c0                	xor    eax,eax
     f82:	c3                   	ret    
     f83:	0f 1f 00             	nop    DWORD PTR [rax]
     f86:	66 2e 0f 1f 84 00 00 	nop    WORD PTR cs:[rax+rax*1+0x0]
     f8d:	00 00 00 

0000000000000f90 <removeChunkFromMatrix__YSJZJgeU5UU2aa8GNvs3WA>:
     f90:	48 8b 46 08          	mov    rax,QWORD PTR [rsi+0x8]
     f94:	3d ff ff 00 00       	cmp    eax,0xffff
     f99:	89 c1                	mov    ecx,eax
     f9b:	77 7b                	ja     1018 <removeChunkFromMatrix__YSJZJgeU5UU2aa8GNvs3WA+0x88>
     f9d:	31 d2                	xor    edx,edx
     f9f:	3d ff 00 00 00       	cmp    eax,0xff
     fa4:	0f 87 96 00 00 00    	ja     1040 <removeChunkFromMatrix__YSJZJgeU5UU2aa8GNvs3WA+0xb0>
     faa:	4c 8d 05 4f e6 00 00 	lea    r8,[rip+0xe64f]        # f600 <fsLookupTable__Gn52IZvqY4slyBTOYwGNRQ>
     fb1:	4c 8b 4e 10          	mov    r9,QWORD PTR [rsi+0x10]
     fb5:	49 0f be 0c 08       	movsx  rcx,BYTE PTR [r8+rcx*1]
     fba:	4c 8b 46 18          	mov    r8,QWORD PTR [rsi+0x18]
     fbe:	48 01 ca             	add    rdx,rcx
     fc1:	8d 4a fb             	lea    ecx,[rdx-0x5]
     fc4:	4c 8d 52 fa          	lea    r10,[rdx-0x6]
     fc8:	48 d3 f8             	sar    rax,cl
     fcb:	48 83 e8 20          	sub    rax,0x20
     fcf:	4d 85 c9             	test   r9,r9
     fd2:	74 08                	je     fdc <removeChunkFromMatrix__YSJZJgeU5UU2aa8GNvs3WA+0x4c>
     fd4:	4d 89 41 18          	mov    QWORD PTR [r9+0x18],r8
     fd8:	4c 8b 46 18          	mov    r8,QWORD PTR [rsi+0x18]
     fdc:	4d 85 c0             	test   r8,r8
     fdf:	74 08                	je     fe9 <removeChunkFromMatrix__YSJZJgeU5UU2aa8GNvs3WA+0x59>
     fe1:	48 8b 4e 10          	mov    rcx,QWORD PTR [rsi+0x10]
     fe5:	49 89 48 10          	mov    QWORD PTR [r8+0x10],rcx
     fe9:	4d 89 d0             	mov    r8,r10
     fec:	49 c1 e0 05          	shl    r8,0x5
     ff0:	49 01 c0             	add    r8,rax
     ff3:	4e 8d 04 c7          	lea    r8,[rdi+r8*8]
     ff7:	49 39 b0 78 10 00 00 	cmp    QWORD PTR [r8+0x1078],rsi
     ffe:	74 50                	je     1050 <removeChunkFromMatrix__YSJZJgeU5UU2aa8GNvs3WA+0xc0>
    1000:	48 c7 46 18 00 00 00 	mov    QWORD PTR [rsi+0x18],0x0
    1007:	00 
    1008:	48 c7 46 10 00 00 00 	mov    QWORD PTR [rsi+0x10],0x0
    100f:	00 
    1010:	c3                   	ret    
    1011:	0f 1f 80 00 00 00 00 	nop    DWORD PTR [rax+0x0]
    1018:	3d ff ff ff 00       	cmp    eax,0xffffff
    101d:	89 c1                	mov    ecx,eax
    101f:	76 0f                	jbe    1030 <removeChunkFromMatrix__YSJZJgeU5UU2aa8GNvs3WA+0xa0>
    1021:	c1 e9 18             	shr    ecx,0x18
    1024:	ba 18 00 00 00       	mov    edx,0x18
    1029:	e9 7c ff ff ff       	jmp    faa <removeChunkFromMatrix__YSJZJgeU5UU2aa8GNvs3WA+0x1a>
    102e:	66 90                	xchg   ax,ax
    1030:	c1 e9 10             	shr    ecx,0x10
    1033:	ba 10 00 00 00       	mov    edx,0x10
    1038:	e9 6d ff ff ff       	jmp    faa <removeChunkFromMatrix__YSJZJgeU5UU2aa8GNvs3WA+0x1a>
    103d:	0f 1f 00             	nop    DWORD PTR [rax]
    1040:	c1 e9 08             	shr    ecx,0x8
    1043:	ba 08 00 00 00       	mov    edx,0x8
    1048:	e9 5d ff ff ff       	jmp    faa <removeChunkFromMatrix__YSJZJgeU5UU2aa8GNvs3WA+0x1a>
    104d:	0f 1f 00             	nop    DWORD PTR [rax]
    1050:	48 8b 4e 10          	mov    rcx,QWORD PTR [rsi+0x10]
    1054:	48 85 c9             	test   rcx,rcx
    1057:	49 89 88 78 10 00 00 	mov    QWORD PTR [r8+0x1078],rcx
    105e:	75 a0                	jne    1000 <removeChunkFromMatrix__YSJZJgeU5UU2aa8GNvs3WA+0x70>
    1060:	83 e0 1f             	and    eax,0x1f
    1063:	4c 8d 04 97          	lea    r8,[rdi+rdx*4]
    1067:	ba 01 00 00 00       	mov    edx,0x1
    106c:	89 c1                	mov    ecx,eax
    106e:	49 89 d3             	mov    r11,rdx
    1071:	49 d3 e3             	shl    r11,cl
    1074:	4c 89 d8             	mov    rax,r11
    1077:	f7 d0                	not    eax
    1079:	41 21 80 fc 0f 00 00 	and    DWORD PTR [r8+0xffc],eax
    1080:	0f 85 7a ff ff ff    	jne    1000 <removeChunkFromMatrix__YSJZJgeU5UU2aa8GNvs3WA+0x70>
    1086:	44 89 d1             	mov    ecx,r10d
    1089:	83 e1 1f             	and    ecx,0x1f
    108c:	48 d3 e2             	shl    rdx,cl
    108f:	f7 d2                	not    edx
    1091:	21 97 10 10 00 00    	and    DWORD PTR [rdi+0x1010],edx
    1097:	e9 64 ff ff ff       	jmp    1000 <removeChunkFromMatrix__YSJZJgeU5UU2aa8GNvs3WA+0x70>
    109c:	0f 1f 40 00          	nop    DWORD PTR [rax+0x0]

00000000000010a0 <excl__9cAWqpgI1NbhhZ3cVPHhI5A>:
    10a0:	48 89 f2             	mov    rdx,rsi
    10a3:	48 c1 fa 09          	sar    rdx,0x9
    10a7:	0f b6 c2             	movzx  eax,dl
    10aa:	48 8b 04 c7          	mov    rax,QWORD PTR [rdi+rax*8]
    10ae:	48 85 c0             	test   rax,rax
    10b1:	75 0d                	jne    10c0 <excl__9cAWqpgI1NbhhZ3cVPHhI5A+0x20>
    10b3:	eb 31                	jmp    10e6 <excl__9cAWqpgI1NbhhZ3cVPHhI5A+0x46>
    10b5:	0f 1f 00             	nop    DWORD PTR [rax]
    10b8:	48 8b 00             	mov    rax,QWORD PTR [rax]
    10bb:	48 85 c0             	test   rax,rax
    10be:	74 30                	je     10f0 <excl__9cAWqpgI1NbhhZ3cVPHhI5A+0x50>
    10c0:	48 3b 50 08          	cmp    rdx,QWORD PTR [rax+0x8]
    10c4:	75 f2                	jne    10b8 <excl__9cAWqpgI1NbhhZ3cVPHhI5A+0x18>
    10c6:	48 89 f1             	mov    rcx,rsi
    10c9:	ba 01 00 00 00       	mov    edx,0x1
    10ce:	81 e1 ff 01 00 00    	and    ecx,0x1ff
    10d4:	48 89 ce             	mov    rsi,rcx
    10d7:	48 d3 e2             	shl    rdx,cl
    10da:	48 c1 fe 06          	sar    rsi,0x6
    10de:	48 f7 d2             	not    rdx
    10e1:	48 21 54 f0 10       	and    QWORD PTR [rax+rsi*8+0x10],rdx
    10e6:	f3 c3                	repz ret 
    10e8:	0f 1f 84 00 00 00 00 	nop    DWORD PTR [rax+rax*1+0x0]
    10ef:	00 
    10f0:	f3 c3                	repz ret 
    10f2:	0f 1f 40 00          	nop    DWORD PTR [rax+0x0]
    10f6:	66 2e 0f 1f 84 00 00 	nop    WORD PTR cs:[rax+rax*1+0x0]
    10fd:	00 00 00 

0000000000001100 <raiseOutOfMem__mMRdr4sgmnykA9aWeM9aDZlw>:
    1100:	48 8b 05 a1 42 21 00 	mov    rax,QWORD PTR [rip+0x2142a1]        # 2153a8 <outOfMemHook__kZNaA7u1MfSW5ZeoGvw8xg>
    1107:	53                   	push   rbx
    1108:	48 85 c0             	test   rax,rax
    110b:	74 02                	je     110f <raiseOutOfMem__mMRdr4sgmnykA9aWeM9aDZlw+0xf>
    110d:	ff d0                	call   rax
    110f:	48 8b 1d 2a 0f 21 00 	mov    rbx,QWORD PTR [rip+0x210f2a]        # 212040 <stderr@@GLIBC_2.2.5>
    1116:	48 8d 3d 36 e1 00 00 	lea    rdi,[rip+0xe136]        # f253 <_IO_stdin_used+0x13>
    111d:	ba 0e 00 00 00       	mov    edx,0xe
    1122:	be 01 00 00 00       	mov    esi,0x1
    1127:	48 89 d9             	mov    rcx,rbx
    112a:	e8 d1 f8 ff ff       	call   a00 <fwrite@plt>
    112f:	48 83 3d d9 42 21 00 	cmp    QWORD PTR [rip+0x2142d9],0x0        # 215410 <nimInErrorMode__759bT87luu8XGcbkw13FUjA>
    1136:	00 
    1137:	75 1f                	jne    1158 <raiseOutOfMem__mMRdr4sgmnykA9aWeM9aDZlw+0x58>
    1139:	48 89 df             	mov    rdi,rbx
    113c:	e8 8f f8 ff ff       	call   9d0 <fflush@plt>
    1141:	48 83 3d c7 42 21 00 	cmp    QWORD PTR [rip+0x2142c7],0x0        # 215410 <nimInErrorMode__759bT87luu8XGcbkw13FUjA>
    1148:	00 
    1149:	75 0d                	jne    1158 <raiseOutOfMem__mMRdr4sgmnykA9aWeM9aDZlw+0x58>
    114b:	bf 01 00 00 00       	mov    edi,0x1
    1150:	e8 9b f8 ff ff       	call   9f0 <exit@plt>
    1155:	0f 1f 00             	nop    DWORD PTR [rax]
    1158:	5b                   	pop    rbx
    1159:	c3                   	ret    
    115a:	66 0f 1f 44 00 00    	nop    WORD PTR [rax+rax*1+0x0]

0000000000001160 <llAlloc__ovw3NMWXeZ0Qi9cGYq1E2Tg>:
    1160:	41 54                	push   r12
    1162:	55                   	push   rbp
    1163:	49 89 f4             	mov    r12,rsi
    1166:	53                   	push   rbx
    1167:	48 89 fd             	mov    rbp,rdi
    116a:	48 83 ec 10          	sub    rsp,0x10
    116e:	48 8b 9f 78 28 00 00 	mov    rbx,QWORD PTR [rdi+0x2878]
    1175:	48 85 db             	test   rbx,rbx
    1178:	74 36                	je     11b0 <llAlloc__ovw3NMWXeZ0Qi9cGYq1E2Tg+0x50>
    117a:	48 8b 03             	mov    rax,QWORD PTR [rbx]
    117d:	48 39 f0             	cmp    rax,rsi
    1180:	7c 2e                	jl     11b0 <llAlloc__ovw3NMWXeZ0Qi9cGYq1E2Tg+0x50>
    1182:	4c 29 e0             	sub    rax,r12
    1185:	48 8b 4b 08          	mov    rcx,QWORD PTR [rbx+0x8]
    1189:	4c 89 e2             	mov    rdx,r12
    118c:	48 89 03             	mov    QWORD PTR [rbx],rax
    118f:	48 8b 85 78 28 00 00 	mov    rax,QWORD PTR [rbp+0x2878]
    1196:	31 f6                	xor    esi,esi
    1198:	48 01 d9             	add    rcx,rbx
    119b:	4c 01 60 08          	add    QWORD PTR [rax+0x8],r12
    119f:	48 89 cf             	mov    rdi,rcx
    11a2:	e8 d9 f7 ff ff       	call   980 <memset@plt>
    11a7:	48 83 c4 10          	add    rsp,0x10
    11ab:	5b                   	pop    rbx
    11ac:	5d                   	pop    rbp
    11ad:	41 5c                	pop    r12
    11af:	c3                   	ret    
    11b0:	45 31 c9             	xor    r9d,r9d
    11b3:	ba 03 00 00 00       	mov    edx,0x3
    11b8:	31 ff                	xor    edi,edi
    11ba:	41 b8 ff ff ff ff    	mov    r8d,0xffffffff
    11c0:	b9 22 00 00 00       	mov    ecx,0x22
    11c5:	be 00 10 00 00       	mov    esi,0x1000
    11ca:	e8 a1 f7 ff ff       	call   970 <mmap@plt>
    11cf:	48 8d 50 ff          	lea    rdx,[rax-0x1]
    11d3:	48 83 fa fd          	cmp    rdx,0xfffffffffffffffd
    11d7:	76 0f                	jbe    11e8 <llAlloc__ovw3NMWXeZ0Qi9cGYq1E2Tg+0x88>
    11d9:	48 89 44 24 08       	mov    QWORD PTR [rsp+0x8],rax
    11de:	e8 1d ff ff ff       	call   1100 <raiseOutOfMem__mMRdr4sgmnykA9aWeM9aDZlw>
    11e3:	48 8b 44 24 08       	mov    rax,QWORD PTR [rsp+0x8]
    11e8:	48 89 85 78 28 00 00 	mov    QWORD PTR [rbp+0x2878],rax
    11ef:	48 81 85 80 28 00 00 	add    QWORD PTR [rbp+0x2880],0x1000
    11f6:	00 10 00 00 
    11fa:	48 c7 00 e8 0f 00 00 	mov    QWORD PTR [rax],0xfe8
    1201:	48 8b 85 78 28 00 00 	mov    rax,QWORD PTR [rbp+0x2878]
    1208:	48 c7 40 08 18 00 00 	mov    QWORD PTR [rax+0x8],0x18
    120f:	00 
    1210:	48 8b 85 78 28 00 00 	mov    rax,QWORD PTR [rbp+0x2878]
    1217:	48 89 58 10          	mov    QWORD PTR [rax+0x10],rbx
    121b:	48 8b 9d 78 28 00 00 	mov    rbx,QWORD PTR [rbp+0x2878]
    1222:	48 8b 03             	mov    rax,QWORD PTR [rbx]
    1225:	e9 58 ff ff ff       	jmp    1182 <llAlloc__ovw3NMWXeZ0Qi9cGYq1E2Tg+0x22>
    122a:	66 0f 1f 44 00 00    	nop    WORD PTR [rax+rax*1+0x0]

0000000000001230 <intSetPut__Cw86Sj6YgVACdT20AkWjcA>:
    1230:	0f b6 c2             	movzx  eax,dl
    1233:	41 55                	push   r13
    1235:	41 54                	push   r12
    1237:	4c 8d 2c c6          	lea    r13,[rsi+rax*8]
    123b:	55                   	push   rbp
    123c:	53                   	push   rbx
    123d:	48 83 ec 18          	sub    rsp,0x18
    1241:	49 8b 45 00          	mov    rax,QWORD PTR [r13+0x0]
    1245:	48 85 c0             	test   rax,rax
    1248:	75 0e                	jne    1258 <intSetPut__Cw86Sj6YgVACdT20AkWjcA+0x28>
    124a:	eb 24                	jmp    1270 <intSetPut__Cw86Sj6YgVACdT20AkWjcA+0x40>
    124c:	0f 1f 40 00          	nop    DWORD PTR [rax+0x0]
    1250:	48 8b 00             	mov    rax,QWORD PTR [rax]
    1253:	48 85 c0             	test   rax,rax
    1256:	74 18                	je     1270 <intSetPut__Cw86Sj6YgVACdT20AkWjcA+0x40>
    1258:	48 3b 50 08          	cmp    rdx,QWORD PTR [rax+0x8]
    125c:	75 f2                	jne    1250 <intSetPut__Cw86Sj6YgVACdT20AkWjcA+0x20>
    125e:	48 83 c4 18          	add    rsp,0x18
    1262:	5b                   	pop    rbx
    1263:	5d                   	pop    rbp
    1264:	41 5c                	pop    r12
    1266:	41 5d                	pop    r13
    1268:	c3                   	ret    
    1269:	0f 1f 80 00 00 00 00 	nop    DWORD PTR [rax+0x0]
    1270:	4c 8b a7 78 28 00 00 	mov    r12,QWORD PTR [rdi+0x2878]
    1277:	48 89 d3             	mov    rbx,rdx
    127a:	48 89 fd             	mov    rbp,rdi
    127d:	4d 85 e4             	test   r12,r12
    1280:	74 5e                	je     12e0 <intSetPut__Cw86Sj6YgVACdT20AkWjcA+0xb0>
    1282:	49 8b 14 24          	mov    rdx,QWORD PTR [r12]
    1286:	48 83 fa 4f          	cmp    rdx,0x4f
    128a:	7e 54                	jle    12e0 <intSetPut__Cw86Sj6YgVACdT20AkWjcA+0xb0>
    128c:	48 83 ea 50          	sub    rdx,0x50
    1290:	49 8b 44 24 08       	mov    rax,QWORD PTR [r12+0x8]
    1295:	49 89 14 24          	mov    QWORD PTR [r12],rdx
    1299:	48 8b 95 78 28 00 00 	mov    rdx,QWORD PTR [rbp+0x2878]
    12a0:	66 0f ef c0          	pxor   xmm0,xmm0
    12a4:	4c 01 e0             	add    rax,r12
    12a7:	48 83 42 08 50       	add    QWORD PTR [rdx+0x8],0x50
    12ac:	0f 11 00             	movups XMMWORD PTR [rax],xmm0
    12af:	0f 11 40 10          	movups XMMWORD PTR [rax+0x10],xmm0
    12b3:	0f 11 40 20          	movups XMMWORD PTR [rax+0x20],xmm0
    12b7:	0f 11 40 30          	movups XMMWORD PTR [rax+0x30],xmm0
    12bb:	0f 11 40 40          	movups XMMWORD PTR [rax+0x40],xmm0
    12bf:	49 8b 55 00          	mov    rdx,QWORD PTR [r13+0x0]
    12c3:	48 89 10             	mov    QWORD PTR [rax],rdx
    12c6:	49 89 45 00          	mov    QWORD PTR [r13+0x0],rax
    12ca:	48 89 58 08          	mov    QWORD PTR [rax+0x8],rbx
    12ce:	48 83 c4 18          	add    rsp,0x18
    12d2:	5b                   	pop    rbx
    12d3:	5d                   	pop    rbp
    12d4:	41 5c                	pop    r12
    12d6:	41 5d                	pop    r13
    12d8:	c3                   	ret    
    12d9:	0f 1f 80 00 00 00 00 	nop    DWORD PTR [rax+0x0]
    12e0:	45 31 c9             	xor    r9d,r9d
    12e3:	ba 03 00 00 00       	mov    edx,0x3
    12e8:	31 ff                	xor    edi,edi
    12ea:	41 b8 ff ff ff ff    	mov    r8d,0xffffffff
    12f0:	b9 22 00 00 00       	mov    ecx,0x22
    12f5:	be 00 10 00 00       	mov    esi,0x1000
    12fa:	e8 71 f6 ff ff       	call   970 <mmap@plt>
    12ff:	48 8d 50 ff          	lea    rdx,[rax-0x1]
    1303:	48 83 fa fd          	cmp    rdx,0xfffffffffffffffd
    1307:	76 0f                	jbe    1318 <intSetPut__Cw86Sj6YgVACdT20AkWjcA+0xe8>
    1309:	48 89 44 24 08       	mov    QWORD PTR [rsp+0x8],rax
    130e:	e8 ed fd ff ff       	call   1100 <raiseOutOfMem__mMRdr4sgmnykA9aWeM9aDZlw>
    1313:	48 8b 44 24 08       	mov    rax,QWORD PTR [rsp+0x8]
    1318:	48 89 85 78 28 00 00 	mov    QWORD PTR [rbp+0x2878],rax
    131f:	48 81 85 80 28 00 00 	add    QWORD PTR [rbp+0x2880],0x1000
    1326:	00 10 00 00 
    132a:	48 c7 00 e8 0f 00 00 	mov    QWORD PTR [rax],0xfe8
    1331:	48 8b 85 78 28 00 00 	mov    rax,QWORD PTR [rbp+0x2878]
    1338:	48 c7 40 08 18 00 00 	mov    QWORD PTR [rax+0x8],0x18
    133f:	00 
    1340:	48 8b 85 78 28 00 00 	mov    rax,QWORD PTR [rbp+0x2878]
    1347:	4c 89 60 10          	mov    QWORD PTR [rax+0x10],r12
    134b:	4c 8b a5 78 28 00 00 	mov    r12,QWORD PTR [rbp+0x2878]
    1352:	49 8b 14 24          	mov    rdx,QWORD PTR [r12]
    1356:	e9 31 ff ff ff       	jmp    128c <intSetPut__Cw86Sj6YgVACdT20AkWjcA+0x5c>
    135b:	0f 1f 44 00 00       	nop    DWORD PTR [rax+rax*1+0x0]

0000000000001360 <incl__tSnfTXv7GxXoDyFDm9bvzqg>:
    1360:	41 56                	push   r14
    1362:	41 55                	push   r13
    1364:	49 89 fd             	mov    r13,rdi
    1367:	41 54                	push   r12
    1369:	55                   	push   rbp
    136a:	48 89 d5             	mov    rbp,rdx
    136d:	53                   	push   rbx
    136e:	48 89 d3             	mov    rbx,rdx
    1371:	48 c1 fb 09          	sar    rbx,0x9
    1375:	0f b6 c3             	movzx  eax,bl
    1378:	48 83 ec 10          	sub    rsp,0x10
    137c:	4c 8d 24 c6          	lea    r12,[rsi+rax*8]
    1380:	49 8b 04 24          	mov    rax,QWORD PTR [r12]
    1384:	48 85 c0             	test   rax,rax
    1387:	75 0f                	jne    1398 <incl__tSnfTXv7GxXoDyFDm9bvzqg+0x38>
    1389:	eb 45                	jmp    13d0 <incl__tSnfTXv7GxXoDyFDm9bvzqg+0x70>
    138b:	0f 1f 44 00 00       	nop    DWORD PTR [rax+rax*1+0x0]
    1390:	48 8b 00             	mov    rax,QWORD PTR [rax]
    1393:	48 85 c0             	test   rax,rax
    1396:	74 38                	je     13d0 <incl__tSnfTXv7GxXoDyFDm9bvzqg+0x70>
    1398:	48 3b 58 08          	cmp    rbx,QWORD PTR [rax+0x8]
    139c:	75 f2                	jne    1390 <incl__tSnfTXv7GxXoDyFDm9bvzqg+0x30>
    139e:	48 89 e9             	mov    rcx,rbp
    13a1:	ba 01 00 00 00       	mov    edx,0x1
    13a6:	81 e1 ff 01 00 00    	and    ecx,0x1ff
    13ac:	48 89 ce             	mov    rsi,rcx
    13af:	48 d3 e2             	shl    rdx,cl
    13b2:	48 c1 fe 06          	sar    rsi,0x6
    13b6:	48 09 54 f0 10       	or     QWORD PTR [rax+rsi*8+0x10],rdx
    13bb:	48 83 c4 10          	add    rsp,0x10
    13bf:	5b                   	pop    rbx
    13c0:	5d                   	pop    rbp
    13c1:	41 5c                	pop    r12
    13c3:	41 5d                	pop    r13
    13c5:	41 5e                	pop    r14
    13c7:	c3                   	ret    
    13c8:	0f 1f 84 00 00 00 00 	nop    DWORD PTR [rax+rax*1+0x0]
    13cf:	00 
    13d0:	4d 8b b5 78 28 00 00 	mov    r14,QWORD PTR [r13+0x2878]
    13d7:	4d 85 f6             	test   r14,r14
    13da:	74 54                	je     1430 <incl__tSnfTXv7GxXoDyFDm9bvzqg+0xd0>
    13dc:	49 8b 16             	mov    rdx,QWORD PTR [r14]
    13df:	48 83 fa 4f          	cmp    rdx,0x4f
    13e3:	7e 4b                	jle    1430 <incl__tSnfTXv7GxXoDyFDm9bvzqg+0xd0>
    13e5:	48 83 ea 50          	sub    rdx,0x50
    13e9:	49 8b 46 08          	mov    rax,QWORD PTR [r14+0x8]
    13ed:	49 89 16             	mov    QWORD PTR [r14],rdx
    13f0:	49 8b 95 78 28 00 00 	mov    rdx,QWORD PTR [r13+0x2878]
    13f7:	66 0f ef c0          	pxor   xmm0,xmm0
    13fb:	4c 01 f0             	add    rax,r14
    13fe:	48 83 42 08 50       	add    QWORD PTR [rdx+0x8],0x50
    1403:	0f 11 00             	movups XMMWORD PTR [rax],xmm0
    1406:	0f 11 40 10          	movups XMMWORD PTR [rax+0x10],xmm0
    140a:	0f 11 40 20          	movups XMMWORD PTR [rax+0x20],xmm0
    140e:	0f 11 40 30          	movups XMMWORD PTR [rax+0x30],xmm0
    1412:	0f 11 40 40          	movups XMMWORD PTR [rax+0x40],xmm0
    1416:	49 8b 14 24          	mov    rdx,QWORD PTR [r12]
    141a:	48 89 10             	mov    QWORD PTR [rax],rdx
    141d:	49 89 04 24          	mov    QWORD PTR [r12],rax
    1421:	48 89 58 08          	mov    QWORD PTR [rax+0x8],rbx
    1425:	e9 74 ff ff ff       	jmp    139e <incl__tSnfTXv7GxXoDyFDm9bvzqg+0x3e>
    142a:	66 0f 1f 44 00 00    	nop    WORD PTR [rax+rax*1+0x0]
    1430:	45 31 c9             	xor    r9d,r9d
    1433:	ba 03 00 00 00       	mov    edx,0x3
    1438:	31 ff                	xor    edi,edi
    143a:	41 b8 ff ff ff ff    	mov    r8d,0xffffffff
    1440:	b9 22 00 00 00       	mov    ecx,0x22
    1445:	be 00 10 00 00       	mov    esi,0x1000
    144a:	e8 21 f5 ff ff       	call   970 <mmap@plt>
    144f:	48 8d 50 ff          	lea    rdx,[rax-0x1]
    1453:	48 83 fa fd          	cmp    rdx,0xfffffffffffffffd
    1457:	76 0f                	jbe    1468 <incl__tSnfTXv7GxXoDyFDm9bvzqg+0x108>
    1459:	48 89 44 24 08       	mov    QWORD PTR [rsp+0x8],rax
    145e:	e8 9d fc ff ff       	call   1100 <raiseOutOfMem__mMRdr4sgmnykA9aWeM9aDZlw>
    1463:	48 8b 44 24 08       	mov    rax,QWORD PTR [rsp+0x8]
    1468:	49 89 85 78 28 00 00 	mov    QWORD PTR [r13+0x2878],rax
    146f:	49 81 85 80 28 00 00 	add    QWORD PTR [r13+0x2880],0x1000
    1476:	00 10 00 00 
    147a:	48 c7 00 e8 0f 00 00 	mov    QWORD PTR [rax],0xfe8
    1481:	49 8b 85 78 28 00 00 	mov    rax,QWORD PTR [r13+0x2878]
    1488:	48 c7 40 08 18 00 00 	mov    QWORD PTR [rax+0x8],0x18
    148f:	00 
    1490:	49 8b 85 78 28 00 00 	mov    rax,QWORD PTR [r13+0x2878]
    1497:	4c 89 70 10          	mov    QWORD PTR [rax+0x10],r14
    149b:	4d 8b b5 78 28 00 00 	mov    r14,QWORD PTR [r13+0x2878]
    14a2:	49 8b 16             	mov    rdx,QWORD PTR [r14]
    14a5:	e9 3b ff ff ff       	jmp    13e5 <incl__tSnfTXv7GxXoDyFDm9bvzqg+0x85>
    14aa:	66 0f 1f 44 00 00    	nop    WORD PTR [rax+rax*1+0x0]

00000000000014b0 <splitChunk2__gSNzk4aToVCSTE1opfEv2A>:
    14b0:	41 57                	push   r15
    14b2:	41 56                	push   r14
    14b4:	41 55                	push   r13
    14b6:	41 54                	push   r12
    14b8:	55                   	push   rbp
    14b9:	53                   	push   rbx
    14ba:	48 8d 2c 32          	lea    rbp,[rdx+rsi*1]
    14be:	48 83 ec 18          	sub    rsp,0x18
    14c2:	4c 8b 46 08          	mov    r8,QWORD PTR [rsi+0x8]
    14c6:	48 c7 45 10 00 00 00 	mov    QWORD PTR [rbp+0x10],0x0
    14cd:	00 
    14ce:	48 c7 45 18 00 00 00 	mov    QWORD PTR [rbp+0x18],0x0
    14d5:	00 
    14d6:	48 89 55 00          	mov    QWORD PTR [rbp+0x0],rdx
    14da:	49 29 d0             	sub    r8,rdx
    14dd:	4c 89 45 08          	mov    QWORD PTR [rbp+0x8],r8
    14e1:	4c 8b 4e 08          	mov    r9,QWORD PTR [rsi+0x8]
    14e5:	49 01 f1             	add    r9,rsi
    14e8:	4c 89 c9             	mov    rcx,r9
    14eb:	48 c1 f9 15          	sar    rcx,0x15
    14ef:	0f b6 c1             	movzx  eax,cl
    14f2:	48 8b 84 c7 a8 28 00 	mov    rax,QWORD PTR [rdi+rax*8+0x28a8]
    14f9:	00 
    14fa:	48 85 c0             	test   rax,rax
    14fd:	75 11                	jne    1510 <splitChunk2__gSNzk4aToVCSTE1opfEv2A+0x60>
    14ff:	eb 40                	jmp    1541 <splitChunk2__gSNzk4aToVCSTE1opfEv2A+0x91>
    1501:	0f 1f 80 00 00 00 00 	nop    DWORD PTR [rax+0x0]
    1508:	48 8b 00             	mov    rax,QWORD PTR [rax]
    150b:	48 85 c0             	test   rax,rax
    150e:	74 31                	je     1541 <splitChunk2__gSNzk4aToVCSTE1opfEv2A+0x91>
    1510:	48 3b 48 08          	cmp    rcx,QWORD PTR [rax+0x8]
    1514:	75 f2                	jne    1508 <splitChunk2__gSNzk4aToVCSTE1opfEv2A+0x58>
    1516:	4c 89 c9             	mov    rcx,r9
    1519:	48 c1 f9 0c          	sar    rcx,0xc
    151d:	81 e1 ff 01 00 00    	and    ecx,0x1ff
    1523:	49 89 ca             	mov    r10,rcx
    1526:	49 c1 fa 06          	sar    r10,0x6
    152a:	4a 8b 44 d0 10       	mov    rax,QWORD PTR [rax+r10*8+0x10]
    152f:	48 0f a3 c8          	bt     rax,rcx
    1533:	73 0c                	jae    1541 <splitChunk2__gSNzk4aToVCSTE1opfEv2A+0x91>
    1535:	49 8b 01             	mov    rax,QWORD PTR [r9]
    1538:	83 e0 01             	and    eax,0x1
    153b:	49 09 c0             	or     r8,rax
    153e:	4d 89 01             	mov    QWORD PTR [r9],r8
    1541:	48 89 eb             	mov    rbx,rbp
    1544:	48 89 56 08          	mov    QWORD PTR [rsi+0x8],rdx
    1548:	49 89 ec             	mov    r12,rbp
    154b:	48 c1 fb 15          	sar    rbx,0x15
    154f:	49 c1 fc 0c          	sar    r12,0xc
    1553:	0f b6 c3             	movzx  eax,bl
    1556:	4c 8d 2c c7          	lea    r13,[rdi+rax*8]
    155a:	49 8b 85 a8 28 00 00 	mov    rax,QWORD PTR [r13+0x28a8]
    1561:	48 85 c0             	test   rax,rax
    1564:	75 12                	jne    1578 <splitChunk2__gSNzk4aToVCSTE1opfEv2A+0xc8>
    1566:	eb 48                	jmp    15b0 <splitChunk2__gSNzk4aToVCSTE1opfEv2A+0x100>
    1568:	0f 1f 84 00 00 00 00 	nop    DWORD PTR [rax+rax*1+0x0]
    156f:	00 
    1570:	48 8b 00             	mov    rax,QWORD PTR [rax]
    1573:	48 85 c0             	test   rax,rax
    1576:	74 38                	je     15b0 <splitChunk2__gSNzk4aToVCSTE1opfEv2A+0x100>
    1578:	48 3b 58 08          	cmp    rbx,QWORD PTR [rax+0x8]
    157c:	75 f2                	jne    1570 <splitChunk2__gSNzk4aToVCSTE1opfEv2A+0xc0>
    157e:	4c 89 e1             	mov    rcx,r12
    1581:	ba 01 00 00 00       	mov    edx,0x1
    1586:	81 e1 ff 01 00 00    	and    ecx,0x1ff
    158c:	48 89 ce             	mov    rsi,rcx
    158f:	48 d3 e2             	shl    rdx,cl
    1592:	48 c1 fe 06          	sar    rsi,0x6
    1596:	48 09 54 f0 10       	or     QWORD PTR [rax+rsi*8+0x10],rdx
    159b:	48 83 c4 18          	add    rsp,0x18
    159f:	48 89 e8             	mov    rax,rbp
    15a2:	5b                   	pop    rbx
    15a3:	5d                   	pop    rbp
    15a4:	41 5c                	pop    r12
    15a6:	41 5d                	pop    r13
    15a8:	41 5e                	pop    r14
    15aa:	41 5f                	pop    r15
    15ac:	c3                   	ret    
    15ad:	0f 1f 00             	nop    DWORD PTR [rax]
    15b0:	4c 8b b7 78 28 00 00 	mov    r14,QWORD PTR [rdi+0x2878]
    15b7:	49 89 ff             	mov    r15,rdi
    15ba:	4d 85 f6             	test   r14,r14
    15bd:	74 59                	je     1618 <splitChunk2__gSNzk4aToVCSTE1opfEv2A+0x168>
    15bf:	49 8b 16             	mov    rdx,QWORD PTR [r14]
    15c2:	48 83 fa 4f          	cmp    rdx,0x4f
    15c6:	7e 50                	jle    1618 <splitChunk2__gSNzk4aToVCSTE1opfEv2A+0x168>
    15c8:	48 83 ea 50          	sub    rdx,0x50
    15cc:	49 8b 46 08          	mov    rax,QWORD PTR [r14+0x8]
    15d0:	49 89 16             	mov    QWORD PTR [r14],rdx
    15d3:	49 8b 97 78 28 00 00 	mov    rdx,QWORD PTR [r15+0x2878]
    15da:	66 0f ef c0          	pxor   xmm0,xmm0
    15de:	4c 01 f0             	add    rax,r14
    15e1:	48 83 42 08 50       	add    QWORD PTR [rdx+0x8],0x50
    15e6:	0f 11 00             	movups XMMWORD PTR [rax],xmm0
    15e9:	0f 11 40 10          	movups XMMWORD PTR [rax+0x10],xmm0
    15ed:	0f 11 40 20          	movups XMMWORD PTR [rax+0x20],xmm0
    15f1:	0f 11 40 30          	movups XMMWORD PTR [rax+0x30],xmm0
    15f5:	0f 11 40 40          	movups XMMWORD PTR [rax+0x40],xmm0
    15f9:	49 8b 95 a8 28 00 00 	mov    rdx,QWORD PTR [r13+0x28a8]
    1600:	48 89 10             	mov    QWORD PTR [rax],rdx
    1603:	49 89 85 a8 28 00 00 	mov    QWORD PTR [r13+0x28a8],rax
    160a:	48 89 58 08          	mov    QWORD PTR [rax+0x8],rbx
    160e:	e9 6b ff ff ff       	jmp    157e <splitChunk2__gSNzk4aToVCSTE1opfEv2A+0xce>
    1613:	0f 1f 44 00 00       	nop    DWORD PTR [rax+rax*1+0x0]
    1618:	45 31 c9             	xor    r9d,r9d
    161b:	ba 03 00 00 00       	mov    edx,0x3
    1620:	31 ff                	xor    edi,edi
    1622:	41 b8 ff ff ff ff    	mov    r8d,0xffffffff
    1628:	b9 22 00 00 00       	mov    ecx,0x22
    162d:	be 00 10 00 00       	mov    esi,0x1000
    1632:	e8 39 f3 ff ff       	call   970 <mmap@plt>
    1637:	48 8d 50 ff          	lea    rdx,[rax-0x1]
    163b:	48 83 fa fd          	cmp    rdx,0xfffffffffffffffd
    163f:	76 0f                	jbe    1650 <splitChunk2__gSNzk4aToVCSTE1opfEv2A+0x1a0>
    1641:	48 89 44 24 08       	mov    QWORD PTR [rsp+0x8],rax
    1646:	e8 b5 fa ff ff       	call   1100 <raiseOutOfMem__mMRdr4sgmnykA9aWeM9aDZlw>
    164b:	48 8b 44 24 08       	mov    rax,QWORD PTR [rsp+0x8]
    1650:	49 89 87 78 28 00 00 	mov    QWORD PTR [r15+0x2878],rax
    1657:	49 81 87 80 28 00 00 	add    QWORD PTR [r15+0x2880],0x1000
    165e:	00 10 00 00 
    1662:	48 c7 00 e8 0f 00 00 	mov    QWORD PTR [rax],0xfe8
    1669:	49 8b 87 78 28 00 00 	mov    rax,QWORD PTR [r15+0x2878]
    1670:	48 c7 40 08 18 00 00 	mov    QWORD PTR [rax+0x8],0x18
    1677:	00 
    1678:	49 8b 87 78 28 00 00 	mov    rax,QWORD PTR [r15+0x2878]
    167f:	4c 89 70 10          	mov    QWORD PTR [rax+0x10],r14
    1683:	4d 8b b7 78 28 00 00 	mov    r14,QWORD PTR [r15+0x2878]
    168a:	49 8b 16             	mov    rdx,QWORD PTR [r14]
    168d:	e9 36 ff ff ff       	jmp    15c8 <splitChunk2__gSNzk4aToVCSTE1opfEv2A+0x118>
    1692:	0f 1f 40 00          	nop    DWORD PTR [rax+0x0]
    1696:	66 2e 0f 1f 84 00 00 	nop    WORD PTR cs:[rax+rax*1+0x0]
    169d:	00 00 00 

00000000000016a0 <addChunkToMatrix__YSJZJgeU5UU2aa8GNvs3WA_2>:
    16a0:	48 8b 46 08          	mov    rax,QWORD PTR [rsi+0x8]
    16a4:	3d ff ff 00 00       	cmp    eax,0xffff
    16a9:	89 c1                	mov    ecx,eax
    16ab:	0f 87 8f 00 00 00    	ja     1740 <addChunkToMatrix__YSJZJgeU5UU2aa8GNvs3WA_2+0xa0>
    16b1:	31 d2                	xor    edx,edx
    16b3:	3d ff 00 00 00       	cmp    eax,0xff
    16b8:	0f 87 b2 00 00 00    	ja     1770 <addChunkToMatrix__YSJZJgeU5UU2aa8GNvs3WA_2+0xd0>
    16be:	4c 8d 05 3b df 00 00 	lea    r8,[rip+0xdf3b]        # f600 <fsLookupTable__Gn52IZvqY4slyBTOYwGNRQ>
    16c5:	48 c7 46 18 00 00 00 	mov    QWORD PTR [rsi+0x18],0x0
    16cc:	00 
    16cd:	49 0f be 0c 08       	movsx  rcx,BYTE PTR [r8+rcx*1]
    16d2:	48 01 ca             	add    rdx,rcx
    16d5:	8d 4a fb             	lea    ecx,[rdx-0x5]
    16d8:	4c 8d 42 fa          	lea    r8,[rdx-0x6]
    16dc:	48 d3 f8             	sar    rax,cl
    16df:	48 8d 48 e0          	lea    rcx,[rax-0x20]
    16e3:	4c 89 c0             	mov    rax,r8
    16e6:	48 c1 e0 05          	shl    rax,0x5
    16ea:	48 01 c8             	add    rax,rcx
    16ed:	48 8d 04 c7          	lea    rax,[rdi+rax*8]
    16f1:	4c 8b 88 78 10 00 00 	mov    r9,QWORD PTR [rax+0x1078]
    16f8:	4c 89 4e 10          	mov    QWORD PTR [rsi+0x10],r9
    16fc:	4c 8b 88 78 10 00 00 	mov    r9,QWORD PTR [rax+0x1078]
    1703:	4d 85 c9             	test   r9,r9
    1706:	74 04                	je     170c <addChunkToMatrix__YSJZJgeU5UU2aa8GNvs3WA_2+0x6c>
    1708:	49 89 71 18          	mov    QWORD PTR [r9+0x18],rsi
    170c:	48 89 b0 78 10 00 00 	mov    QWORD PTR [rax+0x1078],rsi
    1713:	b8 01 00 00 00       	mov    eax,0x1
    1718:	83 e1 1f             	and    ecx,0x1f
    171b:	48 89 c6             	mov    rsi,rax
    171e:	48 d3 e6             	shl    rsi,cl
    1721:	44 89 c1             	mov    ecx,r8d
    1724:	09 b4 97 fc 0f 00 00 	or     DWORD PTR [rdi+rdx*4+0xffc],esi
    172b:	83 e1 1f             	and    ecx,0x1f
    172e:	48 d3 e0             	shl    rax,cl
    1731:	09 87 10 10 00 00    	or     DWORD PTR [rdi+0x1010],eax
    1737:	c3                   	ret    
    1738:	0f 1f 84 00 00 00 00 	nop    DWORD PTR [rax+rax*1+0x0]
    173f:	00 
    1740:	3d ff ff ff 00       	cmp    eax,0xffffff
    1745:	89 c1                	mov    ecx,eax
    1747:	76 17                	jbe    1760 <addChunkToMatrix__YSJZJgeU5UU2aa8GNvs3WA_2+0xc0>
    1749:	c1 e9 18             	shr    ecx,0x18
    174c:	ba 18 00 00 00       	mov    edx,0x18
    1751:	e9 68 ff ff ff       	jmp    16be <addChunkToMatrix__YSJZJgeU5UU2aa8GNvs3WA_2+0x1e>
    1756:	66 2e 0f 1f 84 00 00 	nop    WORD PTR cs:[rax+rax*1+0x0]
    175d:	00 00 00 
    1760:	c1 e9 10             	shr    ecx,0x10
    1763:	ba 10 00 00 00       	mov    edx,0x10
    1768:	e9 51 ff ff ff       	jmp    16be <addChunkToMatrix__YSJZJgeU5UU2aa8GNvs3WA_2+0x1e>
    176d:	0f 1f 00             	nop    DWORD PTR [rax]
    1770:	c1 e9 08             	shr    ecx,0x8
    1773:	ba 08 00 00 00       	mov    edx,0x8
    1778:	e9 41 ff ff ff       	jmp    16be <addChunkToMatrix__YSJZJgeU5UU2aa8GNvs3WA_2+0x1e>
    177d:	0f 1f 00             	nop    DWORD PTR [rax]

0000000000001780 <freeBigChunk__IPvsryqksLyNxxag3IQr2g>:
    1780:	41 55                	push   r13
    1782:	41 54                	push   r12
    1784:	55                   	push   rbp
    1785:	53                   	push   rbx
    1786:	48 89 f5             	mov    rbp,rsi
    1789:	48 89 fb             	mov    rbx,rdi
    178c:	48 83 ec 08          	sub    rsp,0x8
    1790:	48 8b 46 08          	mov    rax,QWORD PTR [rsi+0x8]
    1794:	48 01 87 90 28 00 00 	add    QWORD PTR [rdi+0x2890],rax
    179b:	48 8b 06             	mov    rax,QWORD PTR [rsi]
    179e:	48 89 f7             	mov    rdi,rsi
    17a1:	48 83 e0 fe          	and    rax,0xfffffffffffffffe
    17a5:	48 85 c0             	test   rax,rax
    17a8:	48 89 06             	mov    QWORD PTR [rsi],rax
    17ab:	0f 85 e7 02 00 00    	jne    1a98 <freeBigChunk__IPvsryqksLyNxxag3IQr2g+0x318>
    17b1:	48 8b 55 08          	mov    rdx,QWORD PTR [rbp+0x8]
    17b5:	4c 8d 25 44 de 00 00 	lea    r12,[rip+0xde44]        # f600 <fsLookupTable__Gn52IZvqY4slyBTOYwGNRQ>
    17bc:	48 01 d7             	add    rdi,rdx
    17bf:	48 89 fe             	mov    rsi,rdi
    17c2:	48 c1 fe 15          	sar    rsi,0x15
    17c6:	40 0f b6 c6          	movzx  eax,sil
    17ca:	4c 8d 0c c3          	lea    r9,[rbx+rax*8]
    17ce:	49 8b 81 a8 28 00 00 	mov    rax,QWORD PTR [r9+0x28a8]
    17d5:	48 85 c0             	test   rax,rax
    17d8:	74 20                	je     17fa <freeBigChunk__IPvsryqksLyNxxag3IQr2g+0x7a>
    17da:	48 39 70 08          	cmp    QWORD PTR [rax+0x8],rsi
    17de:	75 12                	jne    17f2 <freeBigChunk__IPvsryqksLyNxxag3IQr2g+0x72>
    17e0:	e9 b3 00 00 00       	jmp    1898 <freeBigChunk__IPvsryqksLyNxxag3IQr2g+0x118>
    17e5:	0f 1f 00             	nop    DWORD PTR [rax]
    17e8:	48 3b 70 08          	cmp    rsi,QWORD PTR [rax+0x8]
    17ec:	0f 84 a6 00 00 00    	je     1898 <freeBigChunk__IPvsryqksLyNxxag3IQr2g+0x118>
    17f2:	48 8b 00             	mov    rax,QWORD PTR [rax]
    17f5:	48 85 c0             	test   rax,rax
    17f8:	75 ee                	jne    17e8 <freeBigChunk__IPvsryqksLyNxxag3IQr2g+0x68>
    17fa:	81 fa ff ff 00 00    	cmp    edx,0xffff
    1800:	89 d1                	mov    ecx,edx
    1802:	0f 87 58 02 00 00    	ja     1a60 <freeBigChunk__IPvsryqksLyNxxag3IQr2g+0x2e0>
    1808:	31 c0                	xor    eax,eax
    180a:	81 fa ff 00 00 00    	cmp    edx,0xff
    1810:	0f 87 62 02 00 00    	ja     1a78 <freeBigChunk__IPvsryqksLyNxxag3IQr2g+0x2f8>
    1816:	49 0f be 0c 0c       	movsx  rcx,BYTE PTR [r12+rcx*1]
    181b:	48 c7 45 18 00 00 00 	mov    QWORD PTR [rbp+0x18],0x0
    1822:	00 
    1823:	48 01 c8             	add    rax,rcx
    1826:	8d 48 fb             	lea    ecx,[rax-0x5]
    1829:	48 8d 70 fa          	lea    rsi,[rax-0x6]
    182d:	48 d3 fa             	sar    rdx,cl
    1830:	48 8d 4a e0          	lea    rcx,[rdx-0x20]
    1834:	48 89 f2             	mov    rdx,rsi
    1837:	48 c1 e2 05          	shl    rdx,0x5
    183b:	48 01 ca             	add    rdx,rcx
    183e:	48 8d 14 d3          	lea    rdx,[rbx+rdx*8]
    1842:	48 8b ba 78 10 00 00 	mov    rdi,QWORD PTR [rdx+0x1078]
    1849:	48 89 7d 10          	mov    QWORD PTR [rbp+0x10],rdi
    184d:	48 8b ba 78 10 00 00 	mov    rdi,QWORD PTR [rdx+0x1078]
    1854:	48 85 ff             	test   rdi,rdi
    1857:	74 04                	je     185d <freeBigChunk__IPvsryqksLyNxxag3IQr2g+0xdd>
    1859:	48 89 6f 18          	mov    QWORD PTR [rdi+0x18],rbp
    185d:	48 89 aa 78 10 00 00 	mov    QWORD PTR [rdx+0x1078],rbp
    1864:	ba 01 00 00 00       	mov    edx,0x1
    1869:	83 e1 1f             	and    ecx,0x1f
    186c:	48 89 d7             	mov    rdi,rdx
    186f:	48 d3 e7             	shl    rdi,cl
    1872:	89 f1                	mov    ecx,esi
    1874:	09 bc 83 fc 0f 00 00 	or     DWORD PTR [rbx+rax*4+0xffc],edi
    187b:	83 e1 1f             	and    ecx,0x1f
    187e:	48 d3 e2             	shl    rdx,cl
    1881:	09 93 10 10 00 00    	or     DWORD PTR [rbx+0x1010],edx
    1887:	48 83 c4 08          	add    rsp,0x8
    188b:	5b                   	pop    rbx
    188c:	5d                   	pop    rbp
    188d:	41 5c                	pop    r12
    188f:	41 5d                	pop    r13
    1891:	c3                   	ret    
    1892:	66 0f 1f 44 00 00    	nop    WORD PTR [rax+rax*1+0x0]
    1898:	48 89 f9             	mov    rcx,rdi
    189b:	48 c1 f9 0c          	sar    rcx,0xc
    189f:	81 e1 ff 01 00 00    	and    ecx,0x1ff
    18a5:	49 89 ca             	mov    r10,rcx
    18a8:	41 89 c8             	mov    r8d,ecx
    18ab:	49 c1 fa 06          	sar    r10,0x6
    18af:	41 83 e0 3f          	and    r8d,0x3f
    18b3:	4a 8b 44 d0 10       	mov    rax,QWORD PTR [rax+r10*8+0x10]
    18b8:	4c 0f a3 c0          	bt     rax,r8
    18bc:	0f 83 38 ff ff ff    	jae    17fa <freeBigChunk__IPvsryqksLyNxxag3IQr2g+0x7a>
    18c2:	f6 07 01             	test   BYTE PTR [rdi],0x1
    18c5:	0f 85 2f ff ff ff    	jne    17fa <freeBigChunk__IPvsryqksLyNxxag3IQr2g+0x7a>
    18cb:	48 8b 47 08          	mov    rax,QWORD PTR [rdi+0x8]
    18cf:	48 3d c8 0f 00 00    	cmp    rax,0xfc8
    18d5:	0f 8e 1f ff ff ff    	jle    17fa <freeBigChunk__IPvsryqksLyNxxag3IQr2g+0x7a>
    18db:	48 81 fa ff ff ff 3e 	cmp    rdx,0x3effffff
    18e2:	0f 8f 12 ff ff ff    	jg     17fa <freeBigChunk__IPvsryqksLyNxxag3IQr2g+0x7a>
    18e8:	3d ff ff 00 00       	cmp    eax,0xffff
    18ed:	89 c1                	mov    ecx,eax
    18ef:	0f 87 fb 03 00 00    	ja     1cf0 <freeBigChunk__IPvsryqksLyNxxag3IQr2g+0x570>
    18f5:	31 d2                	xor    edx,edx
    18f7:	3d ff 00 00 00       	cmp    eax,0xff
    18fc:	76 08                	jbe    1906 <freeBigChunk__IPvsryqksLyNxxag3IQr2g+0x186>
    18fe:	c1 e9 08             	shr    ecx,0x8
    1901:	ba 08 00 00 00       	mov    edx,0x8
    1906:	49 0f be 0c 0c       	movsx  rcx,BYTE PTR [r12+rcx*1]
    190b:	4c 8b 6f 10          	mov    r13,QWORD PTR [rdi+0x10]
    190f:	48 01 ca             	add    rdx,rcx
    1912:	8d 4a fb             	lea    ecx,[rdx-0x5]
    1915:	4c 8d 5a fa          	lea    r11,[rdx-0x6]
    1919:	48 d3 f8             	sar    rax,cl
    191c:	4d 85 ed             	test   r13,r13
    191f:	48 8d 48 e0          	lea    rcx,[rax-0x20]
    1923:	48 8b 47 18          	mov    rax,QWORD PTR [rdi+0x18]
    1927:	74 08                	je     1931 <freeBigChunk__IPvsryqksLyNxxag3IQr2g+0x1b1>
    1929:	49 89 45 18          	mov    QWORD PTR [r13+0x18],rax
    192d:	48 8b 47 18          	mov    rax,QWORD PTR [rdi+0x18]
    1931:	48 85 c0             	test   rax,rax
    1934:	74 08                	je     193e <freeBigChunk__IPvsryqksLyNxxag3IQr2g+0x1be>
    1936:	4c 8b 6f 10          	mov    r13,QWORD PTR [rdi+0x10]
    193a:	4c 89 68 10          	mov    QWORD PTR [rax+0x10],r13
    193e:	4c 89 d8             	mov    rax,r11
    1941:	48 c1 e0 05          	shl    rax,0x5
    1945:	48 01 c8             	add    rax,rcx
    1948:	48 8d 04 c3          	lea    rax,[rbx+rax*8]
    194c:	48 3b b8 78 10 00 00 	cmp    rdi,QWORD PTR [rax+0x1078]
    1953:	0f 84 b7 03 00 00    	je     1d10 <freeBigChunk__IPvsryqksLyNxxag3IQr2g+0x590>
    1959:	48 c7 47 18 00 00 00 	mov    QWORD PTR [rdi+0x18],0x0
    1960:	00 
    1961:	48 c7 47 10 00 00 00 	mov    QWORD PTR [rdi+0x10],0x0
    1968:	00 
    1969:	48 8b 57 08          	mov    rdx,QWORD PTR [rdi+0x8]
    196d:	48 03 55 08          	add    rdx,QWORD PTR [rbp+0x8]
    1971:	48 89 55 08          	mov    QWORD PTR [rbp+0x8],rdx
    1975:	49 8b 81 a8 28 00 00 	mov    rax,QWORD PTR [r9+0x28a8]
    197c:	48 85 c0             	test   rax,rax
    197f:	74 21                	je     19a2 <freeBigChunk__IPvsryqksLyNxxag3IQr2g+0x222>
    1981:	48 39 70 08          	cmp    QWORD PTR [rax+0x8],rsi
    1985:	75 13                	jne    199a <freeBigChunk__IPvsryqksLyNxxag3IQr2g+0x21a>
    1987:	e9 44 03 00 00       	jmp    1cd0 <freeBigChunk__IPvsryqksLyNxxag3IQr2g+0x550>
    198c:	0f 1f 40 00          	nop    DWORD PTR [rax+0x0]
    1990:	48 3b 70 08          	cmp    rsi,QWORD PTR [rax+0x8]
    1994:	0f 84 36 03 00 00    	je     1cd0 <freeBigChunk__IPvsryqksLyNxxag3IQr2g+0x550>
    199a:	48 8b 00             	mov    rax,QWORD PTR [rax]
    199d:	48 85 c0             	test   rax,rax
    19a0:	75 ee                	jne    1990 <freeBigChunk__IPvsryqksLyNxxag3IQr2g+0x210>
    19a2:	48 81 fa 00 00 00 3f 	cmp    rdx,0x3f000000
    19a9:	0f 8e 4b fe ff ff    	jle    17fa <freeBigChunk__IPvsryqksLyNxxag3IQr2g+0x7a>
    19af:	ba 00 00 00 3f       	mov    edx,0x3f000000
    19b4:	48 89 ee             	mov    rsi,rbp
    19b7:	48 89 df             	mov    rdi,rbx
    19ba:	e8 f1 fa ff ff       	call   14b0 <splitChunk2__gSNzk4aToVCSTE1opfEv2A>
    19bf:	48 8b 50 08          	mov    rdx,QWORD PTR [rax+0x8]
    19c3:	81 fa ff ff 00 00    	cmp    edx,0xffff
    19c9:	89 d1                	mov    ecx,edx
    19cb:	0f 87 9a 03 00 00    	ja     1d6b <freeBigChunk__IPvsryqksLyNxxag3IQr2g+0x5eb>
    19d1:	31 f6                	xor    esi,esi
    19d3:	81 fa ff 00 00 00    	cmp    edx,0xff
    19d9:	76 08                	jbe    19e3 <freeBigChunk__IPvsryqksLyNxxag3IQr2g+0x263>
    19db:	c1 e9 08             	shr    ecx,0x8
    19de:	be 08 00 00 00       	mov    esi,0x8
    19e3:	49 0f be 0c 0c       	movsx  rcx,BYTE PTR [r12+rcx*1]
    19e8:	48 c7 40 18 00 00 00 	mov    QWORD PTR [rax+0x18],0x0
    19ef:	00 
    19f0:	48 01 ce             	add    rsi,rcx
    19f3:	8d 4e fb             	lea    ecx,[rsi-0x5]
    19f6:	48 d3 fa             	sar    rdx,cl
    19f9:	48 8d 4a e0          	lea    rcx,[rdx-0x20]
    19fd:	48 8d 56 fa          	lea    rdx,[rsi-0x6]
    1a01:	48 89 d7             	mov    rdi,rdx
    1a04:	48 c1 e7 05          	shl    rdi,0x5
    1a08:	48 01 cf             	add    rdi,rcx
    1a0b:	48 8d 3c fb          	lea    rdi,[rbx+rdi*8]
    1a0f:	4c 8b 87 78 10 00 00 	mov    r8,QWORD PTR [rdi+0x1078]
    1a16:	4c 89 40 10          	mov    QWORD PTR [rax+0x10],r8
    1a1a:	4c 8b 87 78 10 00 00 	mov    r8,QWORD PTR [rdi+0x1078]
    1a21:	4d 85 c0             	test   r8,r8
    1a24:	74 04                	je     1a2a <freeBigChunk__IPvsryqksLyNxxag3IQr2g+0x2aa>
    1a26:	49 89 40 18          	mov    QWORD PTR [r8+0x18],rax
    1a2a:	48 89 87 78 10 00 00 	mov    QWORD PTR [rdi+0x1078],rax
    1a31:	b8 01 00 00 00       	mov    eax,0x1
    1a36:	83 e1 1f             	and    ecx,0x1f
    1a39:	48 89 c7             	mov    rdi,rax
    1a3c:	48 d3 e7             	shl    rdi,cl
    1a3f:	89 d1                	mov    ecx,edx
    1a41:	09 bc b3 fc 0f 00 00 	or     DWORD PTR [rbx+rsi*4+0xffc],edi
    1a48:	83 e1 1f             	and    ecx,0x1f
    1a4b:	48 d3 e0             	shl    rax,cl
    1a4e:	09 83 10 10 00 00    	or     DWORD PTR [rbx+0x1010],eax
    1a54:	48 8b 55 08          	mov    rdx,QWORD PTR [rbp+0x8]
    1a58:	e9 9d fd ff ff       	jmp    17fa <freeBigChunk__IPvsryqksLyNxxag3IQr2g+0x7a>
    1a5d:	0f 1f 00             	nop    DWORD PTR [rax]
    1a60:	81 fa ff ff ff 00    	cmp    edx,0xffffff
    1a66:	76 20                	jbe    1a88 <freeBigChunk__IPvsryqksLyNxxag3IQr2g+0x308>
    1a68:	c1 e9 18             	shr    ecx,0x18
    1a6b:	b8 18 00 00 00       	mov    eax,0x18
    1a70:	e9 a1 fd ff ff       	jmp    1816 <freeBigChunk__IPvsryqksLyNxxag3IQr2g+0x96>
    1a75:	0f 1f 00             	nop    DWORD PTR [rax]
    1a78:	c1 e9 08             	shr    ecx,0x8
    1a7b:	b8 08 00 00 00       	mov    eax,0x8
    1a80:	e9 91 fd ff ff       	jmp    1816 <freeBigChunk__IPvsryqksLyNxxag3IQr2g+0x96>
    1a85:	0f 1f 00             	nop    DWORD PTR [rax]
    1a88:	c1 e9 10             	shr    ecx,0x10
    1a8b:	b8 10 00 00 00       	mov    eax,0x10
    1a90:	e9 81 fd ff ff       	jmp    1816 <freeBigChunk__IPvsryqksLyNxxag3IQr2g+0x96>
    1a95:	0f 1f 00             	nop    DWORD PTR [rax]
    1a98:	49 89 f5             	mov    r13,rsi
    1a9b:	49 29 c5             	sub    r13,rax
    1a9e:	4c 89 ea             	mov    rdx,r13
    1aa1:	48 c1 fa 15          	sar    rdx,0x15
    1aa5:	0f b6 c2             	movzx  eax,dl
    1aa8:	48 8b 84 c3 a8 28 00 	mov    rax,QWORD PTR [rbx+rax*8+0x28a8]
    1aaf:	00 
    1ab0:	48 85 c0             	test   rax,rax
    1ab3:	75 17                	jne    1acc <freeBigChunk__IPvsryqksLyNxxag3IQr2g+0x34c>
    1ab5:	e9 f7 fc ff ff       	jmp    17b1 <freeBigChunk__IPvsryqksLyNxxag3IQr2g+0x31>
    1aba:	66 0f 1f 44 00 00    	nop    WORD PTR [rax+rax*1+0x0]
    1ac0:	48 8b 00             	mov    rax,QWORD PTR [rax]
    1ac3:	48 85 c0             	test   rax,rax
    1ac6:	0f 84 e5 fc ff ff    	je     17b1 <freeBigChunk__IPvsryqksLyNxxag3IQr2g+0x31>
    1acc:	48 3b 50 08          	cmp    rdx,QWORD PTR [rax+0x8]
    1ad0:	75 ee                	jne    1ac0 <freeBigChunk__IPvsryqksLyNxxag3IQr2g+0x340>
    1ad2:	4c 89 ea             	mov    rdx,r13
    1ad5:	48 c1 fa 0c          	sar    rdx,0xc
    1ad9:	81 e2 ff 01 00 00    	and    edx,0x1ff
    1adf:	48 89 d1             	mov    rcx,rdx
    1ae2:	48 c1 f9 06          	sar    rcx,0x6
    1ae6:	48 8b 44 c8 10       	mov    rax,QWORD PTR [rax+rcx*8+0x10]
    1aeb:	48 0f a3 d0          	bt     rax,rdx
    1aef:	0f 83 bc fc ff ff    	jae    17b1 <freeBigChunk__IPvsryqksLyNxxag3IQr2g+0x31>
    1af5:	41 f6 45 00 01       	test   BYTE PTR [r13+0x0],0x1
    1afa:	0f 85 b1 fc ff ff    	jne    17b1 <freeBigChunk__IPvsryqksLyNxxag3IQr2g+0x31>
    1b00:	49 8b 45 08          	mov    rax,QWORD PTR [r13+0x8]
    1b04:	48 3d c8 0f 00 00    	cmp    rax,0xfc8
    1b0a:	0f 8e a1 fc ff ff    	jle    17b1 <freeBigChunk__IPvsryqksLyNxxag3IQr2g+0x31>
    1b10:	48 3d ff ff ff 3e    	cmp    rax,0x3effffff
    1b16:	0f 8f 95 fc ff ff    	jg     17b1 <freeBigChunk__IPvsryqksLyNxxag3IQr2g+0x31>
    1b1c:	3d ff ff 00 00       	cmp    eax,0xffff
    1b21:	89 c2                	mov    edx,eax
    1b23:	0f 87 59 02 00 00    	ja     1d82 <freeBigChunk__IPvsryqksLyNxxag3IQr2g+0x602>
    1b29:	31 c9                	xor    ecx,ecx
    1b2b:	3d ff 00 00 00       	cmp    eax,0xff
    1b30:	76 08                	jbe    1b3a <freeBigChunk__IPvsryqksLyNxxag3IQr2g+0x3ba>
    1b32:	c1 ea 08             	shr    edx,0x8
    1b35:	b9 08 00 00 00       	mov    ecx,0x8
    1b3a:	4c 8d 25 bf da 00 00 	lea    r12,[rip+0xdabf]        # f600 <fsLookupTable__Gn52IZvqY4slyBTOYwGNRQ>
    1b41:	49 8b 75 10          	mov    rsi,QWORD PTR [r13+0x10]
    1b45:	49 0f be 14 14       	movsx  rdx,BYTE PTR [r12+rdx*1]
    1b4a:	48 01 ca             	add    rdx,rcx
    1b4d:	8d 4a fb             	lea    ecx,[rdx-0x5]
    1b50:	48 8d 7a fa          	lea    rdi,[rdx-0x6]
    1b54:	48 d3 f8             	sar    rax,cl
    1b57:	49 8b 4d 18          	mov    rcx,QWORD PTR [r13+0x18]
    1b5b:	48 83 e8 20          	sub    rax,0x20
    1b5f:	48 85 f6             	test   rsi,rsi
    1b62:	74 08                	je     1b6c <freeBigChunk__IPvsryqksLyNxxag3IQr2g+0x3ec>
    1b64:	48 89 4e 18          	mov    QWORD PTR [rsi+0x18],rcx
    1b68:	49 8b 4d 18          	mov    rcx,QWORD PTR [r13+0x18]
    1b6c:	48 85 c9             	test   rcx,rcx
    1b6f:	74 08                	je     1b79 <freeBigChunk__IPvsryqksLyNxxag3IQr2g+0x3f9>
    1b71:	49 8b 75 10          	mov    rsi,QWORD PTR [r13+0x10]
    1b75:	48 89 71 10          	mov    QWORD PTR [rcx+0x10],rsi
    1b79:	48 89 f9             	mov    rcx,rdi
    1b7c:	48 c1 e1 05          	shl    rcx,0x5
    1b80:	48 01 c1             	add    rcx,rax
    1b83:	48 8d 0c cb          	lea    rcx,[rbx+rcx*8]
    1b87:	4c 3b a9 78 10 00 00 	cmp    r13,QWORD PTR [rcx+0x1078]
    1b8e:	0f 84 11 02 00 00    	je     1da5 <freeBigChunk__IPvsryqksLyNxxag3IQr2g+0x625>
    1b94:	49 c7 45 18 00 00 00 	mov    QWORD PTR [r13+0x18],0x0
    1b9b:	00 
    1b9c:	49 c7 45 10 00 00 00 	mov    QWORD PTR [r13+0x10],0x0
    1ba3:	00 
    1ba4:	48 89 e9             	mov    rcx,rbp
    1ba7:	48 8b 55 08          	mov    rdx,QWORD PTR [rbp+0x8]
    1bab:	49 03 55 08          	add    rdx,QWORD PTR [r13+0x8]
    1baf:	48 c1 f9 15          	sar    rcx,0x15
    1bb3:	0f b6 c1             	movzx  eax,cl
    1bb6:	49 89 55 08          	mov    QWORD PTR [r13+0x8],rdx
    1bba:	48 8b 84 c3 a8 28 00 	mov    rax,QWORD PTR [rbx+rax*8+0x28a8]
    1bc1:	00 
    1bc2:	48 85 c0             	test   rax,rax
    1bc5:	75 11                	jne    1bd8 <freeBigChunk__IPvsryqksLyNxxag3IQr2g+0x458>
    1bc7:	eb 3d                	jmp    1c06 <freeBigChunk__IPvsryqksLyNxxag3IQr2g+0x486>
    1bc9:	0f 1f 80 00 00 00 00 	nop    DWORD PTR [rax+0x0]
    1bd0:	48 8b 00             	mov    rax,QWORD PTR [rax]
    1bd3:	48 85 c0             	test   rax,rax
    1bd6:	74 2e                	je     1c06 <freeBigChunk__IPvsryqksLyNxxag3IQr2g+0x486>
    1bd8:	48 3b 48 08          	cmp    rcx,QWORD PTR [rax+0x8]
    1bdc:	75 f2                	jne    1bd0 <freeBigChunk__IPvsryqksLyNxxag3IQr2g+0x450>
    1bde:	48 89 e9             	mov    rcx,rbp
    1be1:	ba 01 00 00 00       	mov    edx,0x1
    1be6:	48 c1 f9 0c          	sar    rcx,0xc
    1bea:	81 e1 ff 01 00 00    	and    ecx,0x1ff
    1bf0:	48 89 ce             	mov    rsi,rcx
    1bf3:	48 d3 e2             	shl    rdx,cl
    1bf6:	48 c1 fe 06          	sar    rsi,0x6
    1bfa:	48 f7 d2             	not    rdx
    1bfd:	48 21 54 f0 10       	and    QWORD PTR [rax+rsi*8+0x10],rdx
    1c02:	49 8b 55 08          	mov    rdx,QWORD PTR [r13+0x8]
    1c06:	48 81 fa 00 00 00 3f 	cmp    rdx,0x3f000000
    1c0d:	4c 89 ef             	mov    rdi,r13
    1c10:	4c 89 ed             	mov    rbp,r13
    1c13:	0f 8e a3 fb ff ff    	jle    17bc <freeBigChunk__IPvsryqksLyNxxag3IQr2g+0x3c>
    1c19:	ba 00 00 00 3f       	mov    edx,0x3f000000
    1c1e:	4c 89 ee             	mov    rsi,r13
    1c21:	48 89 df             	mov    rdi,rbx
    1c24:	e8 87 f8 ff ff       	call   14b0 <splitChunk2__gSNzk4aToVCSTE1opfEv2A>
    1c29:	48 89 c5             	mov    rbp,rax
    1c2c:	49 8b 45 08          	mov    rax,QWORD PTR [r13+0x8]
    1c30:	3d ff ff 00 00       	cmp    eax,0xffff
    1c35:	89 c2                	mov    edx,eax
    1c37:	0f 87 c6 01 00 00    	ja     1e03 <freeBigChunk__IPvsryqksLyNxxag3IQr2g+0x683>
    1c3d:	31 c9                	xor    ecx,ecx
    1c3f:	3d ff 00 00 00       	cmp    eax,0xff
    1c44:	76 08                	jbe    1c4e <freeBigChunk__IPvsryqksLyNxxag3IQr2g+0x4ce>
    1c46:	c1 ea 08             	shr    edx,0x8
    1c49:	b9 08 00 00 00       	mov    ecx,0x8
    1c4e:	49 0f be 14 14       	movsx  rdx,BYTE PTR [r12+rdx*1]
    1c53:	49 c7 45 18 00 00 00 	mov    QWORD PTR [r13+0x18],0x0
    1c5a:	00 
    1c5b:	48 01 ca             	add    rdx,rcx
    1c5e:	8d 4a fb             	lea    ecx,[rdx-0x5]
    1c61:	48 8d 72 fa          	lea    rsi,[rdx-0x6]
    1c65:	48 d3 f8             	sar    rax,cl
    1c68:	48 8d 48 e0          	lea    rcx,[rax-0x20]
    1c6c:	48 89 f0             	mov    rax,rsi
    1c6f:	48 c1 e0 05          	shl    rax,0x5
    1c73:	48 01 c8             	add    rax,rcx
    1c76:	48 8d 04 c3          	lea    rax,[rbx+rax*8]
    1c7a:	48 8b b8 78 10 00 00 	mov    rdi,QWORD PTR [rax+0x1078]
    1c81:	49 89 7d 10          	mov    QWORD PTR [r13+0x10],rdi
    1c85:	48 8b b8 78 10 00 00 	mov    rdi,QWORD PTR [rax+0x1078]
    1c8c:	48 85 ff             	test   rdi,rdi
    1c8f:	74 04                	je     1c95 <freeBigChunk__IPvsryqksLyNxxag3IQr2g+0x515>
    1c91:	4c 89 6f 18          	mov    QWORD PTR [rdi+0x18],r13
    1c95:	4c 89 a8 78 10 00 00 	mov    QWORD PTR [rax+0x1078],r13
    1c9c:	b8 01 00 00 00       	mov    eax,0x1
    1ca1:	83 e1 1f             	and    ecx,0x1f
    1ca4:	48 89 c7             	mov    rdi,rax
    1ca7:	48 d3 e7             	shl    rdi,cl
    1caa:	89 f1                	mov    ecx,esi
    1cac:	09 bc 93 fc 0f 00 00 	or     DWORD PTR [rbx+rdx*4+0xffc],edi
    1cb3:	83 e1 1f             	and    ecx,0x1f
    1cb6:	48 89 ef             	mov    rdi,rbp
    1cb9:	48 d3 e0             	shl    rax,cl
    1cbc:	09 83 10 10 00 00    	or     DWORD PTR [rbx+0x1010],eax
    1cc2:	48 8b 55 08          	mov    rdx,QWORD PTR [rbp+0x8]
    1cc6:	e9 f1 fa ff ff       	jmp    17bc <freeBigChunk__IPvsryqksLyNxxag3IQr2g+0x3c>
    1ccb:	0f 1f 44 00 00       	nop    DWORD PTR [rax+rax*1+0x0]
    1cd0:	48 c7 c2 fe ff ff ff 	mov    rdx,0xfffffffffffffffe
    1cd7:	44 89 c1             	mov    ecx,r8d
    1cda:	48 d3 c2             	rol    rdx,cl
    1cdd:	4a 21 54 d0 10       	and    QWORD PTR [rax+r10*8+0x10],rdx
    1ce2:	48 8b 55 08          	mov    rdx,QWORD PTR [rbp+0x8]
    1ce6:	e9 b7 fc ff ff       	jmp    19a2 <freeBigChunk__IPvsryqksLyNxxag3IQr2g+0x222>
    1ceb:	0f 1f 44 00 00       	nop    DWORD PTR [rax+rax*1+0x0]
    1cf0:	3d ff ff ff 00       	cmp    eax,0xffffff
    1cf5:	89 c1                	mov    ecx,eax
    1cf7:	76 65                	jbe    1d5e <freeBigChunk__IPvsryqksLyNxxag3IQr2g+0x5de>
    1cf9:	c1 e9 18             	shr    ecx,0x18
    1cfc:	ba 18 00 00 00       	mov    edx,0x18
    1d01:	e9 00 fc ff ff       	jmp    1906 <freeBigChunk__IPvsryqksLyNxxag3IQr2g+0x186>
    1d06:	66 2e 0f 1f 84 00 00 	nop    WORD PTR cs:[rax+rax*1+0x0]
    1d0d:	00 00 00 
    1d10:	4c 8b 6f 10          	mov    r13,QWORD PTR [rdi+0x10]
    1d14:	4d 85 ed             	test   r13,r13
    1d17:	4c 89 a8 78 10 00 00 	mov    QWORD PTR [rax+0x1078],r13
    1d1e:	0f 85 35 fc ff ff    	jne    1959 <freeBigChunk__IPvsryqksLyNxxag3IQr2g+0x1d9>
    1d24:	4c 8d 2c 93          	lea    r13,[rbx+rdx*4]
    1d28:	ba 01 00 00 00       	mov    edx,0x1
    1d2d:	83 e1 1f             	and    ecx,0x1f
    1d30:	48 89 d0             	mov    rax,rdx
    1d33:	48 d3 e0             	shl    rax,cl
    1d36:	f7 d0                	not    eax
    1d38:	41 21 85 fc 0f 00 00 	and    DWORD PTR [r13+0xffc],eax
    1d3f:	0f 85 14 fc ff ff    	jne    1959 <freeBigChunk__IPvsryqksLyNxxag3IQr2g+0x1d9>
    1d45:	44 89 d9             	mov    ecx,r11d
    1d48:	48 89 d0             	mov    rax,rdx
    1d4b:	83 e1 1f             	and    ecx,0x1f
    1d4e:	48 d3 e0             	shl    rax,cl
    1d51:	f7 d0                	not    eax
    1d53:	21 83 10 10 00 00    	and    DWORD PTR [rbx+0x1010],eax
    1d59:	e9 fb fb ff ff       	jmp    1959 <freeBigChunk__IPvsryqksLyNxxag3IQr2g+0x1d9>
    1d5e:	c1 e9 10             	shr    ecx,0x10
    1d61:	ba 10 00 00 00       	mov    edx,0x10
    1d66:	e9 9b fb ff ff       	jmp    1906 <freeBigChunk__IPvsryqksLyNxxag3IQr2g+0x186>
    1d6b:	81 fa ff ff ff 00    	cmp    edx,0xffffff
    1d71:	89 d1                	mov    ecx,edx
    1d73:	76 23                	jbe    1d98 <freeBigChunk__IPvsryqksLyNxxag3IQr2g+0x618>
    1d75:	c1 e9 18             	shr    ecx,0x18
    1d78:	be 18 00 00 00       	mov    esi,0x18
    1d7d:	e9 61 fc ff ff       	jmp    19e3 <freeBigChunk__IPvsryqksLyNxxag3IQr2g+0x263>
    1d82:	3d ff ff ff 00       	cmp    eax,0xffffff
    1d87:	89 c2                	mov    edx,eax
    1d89:	76 6b                	jbe    1df6 <freeBigChunk__IPvsryqksLyNxxag3IQr2g+0x676>
    1d8b:	c1 ea 18             	shr    edx,0x18
    1d8e:	b9 18 00 00 00       	mov    ecx,0x18
    1d93:	e9 a2 fd ff ff       	jmp    1b3a <freeBigChunk__IPvsryqksLyNxxag3IQr2g+0x3ba>
    1d98:	c1 e9 10             	shr    ecx,0x10
    1d9b:	be 10 00 00 00       	mov    esi,0x10
    1da0:	e9 3e fc ff ff       	jmp    19e3 <freeBigChunk__IPvsryqksLyNxxag3IQr2g+0x263>
    1da5:	49 8b 75 10          	mov    rsi,QWORD PTR [r13+0x10]
    1da9:	48 85 f6             	test   rsi,rsi
    1dac:	48 89 b1 78 10 00 00 	mov    QWORD PTR [rcx+0x1078],rsi
    1db3:	0f 85 db fd ff ff    	jne    1b94 <freeBigChunk__IPvsryqksLyNxxag3IQr2g+0x414>
    1db9:	83 e0 1f             	and    eax,0x1f
    1dbc:	48 8d 34 93          	lea    rsi,[rbx+rdx*4]
    1dc0:	ba 01 00 00 00       	mov    edx,0x1
    1dc5:	89 c1                	mov    ecx,eax
    1dc7:	49 89 d3             	mov    r11,rdx
    1dca:	49 d3 e3             	shl    r11,cl
    1dcd:	4c 89 d8             	mov    rax,r11
    1dd0:	f7 d0                	not    eax
    1dd2:	21 86 fc 0f 00 00    	and    DWORD PTR [rsi+0xffc],eax
    1dd8:	0f 85 b6 fd ff ff    	jne    1b94 <freeBigChunk__IPvsryqksLyNxxag3IQr2g+0x414>
    1dde:	89 f9                	mov    ecx,edi
    1de0:	48 89 d0             	mov    rax,rdx
    1de3:	83 e1 1f             	and    ecx,0x1f
    1de6:	48 d3 e0             	shl    rax,cl
    1de9:	f7 d0                	not    eax
    1deb:	21 83 10 10 00 00    	and    DWORD PTR [rbx+0x1010],eax
    1df1:	e9 9e fd ff ff       	jmp    1b94 <freeBigChunk__IPvsryqksLyNxxag3IQr2g+0x414>
    1df6:	c1 ea 10             	shr    edx,0x10
    1df9:	b9 10 00 00 00       	mov    ecx,0x10
    1dfe:	e9 37 fd ff ff       	jmp    1b3a <freeBigChunk__IPvsryqksLyNxxag3IQr2g+0x3ba>
    1e03:	3d ff ff ff 00       	cmp    eax,0xffffff
    1e08:	89 c2                	mov    edx,eax
    1e0a:	76 0d                	jbe    1e19 <freeBigChunk__IPvsryqksLyNxxag3IQr2g+0x699>
    1e0c:	c1 ea 18             	shr    edx,0x18
    1e0f:	b9 18 00 00 00       	mov    ecx,0x18
    1e14:	e9 35 fe ff ff       	jmp    1c4e <freeBigChunk__IPvsryqksLyNxxag3IQr2g+0x4ce>
    1e19:	c1 ea 10             	shr    edx,0x10
    1e1c:	b9 10 00 00 00       	mov    ecx,0x10
    1e21:	e9 28 fe ff ff       	jmp    1c4e <freeBigChunk__IPvsryqksLyNxxag3IQr2g+0x4ce>
    1e26:	66 2e 0f 1f 84 00 00 	nop    WORD PTR cs:[rax+rax*1+0x0]
    1e2d:	00 00 00 

0000000000001e30 <getBottom__3mqnVBLDtYhZizqw9bvHELA>:
    1e30:	48 83 bf d8 30 00 00 	cmp    QWORD PTR [rdi+0x30d8],0x0
    1e37:	00 
    1e38:	48 8d 87 d8 30 00 00 	lea    rax,[rdi+0x30d8]
    1e3f:	74 07                	je     1e48 <getBottom__3mqnVBLDtYhZizqw9bvHELA+0x18>
    1e41:	f3 c3                	repz ret 
    1e43:	0f 1f 44 00 00       	nop    DWORD PTR [rax+rax*1+0x0]
    1e48:	48 89 87 d8 30 00 00 	mov    QWORD PTR [rdi+0x30d8],rax
    1e4f:	48 89 87 e0 30 00 00 	mov    QWORD PTR [rdi+0x30e0],rax
    1e56:	c3                   	ret    
    1e57:	66 0f 1f 84 00 00 00 	nop    WORD PTR [rax+rax*1+0x0]
    1e5e:	00 00 

0000000000001e60 <skew__NJo8pxZdXEAIa7wkHls9cOw>:
    1e60:	48 8b 07             	mov    rax,QWORD PTR [rdi]
    1e63:	48 8b 10             	mov    rdx,QWORD PTR [rax]
    1e66:	48 8b 48 20          	mov    rcx,QWORD PTR [rax+0x20]
    1e6a:	48 39 4a 20          	cmp    QWORD PTR [rdx+0x20],rcx
    1e6e:	74 08                	je     1e78 <skew__NJo8pxZdXEAIa7wkHls9cOw+0x18>
    1e70:	f3 c3                	repz ret 
    1e72:	66 0f 1f 44 00 00    	nop    WORD PTR [rax+rax*1+0x0]
    1e78:	48 89 17             	mov    QWORD PTR [rdi],rdx
    1e7b:	48 8b 52 08          	mov    rdx,QWORD PTR [rdx+0x8]
    1e7f:	48 89 10             	mov    QWORD PTR [rax],rdx
    1e82:	48 8b 17             	mov    rdx,QWORD PTR [rdi]
    1e85:	48 89 42 08          	mov    QWORD PTR [rdx+0x8],rax
    1e89:	c3                   	ret    
    1e8a:	66 0f 1f 44 00 00    	nop    WORD PTR [rax+rax*1+0x0]

0000000000001e90 <split__NJo8pxZdXEAIa7wkHls9cOw_2>:
    1e90:	48 8b 07             	mov    rax,QWORD PTR [rdi]
    1e93:	48 8b 50 08          	mov    rdx,QWORD PTR [rax+0x8]
    1e97:	48 8b 70 20          	mov    rsi,QWORD PTR [rax+0x20]
    1e9b:	48 8b 4a 08          	mov    rcx,QWORD PTR [rdx+0x8]
    1e9f:	48 39 71 20          	cmp    QWORD PTR [rcx+0x20],rsi
    1ea3:	74 0b                	je     1eb0 <split__NJo8pxZdXEAIa7wkHls9cOw_2+0x20>
    1ea5:	f3 c3                	repz ret 
    1ea7:	66 0f 1f 84 00 00 00 	nop    WORD PTR [rax+rax*1+0x0]
    1eae:	00 00 
    1eb0:	48 89 17             	mov    QWORD PTR [rdi],rdx
    1eb3:	48 8b 12             	mov    rdx,QWORD PTR [rdx]
    1eb6:	48 89 50 08          	mov    QWORD PTR [rax+0x8],rdx
    1eba:	48 8b 17             	mov    rdx,QWORD PTR [rdi]
    1ebd:	48 89 02             	mov    QWORD PTR [rdx],rax
    1ec0:	48 8b 07             	mov    rax,QWORD PTR [rdi]
    1ec3:	48 83 40 20 01       	add    QWORD PTR [rax+0x20],0x1
    1ec8:	c3                   	ret    
    1ec9:	0f 1f 80 00 00 00 00 	nop    DWORD PTR [rax+0x0]

0000000000001ed0 <del__Io5JDKCS5u26IEWw0J53hQ>:
    1ed0:	48 8b 06             	mov    rax,QWORD PTR [rsi]
    1ed3:	48 3b 00             	cmp    rax,QWORD PTR [rax]
    1ed6:	0f 84 6c 01 00 00    	je     2048 <del__Io5JDKCS5u26IEWw0J53hQ+0x178>
    1edc:	41 54                	push   r12
    1ede:	49 89 f4             	mov    r12,rsi
    1ee1:	55                   	push   rbp
    1ee2:	53                   	push   rbx
    1ee3:	48 89 87 b8 30 00 00 	mov    QWORD PTR [rdi+0x30b8],rax
    1eea:	48 89 d5             	mov    rbp,rdx
    1eed:	48 8b 36             	mov    rsi,QWORD PTR [rsi]
    1ef0:	48 89 fb             	mov    rbx,rdi
    1ef3:	48 3b 56 10          	cmp    rdx,QWORD PTR [rsi+0x10]
    1ef7:	0f 83 33 01 00 00    	jae    2030 <del__Io5JDKCS5u26IEWw0J53hQ+0x160>
    1efd:	48 89 ea             	mov    rdx,rbp
    1f00:	48 89 df             	mov    rdi,rbx
    1f03:	e8 c8 ff ff ff       	call   1ed0 <del__Io5JDKCS5u26IEWw0J53hQ>
    1f08:	49 8b 04 24          	mov    rax,QWORD PTR [r12]
    1f0c:	48 3b 83 b8 30 00 00 	cmp    rax,QWORD PTR [rbx+0x30b8]
    1f13:	0f 84 37 01 00 00    	je     2050 <del__Io5JDKCS5u26IEWw0J53hQ+0x180>
    1f19:	48 8b 78 20          	mov    rdi,QWORD PTR [rax+0x20]
    1f1d:	48 8b 08             	mov    rcx,QWORD PTR [rax]
    1f20:	48 8d 57 ff          	lea    rdx,[rdi-0x1]
    1f24:	48 39 51 20          	cmp    QWORD PTR [rcx+0x20],rdx
    1f28:	0f 8d aa 01 00 00    	jge    20d8 <del__Io5JDKCS5u26IEWw0J53hQ+0x208>
    1f2e:	48 89 50 20          	mov    QWORD PTR [rax+0x20],rdx
    1f32:	49 8b 04 24          	mov    rax,QWORD PTR [r12]
    1f36:	48 8b 48 08          	mov    rcx,QWORD PTR [rax+0x8]
    1f3a:	48 8b 50 20          	mov    rdx,QWORD PTR [rax+0x20]
    1f3e:	48 3b 51 20          	cmp    rdx,QWORD PTR [rcx+0x20]
    1f42:	7d 0c                	jge    1f50 <del__Io5JDKCS5u26IEWw0J53hQ+0x80>
    1f44:	48 89 51 20          	mov    QWORD PTR [rcx+0x20],rdx
    1f48:	49 8b 04 24          	mov    rax,QWORD PTR [r12]
    1f4c:	48 8b 50 20          	mov    rdx,QWORD PTR [rax+0x20]
    1f50:	48 8b 08             	mov    rcx,QWORD PTR [rax]
    1f53:	48 39 51 20          	cmp    QWORD PTR [rcx+0x20],rdx
    1f57:	75 17                	jne    1f70 <del__Io5JDKCS5u26IEWw0J53hQ+0xa0>
    1f59:	49 89 0c 24          	mov    QWORD PTR [r12],rcx
    1f5d:	48 8b 51 08          	mov    rdx,QWORD PTR [rcx+0x8]
    1f61:	48 89 10             	mov    QWORD PTR [rax],rdx
    1f64:	49 8b 14 24          	mov    rdx,QWORD PTR [r12]
    1f68:	48 89 42 08          	mov    QWORD PTR [rdx+0x8],rax
    1f6c:	49 8b 04 24          	mov    rax,QWORD PTR [r12]
    1f70:	48 8b 50 08          	mov    rdx,QWORD PTR [rax+0x8]
    1f74:	48 8b 0a             	mov    rcx,QWORD PTR [rdx]
    1f77:	48 8b 7a 20          	mov    rdi,QWORD PTR [rdx+0x20]
    1f7b:	48 39 79 20          	cmp    QWORD PTR [rcx+0x20],rdi
    1f7f:	75 1b                	jne    1f9c <del__Io5JDKCS5u26IEWw0J53hQ+0xcc>
    1f81:	48 89 48 08          	mov    QWORD PTR [rax+0x8],rcx
    1f85:	48 8b 49 08          	mov    rcx,QWORD PTR [rcx+0x8]
    1f89:	48 89 0a             	mov    QWORD PTR [rdx],rcx
    1f8c:	48 8b 40 08          	mov    rax,QWORD PTR [rax+0x8]
    1f90:	48 89 50 08          	mov    QWORD PTR [rax+0x8],rdx
    1f94:	49 8b 04 24          	mov    rax,QWORD PTR [r12]
    1f98:	48 8b 50 08          	mov    rdx,QWORD PTR [rax+0x8]
    1f9c:	48 8b 4a 08          	mov    rcx,QWORD PTR [rdx+0x8]
    1fa0:	48 8b 39             	mov    rdi,QWORD PTR [rcx]
    1fa3:	48 8b 71 20          	mov    rsi,QWORD PTR [rcx+0x20]
    1fa7:	48 39 77 20          	cmp    QWORD PTR [rdi+0x20],rsi
    1fab:	75 23                	jne    1fd0 <del__Io5JDKCS5u26IEWw0J53hQ+0x100>
    1fad:	48 89 7a 08          	mov    QWORD PTR [rdx+0x8],rdi
    1fb1:	48 8b 47 08          	mov    rax,QWORD PTR [rdi+0x8]
    1fb5:	48 89 01             	mov    QWORD PTR [rcx],rax
    1fb8:	48 8b 42 08          	mov    rax,QWORD PTR [rdx+0x8]
    1fbc:	48 89 48 08          	mov    QWORD PTR [rax+0x8],rcx
    1fc0:	49 8b 04 24          	mov    rax,QWORD PTR [r12]
    1fc4:	48 8b 50 08          	mov    rdx,QWORD PTR [rax+0x8]
    1fc8:	48 8b 4a 08          	mov    rcx,QWORD PTR [rdx+0x8]
    1fcc:	48 8b 71 20          	mov    rsi,QWORD PTR [rcx+0x20]
    1fd0:	48 39 70 20          	cmp    QWORD PTR [rax+0x20],rsi
    1fd4:	75 27                	jne    1ffd <del__Io5JDKCS5u26IEWw0J53hQ+0x12d>
    1fd6:	49 89 14 24          	mov    QWORD PTR [r12],rdx
    1fda:	48 8b 12             	mov    rdx,QWORD PTR [rdx]
    1fdd:	48 89 50 08          	mov    QWORD PTR [rax+0x8],rdx
    1fe1:	49 8b 14 24          	mov    rdx,QWORD PTR [r12]
    1fe5:	48 89 02             	mov    QWORD PTR [rdx],rax
    1fe8:	49 8b 04 24          	mov    rax,QWORD PTR [r12]
    1fec:	48 83 40 20 01       	add    QWORD PTR [rax+0x20],0x1
    1ff1:	49 8b 04 24          	mov    rax,QWORD PTR [r12]
    1ff5:	48 8b 50 08          	mov    rdx,QWORD PTR [rax+0x8]
    1ff9:	48 8b 4a 08          	mov    rcx,QWORD PTR [rdx+0x8]
    1ffd:	48 8b 71 08          	mov    rsi,QWORD PTR [rcx+0x8]
    2001:	48 8b 7a 20          	mov    rdi,QWORD PTR [rdx+0x20]
    2005:	48 39 7e 20          	cmp    QWORD PTR [rsi+0x20],rdi
    2009:	0f 85 c0 00 00 00    	jne    20cf <del__Io5JDKCS5u26IEWw0J53hQ+0x1ff>
    200f:	48 89 48 08          	mov    QWORD PTR [rax+0x8],rcx
    2013:	48 8b 09             	mov    rcx,QWORD PTR [rcx]
    2016:	48 89 4a 08          	mov    QWORD PTR [rdx+0x8],rcx
    201a:	48 8b 48 08          	mov    rcx,QWORD PTR [rax+0x8]
    201e:	48 89 11             	mov    QWORD PTR [rcx],rdx
    2021:	48 8b 40 08          	mov    rax,QWORD PTR [rax+0x8]
    2025:	48 83 40 20 01       	add    QWORD PTR [rax+0x20],0x1
    202a:	e9 a0 00 00 00       	jmp    20cf <del__Io5JDKCS5u26IEWw0J53hQ+0x1ff>
    202f:	90                   	nop
    2030:	48 89 b7 b0 30 00 00 	mov    QWORD PTR [rdi+0x30b0],rsi
    2037:	49 8b 04 24          	mov    rax,QWORD PTR [r12]
    203b:	48 8d 70 08          	lea    rsi,[rax+0x8]
    203f:	e9 b9 fe ff ff       	jmp    1efd <del__Io5JDKCS5u26IEWw0J53hQ+0x2d>
    2044:	0f 1f 40 00          	nop    DWORD PTR [rax+0x0]
    2048:	f3 c3                	repz ret 
    204a:	66 0f 1f 44 00 00    	nop    WORD PTR [rax+rax*1+0x0]
    2050:	48 8b 93 b0 30 00 00 	mov    rdx,QWORD PTR [rbx+0x30b0]
    2057:	48 3b 12             	cmp    rdx,QWORD PTR [rdx]
    205a:	0f 84 b9 fe ff ff    	je     1f19 <del__Io5JDKCS5u26IEWw0J53hQ+0x49>
    2060:	48 39 6a 10          	cmp    QWORD PTR [rdx+0x10],rbp
    2064:	0f 85 af fe ff ff    	jne    1f19 <del__Io5JDKCS5u26IEWw0J53hQ+0x49>
    206a:	48 8b 40 10          	mov    rax,QWORD PTR [rax+0x10]
    206e:	48 89 42 10          	mov    QWORD PTR [rdx+0x10],rax
    2072:	49 8b 14 24          	mov    rdx,QWORD PTR [r12]
    2076:	48 8b 83 b0 30 00 00 	mov    rax,QWORD PTR [rbx+0x30b0]
    207d:	48 8b 52 18          	mov    rdx,QWORD PTR [rdx+0x18]
    2081:	48 89 50 18          	mov    QWORD PTR [rax+0x18],rdx
    2085:	48 83 bb d8 30 00 00 	cmp    QWORD PTR [rbx+0x30d8],0x0
    208c:	00 
    208d:	48 8d 83 d8 30 00 00 	lea    rax,[rbx+0x30d8]
    2094:	75 0e                	jne    20a4 <del__Io5JDKCS5u26IEWw0J53hQ+0x1d4>
    2096:	48 89 83 d8 30 00 00 	mov    QWORD PTR [rbx+0x30d8],rax
    209d:	48 89 83 e0 30 00 00 	mov    QWORD PTR [rbx+0x30e0],rax
    20a4:	48 89 83 b0 30 00 00 	mov    QWORD PTR [rbx+0x30b0],rax
    20ab:	49 8b 04 24          	mov    rax,QWORD PTR [r12]
    20af:	48 8b 40 08          	mov    rax,QWORD PTR [rax+0x8]
    20b3:	49 89 04 24          	mov    QWORD PTR [r12],rax
    20b7:	48 8b 83 b8 30 00 00 	mov    rax,QWORD PTR [rbx+0x30b8]
    20be:	48 8b 93 c0 30 00 00 	mov    rdx,QWORD PTR [rbx+0x30c0]
    20c5:	48 89 10             	mov    QWORD PTR [rax],rdx
    20c8:	48 89 83 c0 30 00 00 	mov    QWORD PTR [rbx+0x30c0],rax
    20cf:	5b                   	pop    rbx
    20d0:	5d                   	pop    rbp
    20d1:	41 5c                	pop    r12
    20d3:	c3                   	ret    
    20d4:	0f 1f 40 00          	nop    DWORD PTR [rax+0x0]
    20d8:	48 8b 48 08          	mov    rcx,QWORD PTR [rax+0x8]
    20dc:	48 3b 51 20          	cmp    rdx,QWORD PTR [rcx+0x20]
    20e0:	0f 8f 48 fe ff ff    	jg     1f2e <del__Io5JDKCS5u26IEWw0J53hQ+0x5e>
    20e6:	5b                   	pop    rbx
    20e7:	5d                   	pop    rbp
    20e8:	41 5c                	pop    r12
    20ea:	c3                   	ret    
    20eb:	0f 1f 44 00 00       	nop    DWORD PTR [rax+rax*1+0x0]

00000000000020f0 <freeHugeChunk__IPvsryqksLyNxxag3IQr2g_2>:
    20f0:	49 89 f0             	mov    r8,rsi
    20f3:	48 8b 76 08          	mov    rsi,QWORD PTR [rsi+0x8]
    20f7:	4c 89 c2             	mov    rdx,r8
    20fa:	48 c1 fa 15          	sar    rdx,0x15
    20fe:	0f b6 c2             	movzx  eax,dl
    2101:	48 8b 84 c7 a8 28 00 	mov    rax,QWORD PTR [rdi+rax*8+0x28a8]
    2108:	00 
    2109:	48 85 c0             	test   rax,rax
    210c:	75 0a                	jne    2118 <freeHugeChunk__IPvsryqksLyNxxag3IQr2g_2+0x28>
    210e:	eb 32                	jmp    2142 <freeHugeChunk__IPvsryqksLyNxxag3IQr2g_2+0x52>
    2110:	48 8b 00             	mov    rax,QWORD PTR [rax]
    2113:	48 85 c0             	test   rax,rax
    2116:	74 2a                	je     2142 <freeHugeChunk__IPvsryqksLyNxxag3IQr2g_2+0x52>
    2118:	48 3b 50 08          	cmp    rdx,QWORD PTR [rax+0x8]
    211c:	75 f2                	jne    2110 <freeHugeChunk__IPvsryqksLyNxxag3IQr2g_2+0x20>
    211e:	4c 89 c1             	mov    rcx,r8
    2121:	ba 01 00 00 00       	mov    edx,0x1
    2126:	48 c1 f9 0c          	sar    rcx,0xc
    212a:	81 e1 ff 01 00 00    	and    ecx,0x1ff
    2130:	49 89 c9             	mov    r9,rcx
    2133:	48 d3 e2             	shl    rdx,cl
    2136:	49 c1 f9 06          	sar    r9,0x6
    213a:	48 f7 d2             	not    rdx
    213d:	4a 21 54 c8 10       	and    QWORD PTR [rax+r9*8+0x10],rdx
    2142:	48 8b 87 80 28 00 00 	mov    rax,QWORD PTR [rdi+0x2880]
    2149:	48 39 87 88 28 00 00 	cmp    QWORD PTR [rdi+0x2888],rax
    2150:	48 89 c2             	mov    rdx,rax
    2153:	48 0f 4d 97 88 28 00 	cmovge rdx,QWORD PTR [rdi+0x2888]
    215a:	00 
    215b:	48 29 f0             	sub    rax,rsi
    215e:	48 89 87 80 28 00 00 	mov    QWORD PTR [rdi+0x2880],rax
    2165:	48 89 97 88 28 00 00 	mov    QWORD PTR [rdi+0x2888],rdx
    216c:	4c 89 c7             	mov    rdi,r8
    216f:	e9 6c e8 ff ff       	jmp    9e0 <munmap@plt>
    2174:	66 90                	xchg   ax,ax
    2176:	66 2e 0f 1f 84 00 00 	nop    WORD PTR cs:[rax+rax*1+0x0]
    217d:	00 00 00 

0000000000002180 <rawDealloc__K7uQ6aTKvW6OnOV8EMoNNQ>:
    2180:	49 89 f1             	mov    r9,rsi
    2183:	48 8b 97 98 28 00 00 	mov    rdx,QWORD PTR [rdi+0x2898]
    218a:	49 81 e1 00 f0 ff ff 	and    r9,0xfffffffffffff000
    2191:	49 8b 41 08          	mov    rax,QWORD PTR [r9+0x8]
    2195:	48 29 c2             	sub    rdx,rax
    2198:	48 3d c8 0f 00 00    	cmp    rax,0xfc8
    219e:	7f 38                	jg     21d8 <rawDealloc__K7uQ6aTKvW6OnOV8EMoNNQ+0x58>
    21a0:	48 89 97 98 28 00 00 	mov    QWORD PTR [rdi+0x2898],rdx
    21a7:	49 8b 51 20          	mov    rdx,QWORD PTR [r9+0x20]
    21ab:	48 89 16             	mov    QWORD PTR [rsi],rdx
    21ae:	49 8b 51 28          	mov    rdx,QWORD PTR [r9+0x28]
    21b2:	49 89 71 20          	mov    QWORD PTR [r9+0x20],rsi
    21b6:	48 39 c2             	cmp    rdx,rax
    21b9:	0f 8c b9 01 00 00    	jl     2378 <rawDealloc__K7uQ6aTKvW6OnOV8EMoNNQ+0x1f8>
    21bf:	48 01 c2             	add    rdx,rax
    21c2:	48 81 fa c8 0f 00 00 	cmp    rdx,0xfc8
    21c9:	49 89 51 28          	mov    QWORD PTR [r9+0x28],rdx
    21cd:	0f 84 95 02 00 00    	je     2468 <rawDealloc__K7uQ6aTKvW6OnOV8EMoNNQ+0x2e8>
    21d3:	f3 c3                	repz ret 
    21d5:	0f 1f 00             	nop    DWORD PTR [rax]
    21d8:	48 83 ec 08          	sub    rsp,0x8
    21dc:	48 83 bf d8 30 00 00 	cmp    QWORD PTR [rdi+0x30d8],0x0
    21e3:	00 
    21e4:	48 89 97 98 28 00 00 	mov    QWORD PTR [rdi+0x2898],rdx
    21eb:	4c 8d 97 d8 30 00 00 	lea    r10,[rdi+0x30d8]
    21f2:	0f 84 58 02 00 00    	je     2450 <rawDealloc__K7uQ6aTKvW6OnOV8EMoNNQ+0x2d0>
    21f8:	48 8b b7 a8 30 00 00 	mov    rsi,QWORD PTR [rdi+0x30a8]
    21ff:	4c 89 97 b0 30 00 00 	mov    QWORD PTR [rdi+0x30b0],r10
    2206:	49 89 f8             	mov    r8,rdi
    2209:	48 3b 36             	cmp    rsi,QWORD PTR [rsi]
    220c:	0f 84 46 01 00 00    	je     2358 <rawDealloc__K7uQ6aTKvW6OnOV8EMoNNQ+0x1d8>
    2212:	4d 8d 59 20          	lea    r11,[r9+0x20]
    2216:	48 89 b7 b8 30 00 00 	mov    QWORD PTR [rdi+0x30b8],rsi
    221d:	4c 3b 5e 10          	cmp    r11,QWORD PTR [rsi+0x10]
    2221:	0f 83 19 02 00 00    	jae    2440 <rawDealloc__K7uQ6aTKvW6OnOV8EMoNNQ+0x2c0>
    2227:	4c 89 da             	mov    rdx,r11
    222a:	4c 89 c7             	mov    rdi,r8
    222d:	e8 9e fc ff ff       	call   1ed0 <del__Io5JDKCS5u26IEWw0J53hQ>
    2232:	49 8b 80 a8 30 00 00 	mov    rax,QWORD PTR [r8+0x30a8]
    2239:	49 3b 80 b8 30 00 00 	cmp    rax,QWORD PTR [r8+0x30b8]
    2240:	0f 84 9a 02 00 00    	je     24e0 <rawDealloc__K7uQ6aTKvW6OnOV8EMoNNQ+0x360>
    2246:	48 8b 48 20          	mov    rcx,QWORD PTR [rax+0x20]
    224a:	48 8d 51 ff          	lea    rdx,[rcx-0x1]
    224e:	48 8b 08             	mov    rcx,QWORD PTR [rax]
    2251:	48 39 51 20          	cmp    QWORD PTR [rcx+0x20],rdx
    2255:	0f 8d 6d 02 00 00    	jge    24c8 <rawDealloc__K7uQ6aTKvW6OnOV8EMoNNQ+0x348>
    225b:	48 89 50 20          	mov    QWORD PTR [rax+0x20],rdx
    225f:	49 8b 80 a8 30 00 00 	mov    rax,QWORD PTR [r8+0x30a8]
    2266:	48 8b 48 08          	mov    rcx,QWORD PTR [rax+0x8]
    226a:	48 8b 50 20          	mov    rdx,QWORD PTR [rax+0x20]
    226e:	48 3b 51 20          	cmp    rdx,QWORD PTR [rcx+0x20]
    2272:	0f 8c 08 03 00 00    	jl     2580 <rawDealloc__K7uQ6aTKvW6OnOV8EMoNNQ+0x400>
    2278:	48 8b 08             	mov    rcx,QWORD PTR [rax]
    227b:	48 3b 51 20          	cmp    rdx,QWORD PTR [rcx+0x20]
    227f:	75 20                	jne    22a1 <rawDealloc__K7uQ6aTKvW6OnOV8EMoNNQ+0x121>
    2281:	49 89 88 a8 30 00 00 	mov    QWORD PTR [r8+0x30a8],rcx
    2288:	48 8b 51 08          	mov    rdx,QWORD PTR [rcx+0x8]
    228c:	48 89 10             	mov    QWORD PTR [rax],rdx
    228f:	49 8b 90 a8 30 00 00 	mov    rdx,QWORD PTR [r8+0x30a8]
    2296:	48 89 42 08          	mov    QWORD PTR [rdx+0x8],rax
    229a:	49 8b 80 a8 30 00 00 	mov    rax,QWORD PTR [r8+0x30a8]
    22a1:	48 8b 50 08          	mov    rdx,QWORD PTR [rax+0x8]
    22a5:	48 8b 0a             	mov    rcx,QWORD PTR [rdx]
    22a8:	48 8b 7a 20          	mov    rdi,QWORD PTR [rdx+0x20]
    22ac:	48 39 79 20          	cmp    QWORD PTR [rcx+0x20],rdi
    22b0:	75 1e                	jne    22d0 <rawDealloc__K7uQ6aTKvW6OnOV8EMoNNQ+0x150>
    22b2:	48 89 48 08          	mov    QWORD PTR [rax+0x8],rcx
    22b6:	48 8b 49 08          	mov    rcx,QWORD PTR [rcx+0x8]
    22ba:	48 89 0a             	mov    QWORD PTR [rdx],rcx
    22bd:	48 8b 40 08          	mov    rax,QWORD PTR [rax+0x8]
    22c1:	48 89 50 08          	mov    QWORD PTR [rax+0x8],rdx
    22c5:	49 8b 80 a8 30 00 00 	mov    rax,QWORD PTR [r8+0x30a8]
    22cc:	48 8b 50 08          	mov    rdx,QWORD PTR [rax+0x8]
    22d0:	48 8b 4a 08          	mov    rcx,QWORD PTR [rdx+0x8]
    22d4:	48 8b 39             	mov    rdi,QWORD PTR [rcx]
    22d7:	48 8b 71 20          	mov    rsi,QWORD PTR [rcx+0x20]
    22db:	48 39 77 20          	cmp    QWORD PTR [rdi+0x20],rsi
    22df:	75 26                	jne    2307 <rawDealloc__K7uQ6aTKvW6OnOV8EMoNNQ+0x187>
    22e1:	48 89 7a 08          	mov    QWORD PTR [rdx+0x8],rdi
    22e5:	48 8b 47 08          	mov    rax,QWORD PTR [rdi+0x8]
    22e9:	48 89 01             	mov    QWORD PTR [rcx],rax
    22ec:	48 8b 42 08          	mov    rax,QWORD PTR [rdx+0x8]
    22f0:	48 89 48 08          	mov    QWORD PTR [rax+0x8],rcx
    22f4:	49 8b 80 a8 30 00 00 	mov    rax,QWORD PTR [r8+0x30a8]
    22fb:	48 8b 50 08          	mov    rdx,QWORD PTR [rax+0x8]
    22ff:	48 8b 4a 08          	mov    rcx,QWORD PTR [rdx+0x8]
    2303:	48 8b 71 20          	mov    rsi,QWORD PTR [rcx+0x20]
    2307:	48 39 70 20          	cmp    QWORD PTR [rax+0x20],rsi
    230b:	75 33                	jne    2340 <rawDealloc__K7uQ6aTKvW6OnOV8EMoNNQ+0x1c0>
    230d:	49 89 90 a8 30 00 00 	mov    QWORD PTR [r8+0x30a8],rdx
    2314:	48 8b 12             	mov    rdx,QWORD PTR [rdx]
    2317:	48 89 50 08          	mov    QWORD PTR [rax+0x8],rdx
    231b:	49 8b 90 a8 30 00 00 	mov    rdx,QWORD PTR [r8+0x30a8]
    2322:	48 89 02             	mov    QWORD PTR [rdx],rax
    2325:	49 8b 80 a8 30 00 00 	mov    rax,QWORD PTR [r8+0x30a8]
    232c:	48 83 40 20 01       	add    QWORD PTR [rax+0x20],0x1
    2331:	49 8b 80 a8 30 00 00 	mov    rax,QWORD PTR [r8+0x30a8]
    2338:	48 8b 50 08          	mov    rdx,QWORD PTR [rax+0x8]
    233c:	48 8b 4a 08          	mov    rcx,QWORD PTR [rdx+0x8]
    2340:	48 8b 71 08          	mov    rsi,QWORD PTR [rcx+0x8]
    2344:	48 8b 7a 20          	mov    rdi,QWORD PTR [rdx+0x20]
    2348:	48 39 7e 20          	cmp    QWORD PTR [rsi+0x20],rdi
    234c:	0f 84 46 02 00 00    	je     2598 <rawDealloc__K7uQ6aTKvW6OnOV8EMoNNQ+0x418>
    2352:	66 0f 1f 44 00 00    	nop    WORD PTR [rax+rax*1+0x0]
    2358:	49 8b 71 08          	mov    rsi,QWORD PTR [r9+0x8]
    235c:	48 81 fe 00 00 00 3f 	cmp    rsi,0x3f000000
    2363:	7f 4b                	jg     23b0 <rawDealloc__K7uQ6aTKvW6OnOV8EMoNNQ+0x230>
    2365:	4c 89 ce             	mov    rsi,r9
    2368:	4c 89 c7             	mov    rdi,r8
    236b:	48 83 c4 08          	add    rsp,0x8
    236f:	e9 0c f4 ff ff       	jmp    1780 <freeBigChunk__IPvsryqksLyNxxag3IQr2g>
    2374:	0f 1f 40 00          	nop    DWORD PTR [rax+0x0]
    2378:	4c 8d 40 07          	lea    r8,[rax+0x7]
    237c:	48 85 c0             	test   rax,rax
    237f:	4c 0f 49 c0          	cmovns r8,rax
    2383:	49 83 e0 f8          	and    r8,0xfffffffffffffff8
    2387:	4c 01 c7             	add    rdi,r8
    238a:	48 8b 57 10          	mov    rdx,QWORD PTR [rdi+0x10]
    238e:	49 89 51 10          	mov    QWORD PTR [r9+0x10],rdx
    2392:	48 8b 57 10          	mov    rdx,QWORD PTR [rdi+0x10]
    2396:	48 85 d2             	test   rdx,rdx
    2399:	74 04                	je     239f <rawDealloc__K7uQ6aTKvW6OnOV8EMoNNQ+0x21f>
    239b:	4c 89 4a 18          	mov    QWORD PTR [rdx+0x18],r9
    239f:	4c 89 4f 10          	mov    QWORD PTR [rdi+0x10],r9
    23a3:	49 01 41 28          	add    QWORD PTR [r9+0x28],rax
    23a7:	c3                   	ret    
    23a8:	0f 1f 84 00 00 00 00 	nop    DWORD PTR [rax+rax*1+0x0]
    23af:	00 
    23b0:	4c 89 ca             	mov    rdx,r9
    23b3:	48 c1 fa 15          	sar    rdx,0x15
    23b7:	0f b6 c2             	movzx  eax,dl
    23ba:	49 8b 84 c0 a8 28 00 	mov    rax,QWORD PTR [r8+rax*8+0x28a8]
    23c1:	00 
    23c2:	48 85 c0             	test   rax,rax
    23c5:	74 2d                	je     23f4 <rawDealloc__K7uQ6aTKvW6OnOV8EMoNNQ+0x274>
    23c7:	48 39 50 08          	cmp    QWORD PTR [rax+0x8],rdx
    23cb:	75 69                	jne    2436 <rawDealloc__K7uQ6aTKvW6OnOV8EMoNNQ+0x2b6>
    23cd:	0f 1f 00             	nop    DWORD PTR [rax]
    23d0:	4c 89 c9             	mov    rcx,r9
    23d3:	ba 01 00 00 00       	mov    edx,0x1
    23d8:	48 c1 f9 0c          	sar    rcx,0xc
    23dc:	81 e1 ff 01 00 00    	and    ecx,0x1ff
    23e2:	48 89 cf             	mov    rdi,rcx
    23e5:	48 d3 e2             	shl    rdx,cl
    23e8:	48 c1 ff 06          	sar    rdi,0x6
    23ec:	48 f7 d2             	not    rdx
    23ef:	48 21 54 f8 10       	and    QWORD PTR [rax+rdi*8+0x10],rdx
    23f4:	49 8b 80 80 28 00 00 	mov    rax,QWORD PTR [r8+0x2880]
    23fb:	49 39 80 88 28 00 00 	cmp    QWORD PTR [r8+0x2888],rax
    2402:	4c 89 cf             	mov    rdi,r9
    2405:	48 89 c2             	mov    rdx,rax
    2408:	49 0f 4d 90 88 28 00 	cmovge rdx,QWORD PTR [r8+0x2888]
    240f:	00 
    2410:	48 29 f0             	sub    rax,rsi
    2413:	49 89 80 80 28 00 00 	mov    QWORD PTR [r8+0x2880],rax
    241a:	49 89 90 88 28 00 00 	mov    QWORD PTR [r8+0x2888],rdx
    2421:	48 83 c4 08          	add    rsp,0x8
    2425:	e9 b6 e5 ff ff       	jmp    9e0 <munmap@plt>
    242a:	66 0f 1f 44 00 00    	nop    WORD PTR [rax+rax*1+0x0]
    2430:	48 3b 50 08          	cmp    rdx,QWORD PTR [rax+0x8]
    2434:	74 9a                	je     23d0 <rawDealloc__K7uQ6aTKvW6OnOV8EMoNNQ+0x250>
    2436:	48 8b 00             	mov    rax,QWORD PTR [rax]
    2439:	48 85 c0             	test   rax,rax
    243c:	75 f2                	jne    2430 <rawDealloc__K7uQ6aTKvW6OnOV8EMoNNQ+0x2b0>
    243e:	eb b4                	jmp    23f4 <rawDealloc__K7uQ6aTKvW6OnOV8EMoNNQ+0x274>
    2440:	48 89 b7 b0 30 00 00 	mov    QWORD PTR [rdi+0x30b0],rsi
    2447:	48 83 c6 08          	add    rsi,0x8
    244b:	e9 d7 fd ff ff       	jmp    2227 <rawDealloc__K7uQ6aTKvW6OnOV8EMoNNQ+0xa7>
    2450:	4c 89 97 d8 30 00 00 	mov    QWORD PTR [rdi+0x30d8],r10
    2457:	4c 89 97 e0 30 00 00 	mov    QWORD PTR [rdi+0x30e0],r10
    245e:	e9 95 fd ff ff       	jmp    21f8 <rawDealloc__K7uQ6aTKvW6OnOV8EMoNNQ+0x78>
    2463:	0f 1f 44 00 00       	nop    DWORD PTR [rax+rax*1+0x0]
    2468:	48 8d 50 07          	lea    rdx,[rax+0x7]
    246c:	48 85 c0             	test   rax,rax
    246f:	48 0f 48 c2          	cmovs  rax,rdx
    2473:	49 8b 51 10          	mov    rdx,QWORD PTR [r9+0x10]
    2477:	48 83 e0 f8          	and    rax,0xfffffffffffffff8
    247b:	48 01 f8             	add    rax,rdi
    247e:	4c 3b 48 10          	cmp    r9,QWORD PTR [rax+0x10]
    2482:	0f 84 38 01 00 00    	je     25c0 <rawDealloc__K7uQ6aTKvW6OnOV8EMoNNQ+0x440>
    2488:	49 8b 41 18          	mov    rax,QWORD PTR [r9+0x18]
    248c:	48 89 50 10          	mov    QWORD PTR [rax+0x10],rdx
    2490:	49 8b 41 10          	mov    rax,QWORD PTR [r9+0x10]
    2494:	48 85 c0             	test   rax,rax
    2497:	74 08                	je     24a1 <rawDealloc__K7uQ6aTKvW6OnOV8EMoNNQ+0x321>
    2499:	49 8b 51 18          	mov    rdx,QWORD PTR [r9+0x18]
    249d:	48 89 50 18          	mov    QWORD PTR [rax+0x18],rdx
    24a1:	49 c7 41 10 00 00 00 	mov    QWORD PTR [r9+0x10],0x0
    24a8:	00 
    24a9:	49 c7 41 18 00 00 00 	mov    QWORD PTR [r9+0x18],0x0
    24b0:	00 
    24b1:	4c 89 ce             	mov    rsi,r9
    24b4:	49 c7 41 08 00 10 00 	mov    QWORD PTR [r9+0x8],0x1000
    24bb:	00 
    24bc:	e9 bf f2 ff ff       	jmp    1780 <freeBigChunk__IPvsryqksLyNxxag3IQr2g>
    24c1:	0f 1f 80 00 00 00 00 	nop    DWORD PTR [rax+0x0]
    24c8:	48 8b 48 08          	mov    rcx,QWORD PTR [rax+0x8]
    24cc:	48 3b 51 20          	cmp    rdx,QWORD PTR [rcx+0x20]
    24d0:	0f 8e 82 fe ff ff    	jle    2358 <rawDealloc__K7uQ6aTKvW6OnOV8EMoNNQ+0x1d8>
    24d6:	e9 80 fd ff ff       	jmp    225b <rawDealloc__K7uQ6aTKvW6OnOV8EMoNNQ+0xdb>
    24db:	0f 1f 44 00 00       	nop    DWORD PTR [rax+rax*1+0x0]
    24e0:	49 8b 90 b0 30 00 00 	mov    rdx,QWORD PTR [r8+0x30b0]
    24e7:	48 3b 12             	cmp    rdx,QWORD PTR [rdx]
    24ea:	0f 84 56 fd ff ff    	je     2246 <rawDealloc__K7uQ6aTKvW6OnOV8EMoNNQ+0xc6>
    24f0:	4c 3b 5a 10          	cmp    r11,QWORD PTR [rdx+0x10]
    24f4:	0f 85 4c fd ff ff    	jne    2246 <rawDealloc__K7uQ6aTKvW6OnOV8EMoNNQ+0xc6>
    24fa:	48 8b 40 10          	mov    rax,QWORD PTR [rax+0x10]
    24fe:	48 89 42 10          	mov    QWORD PTR [rdx+0x10],rax
    2502:	49 8b 90 a8 30 00 00 	mov    rdx,QWORD PTR [r8+0x30a8]
    2509:	49 8b 80 b0 30 00 00 	mov    rax,QWORD PTR [r8+0x30b0]
    2510:	48 8b 52 18          	mov    rdx,QWORD PTR [rdx+0x18]
    2514:	48 89 50 18          	mov    QWORD PTR [rax+0x18],rdx
    2518:	49 83 b8 d8 30 00 00 	cmp    QWORD PTR [r8+0x30d8],0x0
    251f:	00 
    2520:	75 0e                	jne    2530 <rawDealloc__K7uQ6aTKvW6OnOV8EMoNNQ+0x3b0>
    2522:	4d 89 90 d8 30 00 00 	mov    QWORD PTR [r8+0x30d8],r10
    2529:	4d 89 90 e0 30 00 00 	mov    QWORD PTR [r8+0x30e0],r10
    2530:	49 8b 80 a8 30 00 00 	mov    rax,QWORD PTR [r8+0x30a8]
    2537:	4d 89 90 b0 30 00 00 	mov    QWORD PTR [r8+0x30b0],r10
    253e:	49 8b 90 c0 30 00 00 	mov    rdx,QWORD PTR [r8+0x30c0]
    2545:	48 8b 40 08          	mov    rax,QWORD PTR [rax+0x8]
    2549:	49 89 80 a8 30 00 00 	mov    QWORD PTR [r8+0x30a8],rax
    2550:	49 8b 80 b8 30 00 00 	mov    rax,QWORD PTR [r8+0x30b8]
    2557:	48 89 10             	mov    QWORD PTR [rax],rdx
    255a:	49 89 80 c0 30 00 00 	mov    QWORD PTR [r8+0x30c0],rax
    2561:	49 8b 71 08          	mov    rsi,QWORD PTR [r9+0x8]
    2565:	48 81 fe 00 00 00 3f 	cmp    rsi,0x3f000000
    256c:	0f 8e f3 fd ff ff    	jle    2365 <rawDealloc__K7uQ6aTKvW6OnOV8EMoNNQ+0x1e5>
    2572:	e9 39 fe ff ff       	jmp    23b0 <rawDealloc__K7uQ6aTKvW6OnOV8EMoNNQ+0x230>
    2577:	66 0f 1f 84 00 00 00 	nop    WORD PTR [rax+rax*1+0x0]
    257e:	00 00 
    2580:	48 89 51 20          	mov    QWORD PTR [rcx+0x20],rdx
    2584:	49 8b 80 a8 30 00 00 	mov    rax,QWORD PTR [r8+0x30a8]
    258b:	48 8b 50 20          	mov    rdx,QWORD PTR [rax+0x20]
    258f:	e9 e4 fc ff ff       	jmp    2278 <rawDealloc__K7uQ6aTKvW6OnOV8EMoNNQ+0xf8>
    2594:	0f 1f 40 00          	nop    DWORD PTR [rax+0x0]
    2598:	48 89 48 08          	mov    QWORD PTR [rax+0x8],rcx
    259c:	48 8b 09             	mov    rcx,QWORD PTR [rcx]
    259f:	48 89 4a 08          	mov    QWORD PTR [rdx+0x8],rcx
    25a3:	48 8b 48 08          	mov    rcx,QWORD PTR [rax+0x8]
    25a7:	48 89 11             	mov    QWORD PTR [rcx],rdx
    25aa:	48 8b 40 08          	mov    rax,QWORD PTR [rax+0x8]
    25ae:	48 83 40 20 01       	add    QWORD PTR [rax+0x20],0x1
    25b3:	e9 a0 fd ff ff       	jmp    2358 <rawDealloc__K7uQ6aTKvW6OnOV8EMoNNQ+0x1d8>
    25b8:	0f 1f 84 00 00 00 00 	nop    DWORD PTR [rax+rax*1+0x0]
    25bf:	00 
    25c0:	48 85 d2             	test   rdx,rdx
    25c3:	48 89 50 10          	mov    QWORD PTR [rax+0x10],rdx
    25c7:	0f 84 d4 fe ff ff    	je     24a1 <rawDealloc__K7uQ6aTKvW6OnOV8EMoNNQ+0x321>
    25cd:	48 c7 42 18 00 00 00 	mov    QWORD PTR [rdx+0x18],0x0
    25d4:	00 
    25d5:	e9 c7 fe ff ff       	jmp    24a1 <rawDealloc__K7uQ6aTKvW6OnOV8EMoNNQ+0x321>
    25da:	66 0f 1f 44 00 00    	nop    WORD PTR [rax+rax*1+0x0]

00000000000025e0 <dealloc__Jg1OaY9ahkT3MBopLAXRSGw>:
    25e0:	49 89 f1             	mov    r9,rsi
    25e3:	48 8b 97 98 28 00 00 	mov    rdx,QWORD PTR [rdi+0x2898]
    25ea:	49 81 e1 00 f0 ff ff 	and    r9,0xfffffffffffff000
    25f1:	49 8b 41 08          	mov    rax,QWORD PTR [r9+0x8]
    25f5:	48 29 c2             	sub    rdx,rax
    25f8:	48 3d c8 0f 00 00    	cmp    rax,0xfc8
    25fe:	7f 38                	jg     2638 <dealloc__Jg1OaY9ahkT3MBopLAXRSGw+0x58>
    2600:	48 89 97 98 28 00 00 	mov    QWORD PTR [rdi+0x2898],rdx
    2607:	49 8b 51 20          	mov    rdx,QWORD PTR [r9+0x20]
    260b:	48 89 16             	mov    QWORD PTR [rsi],rdx
    260e:	49 8b 51 28          	mov    rdx,QWORD PTR [r9+0x28]
    2612:	49 89 71 20          	mov    QWORD PTR [r9+0x20],rsi
    2616:	48 39 d0             	cmp    rax,rdx
    2619:	0f 8f b9 01 00 00    	jg     27d8 <dealloc__Jg1OaY9ahkT3MBopLAXRSGw+0x1f8>
    261f:	48 01 c2             	add    rdx,rax
    2622:	48 81 fa c8 0f 00 00 	cmp    rdx,0xfc8
    2629:	49 89 51 28          	mov    QWORD PTR [r9+0x28],rdx
    262d:	0f 84 95 02 00 00    	je     28c8 <dealloc__Jg1OaY9ahkT3MBopLAXRSGw+0x2e8>
    2633:	f3 c3                	repz ret 
    2635:	0f 1f 00             	nop    DWORD PTR [rax]
    2638:	48 83 ec 08          	sub    rsp,0x8
    263c:	48 83 bf d8 30 00 00 	cmp    QWORD PTR [rdi+0x30d8],0x0
    2643:	00 
    2644:	48 89 97 98 28 00 00 	mov    QWORD PTR [rdi+0x2898],rdx
    264b:	4c 8d 97 d8 30 00 00 	lea    r10,[rdi+0x30d8]
    2652:	0f 84 58 02 00 00    	je     28b0 <dealloc__Jg1OaY9ahkT3MBopLAXRSGw+0x2d0>
    2658:	48 8b b7 a8 30 00 00 	mov    rsi,QWORD PTR [rdi+0x30a8]
    265f:	4c 89 97 b0 30 00 00 	mov    QWORD PTR [rdi+0x30b0],r10
    2666:	49 89 f8             	mov    r8,rdi
    2669:	48 3b 36             	cmp    rsi,QWORD PTR [rsi]
    266c:	0f 84 46 01 00 00    	je     27b8 <dealloc__Jg1OaY9ahkT3MBopLAXRSGw+0x1d8>
    2672:	4d 8d 59 20          	lea    r11,[r9+0x20]
    2676:	48 89 b7 b8 30 00 00 	mov    QWORD PTR [rdi+0x30b8],rsi
    267d:	4c 3b 5e 10          	cmp    r11,QWORD PTR [rsi+0x10]
    2681:	0f 83 19 02 00 00    	jae    28a0 <dealloc__Jg1OaY9ahkT3MBopLAXRSGw+0x2c0>
    2687:	4c 89 da             	mov    rdx,r11
    268a:	4c 89 c7             	mov    rdi,r8
    268d:	e8 3e f8 ff ff       	call   1ed0 <del__Io5JDKCS5u26IEWw0J53hQ>
    2692:	49 8b 80 a8 30 00 00 	mov    rax,QWORD PTR [r8+0x30a8]
    2699:	49 3b 80 b8 30 00 00 	cmp    rax,QWORD PTR [r8+0x30b8]
    26a0:	0f 84 9a 02 00 00    	je     2940 <dealloc__Jg1OaY9ahkT3MBopLAXRSGw+0x360>
    26a6:	48 8b 48 20          	mov    rcx,QWORD PTR [rax+0x20]
    26aa:	48 8d 51 ff          	lea    rdx,[rcx-0x1]
    26ae:	48 8b 08             	mov    rcx,QWORD PTR [rax]
    26b1:	48 39 51 20          	cmp    QWORD PTR [rcx+0x20],rdx
    26b5:	0f 8d 6d 02 00 00    	jge    2928 <dealloc__Jg1OaY9ahkT3MBopLAXRSGw+0x348>
    26bb:	48 89 50 20          	mov    QWORD PTR [rax+0x20],rdx
    26bf:	49 8b 80 a8 30 00 00 	mov    rax,QWORD PTR [r8+0x30a8]
    26c6:	48 8b 48 08          	mov    rcx,QWORD PTR [rax+0x8]
    26ca:	48 8b 50 20          	mov    rdx,QWORD PTR [rax+0x20]
    26ce:	48 3b 51 20          	cmp    rdx,QWORD PTR [rcx+0x20]
    26d2:	0f 8c 08 03 00 00    	jl     29e0 <dealloc__Jg1OaY9ahkT3MBopLAXRSGw+0x400>
    26d8:	48 8b 08             	mov    rcx,QWORD PTR [rax]
    26db:	48 39 51 20          	cmp    QWORD PTR [rcx+0x20],rdx
    26df:	75 20                	jne    2701 <dealloc__Jg1OaY9ahkT3MBopLAXRSGw+0x121>
    26e1:	49 89 88 a8 30 00 00 	mov    QWORD PTR [r8+0x30a8],rcx
    26e8:	48 8b 51 08          	mov    rdx,QWORD PTR [rcx+0x8]
    26ec:	48 89 10             	mov    QWORD PTR [rax],rdx
    26ef:	49 8b 90 a8 30 00 00 	mov    rdx,QWORD PTR [r8+0x30a8]
    26f6:	48 89 42 08          	mov    QWORD PTR [rdx+0x8],rax
    26fa:	49 8b 80 a8 30 00 00 	mov    rax,QWORD PTR [r8+0x30a8]
    2701:	48 8b 50 08          	mov    rdx,QWORD PTR [rax+0x8]
    2705:	48 8b 0a             	mov    rcx,QWORD PTR [rdx]
    2708:	48 8b 7a 20          	mov    rdi,QWORD PTR [rdx+0x20]
    270c:	48 39 79 20          	cmp    QWORD PTR [rcx+0x20],rdi
    2710:	75 1e                	jne    2730 <dealloc__Jg1OaY9ahkT3MBopLAXRSGw+0x150>
    2712:	48 89 48 08          	mov    QWORD PTR [rax+0x8],rcx
    2716:	48 8b 49 08          	mov    rcx,QWORD PTR [rcx+0x8]
    271a:	48 89 0a             	mov    QWORD PTR [rdx],rcx
    271d:	48 8b 40 08          	mov    rax,QWORD PTR [rax+0x8]
    2721:	48 89 50 08          	mov    QWORD PTR [rax+0x8],rdx
    2725:	49 8b 80 a8 30 00 00 	mov    rax,QWORD PTR [r8+0x30a8]
    272c:	48 8b 50 08          	mov    rdx,QWORD PTR [rax+0x8]
    2730:	48 8b 4a 08          	mov    rcx,QWORD PTR [rdx+0x8]
    2734:	48 8b 39             	mov    rdi,QWORD PTR [rcx]
    2737:	48 8b 71 20          	mov    rsi,QWORD PTR [rcx+0x20]
    273b:	48 39 77 20          	cmp    QWORD PTR [rdi+0x20],rsi
    273f:	75 26                	jne    2767 <dealloc__Jg1OaY9ahkT3MBopLAXRSGw+0x187>
    2741:	48 89 7a 08          	mov    QWORD PTR [rdx+0x8],rdi
    2745:	48 8b 47 08          	mov    rax,QWORD PTR [rdi+0x8]
    2749:	48 89 01             	mov    QWORD PTR [rcx],rax
    274c:	48 8b 42 08          	mov    rax,QWORD PTR [rdx+0x8]
    2750:	48 89 48 08          	mov    QWORD PTR [rax+0x8],rcx
    2754:	49 8b 80 a8 30 00 00 	mov    rax,QWORD PTR [r8+0x30a8]
    275b:	48 8b 50 08          	mov    rdx,QWORD PTR [rax+0x8]
    275f:	48 8b 4a 08          	mov    rcx,QWORD PTR [rdx+0x8]
    2763:	48 8b 71 20          	mov    rsi,QWORD PTR [rcx+0x20]
    2767:	48 39 70 20          	cmp    QWORD PTR [rax+0x20],rsi
    276b:	75 33                	jne    27a0 <dealloc__Jg1OaY9ahkT3MBopLAXRSGw+0x1c0>
    276d:	49 89 90 a8 30 00 00 	mov    QWORD PTR [r8+0x30a8],rdx
    2774:	48 8b 12             	mov    rdx,QWORD PTR [rdx]
    2777:	48 89 50 08          	mov    QWORD PTR [rax+0x8],rdx
    277b:	49 8b 90 a8 30 00 00 	mov    rdx,QWORD PTR [r8+0x30a8]
    2782:	48 89 02             	mov    QWORD PTR [rdx],rax
    2785:	49 8b 80 a8 30 00 00 	mov    rax,QWORD PTR [r8+0x30a8]
    278c:	48 83 40 20 01       	add    QWORD PTR [rax+0x20],0x1
    2791:	49 8b 80 a8 30 00 00 	mov    rax,QWORD PTR [r8+0x30a8]
    2798:	48 8b 50 08          	mov    rdx,QWORD PTR [rax+0x8]
    279c:	48 8b 4a 08          	mov    rcx,QWORD PTR [rdx+0x8]
    27a0:	48 8b 71 08          	mov    rsi,QWORD PTR [rcx+0x8]
    27a4:	48 8b 7a 20          	mov    rdi,QWORD PTR [rdx+0x20]
    27a8:	48 39 7e 20          	cmp    QWORD PTR [rsi+0x20],rdi
    27ac:	0f 84 46 02 00 00    	je     29f8 <dealloc__Jg1OaY9ahkT3MBopLAXRSGw+0x418>
    27b2:	66 0f 1f 44 00 00    	nop    WORD PTR [rax+rax*1+0x0]
    27b8:	49 8b 71 08          	mov    rsi,QWORD PTR [r9+0x8]
    27bc:	48 81 fe 00 00 00 3f 	cmp    rsi,0x3f000000
    27c3:	7f 4b                	jg     2810 <dealloc__Jg1OaY9ahkT3MBopLAXRSGw+0x230>
    27c5:	4c 89 ce             	mov    rsi,r9
    27c8:	4c 89 c7             	mov    rdi,r8
    27cb:	48 83 c4 08          	add    rsp,0x8
    27cf:	e9 ac ef ff ff       	jmp    1780 <freeBigChunk__IPvsryqksLyNxxag3IQr2g>
    27d4:	0f 1f 40 00          	nop    DWORD PTR [rax+0x0]
    27d8:	4c 8d 40 07          	lea    r8,[rax+0x7]
    27dc:	48 85 c0             	test   rax,rax
    27df:	4c 0f 49 c0          	cmovns r8,rax
    27e3:	49 83 e0 f8          	and    r8,0xfffffffffffffff8
    27e7:	4c 01 c7             	add    rdi,r8
    27ea:	48 8b 57 10          	mov    rdx,QWORD PTR [rdi+0x10]
    27ee:	49 89 51 10          	mov    QWORD PTR [r9+0x10],rdx
    27f2:	48 8b 57 10          	mov    rdx,QWORD PTR [rdi+0x10]
    27f6:	48 85 d2             	test   rdx,rdx
    27f9:	74 04                	je     27ff <dealloc__Jg1OaY9ahkT3MBopLAXRSGw+0x21f>
    27fb:	4c 89 4a 18          	mov    QWORD PTR [rdx+0x18],r9
    27ff:	4c 89 4f 10          	mov    QWORD PTR [rdi+0x10],r9
    2803:	49 01 41 28          	add    QWORD PTR [r9+0x28],rax
    2807:	c3                   	ret    
    2808:	0f 1f 84 00 00 00 00 	nop    DWORD PTR [rax+rax*1+0x0]
    280f:	00 
    2810:	4c 89 ca             	mov    rdx,r9
    2813:	48 c1 fa 15          	sar    rdx,0x15
    2817:	0f b6 c2             	movzx  eax,dl
    281a:	49 8b 84 c0 a8 28 00 	mov    rax,QWORD PTR [r8+rax*8+0x28a8]
    2821:	00 
    2822:	48 85 c0             	test   rax,rax
    2825:	74 2d                	je     2854 <dealloc__Jg1OaY9ahkT3MBopLAXRSGw+0x274>
    2827:	48 39 50 08          	cmp    QWORD PTR [rax+0x8],rdx
    282b:	75 69                	jne    2896 <dealloc__Jg1OaY9ahkT3MBopLAXRSGw+0x2b6>
    282d:	0f 1f 00             	nop    DWORD PTR [rax]
    2830:	4c 89 c9             	mov    rcx,r9
    2833:	ba 01 00 00 00       	mov    edx,0x1
    2838:	48 c1 f9 0c          	sar    rcx,0xc
    283c:	81 e1 ff 01 00 00    	and    ecx,0x1ff
    2842:	48 89 cf             	mov    rdi,rcx
    2845:	48 d3 e2             	shl    rdx,cl
    2848:	48 c1 ff 06          	sar    rdi,0x6
    284c:	48 f7 d2             	not    rdx
    284f:	48 21 54 f8 10       	and    QWORD PTR [rax+rdi*8+0x10],rdx
    2854:	49 8b 80 80 28 00 00 	mov    rax,QWORD PTR [r8+0x2880]
    285b:	49 39 80 88 28 00 00 	cmp    QWORD PTR [r8+0x2888],rax
    2862:	4c 89 cf             	mov    rdi,r9
    2865:	48 89 c2             	mov    rdx,rax
    2868:	49 0f 4d 90 88 28 00 	cmovge rdx,QWORD PTR [r8+0x2888]
    286f:	00 
    2870:	48 29 f0             	sub    rax,rsi
    2873:	49 89 80 80 28 00 00 	mov    QWORD PTR [r8+0x2880],rax
    287a:	49 89 90 88 28 00 00 	mov    QWORD PTR [r8+0x2888],rdx
    2881:	48 83 c4 08          	add    rsp,0x8
    2885:	e9 56 e1 ff ff       	jmp    9e0 <munmap@plt>
    288a:	66 0f 1f 44 00 00    	nop    WORD PTR [rax+rax*1+0x0]
    2890:	48 3b 50 08          	cmp    rdx,QWORD PTR [rax+0x8]
    2894:	74 9a                	je     2830 <dealloc__Jg1OaY9ahkT3MBopLAXRSGw+0x250>
    2896:	48 8b 00             	mov    rax,QWORD PTR [rax]
    2899:	48 85 c0             	test   rax,rax
    289c:	75 f2                	jne    2890 <dealloc__Jg1OaY9ahkT3MBopLAXRSGw+0x2b0>
    289e:	eb b4                	jmp    2854 <dealloc__Jg1OaY9ahkT3MBopLAXRSGw+0x274>
    28a0:	48 89 b7 b0 30 00 00 	mov    QWORD PTR [rdi+0x30b0],rsi
    28a7:	48 83 c6 08          	add    rsi,0x8
    28ab:	e9 d7 fd ff ff       	jmp    2687 <dealloc__Jg1OaY9ahkT3MBopLAXRSGw+0xa7>
    28b0:	4c 89 97 d8 30 00 00 	mov    QWORD PTR [rdi+0x30d8],r10
    28b7:	4c 89 97 e0 30 00 00 	mov    QWORD PTR [rdi+0x30e0],r10
    28be:	e9 95 fd ff ff       	jmp    2658 <dealloc__Jg1OaY9ahkT3MBopLAXRSGw+0x78>
    28c3:	0f 1f 44 00 00       	nop    DWORD PTR [rax+rax*1+0x0]
    28c8:	48 8d 50 07          	lea    rdx,[rax+0x7]
    28cc:	48 85 c0             	test   rax,rax
    28cf:	48 0f 48 c2          	cmovs  rax,rdx
    28d3:	49 8b 51 10          	mov    rdx,QWORD PTR [r9+0x10]
    28d7:	48 83 e0 f8          	and    rax,0xfffffffffffffff8
    28db:	48 01 f8             	add    rax,rdi
    28de:	4c 3b 48 10          	cmp    r9,QWORD PTR [rax+0x10]
    28e2:	0f 84 38 01 00 00    	je     2a20 <dealloc__Jg1OaY9ahkT3MBopLAXRSGw+0x440>
    28e8:	49 8b 41 18          	mov    rax,QWORD PTR [r9+0x18]
    28ec:	48 89 50 10          	mov    QWORD PTR [rax+0x10],rdx
    28f0:	49 8b 41 10          	mov    rax,QWORD PTR [r9+0x10]
    28f4:	48 85 c0             	test   rax,rax
    28f7:	74 08                	je     2901 <dealloc__Jg1OaY9ahkT3MBopLAXRSGw+0x321>
    28f9:	49 8b 51 18          	mov    rdx,QWORD PTR [r9+0x18]
    28fd:	48 89 50 18          	mov    QWORD PTR [rax+0x18],rdx
    2901:	49 c7 41 10 00 00 00 	mov    QWORD PTR [r9+0x10],0x0
    2908:	00 
    2909:	49 c7 41 18 00 00 00 	mov    QWORD PTR [r9+0x18],0x0
    2910:	00 
    2911:	4c 89 ce             	mov    rsi,r9
    2914:	49 c7 41 08 00 10 00 	mov    QWORD PTR [r9+0x8],0x1000
    291b:	00 
    291c:	e9 5f ee ff ff       	jmp    1780 <freeBigChunk__IPvsryqksLyNxxag3IQr2g>
    2921:	0f 1f 80 00 00 00 00 	nop    DWORD PTR [rax+0x0]
    2928:	48 8b 48 08          	mov    rcx,QWORD PTR [rax+0x8]
    292c:	48 3b 51 20          	cmp    rdx,QWORD PTR [rcx+0x20]
    2930:	0f 8e 82 fe ff ff    	jle    27b8 <dealloc__Jg1OaY9ahkT3MBopLAXRSGw+0x1d8>
    2936:	e9 80 fd ff ff       	jmp    26bb <dealloc__Jg1OaY9ahkT3MBopLAXRSGw+0xdb>
    293b:	0f 1f 44 00 00       	nop    DWORD PTR [rax+rax*1+0x0]
    2940:	49 8b 90 b0 30 00 00 	mov    rdx,QWORD PTR [r8+0x30b0]
    2947:	48 3b 12             	cmp    rdx,QWORD PTR [rdx]
    294a:	0f 84 56 fd ff ff    	je     26a6 <dealloc__Jg1OaY9ahkT3MBopLAXRSGw+0xc6>
    2950:	4c 3b 5a 10          	cmp    r11,QWORD PTR [rdx+0x10]
    2954:	0f 85 4c fd ff ff    	jne    26a6 <dealloc__Jg1OaY9ahkT3MBopLAXRSGw+0xc6>
    295a:	48 8b 40 10          	mov    rax,QWORD PTR [rax+0x10]
    295e:	48 89 42 10          	mov    QWORD PTR [rdx+0x10],rax
    2962:	49 8b 90 a8 30 00 00 	mov    rdx,QWORD PTR [r8+0x30a8]
    2969:	49 8b 80 b0 30 00 00 	mov    rax,QWORD PTR [r8+0x30b0]
    2970:	48 8b 52 18          	mov    rdx,QWORD PTR [rdx+0x18]
    2974:	48 89 50 18          	mov    QWORD PTR [rax+0x18],rdx
    2978:	49 83 b8 d8 30 00 00 	cmp    QWORD PTR [r8+0x30d8],0x0
    297f:	00 
    2980:	75 0e                	jne    2990 <dealloc__Jg1OaY9ahkT3MBopLAXRSGw+0x3b0>
    2982:	4d 89 90 d8 30 00 00 	mov    QWORD PTR [r8+0x30d8],r10
    2989:	4d 89 90 e0 30 00 00 	mov    QWORD PTR [r8+0x30e0],r10
    2990:	49 8b 80 a8 30 00 00 	mov    rax,QWORD PTR [r8+0x30a8]
    2997:	4d 89 90 b0 30 00 00 	mov    QWORD PTR [r8+0x30b0],r10
    299e:	49 8b 90 c0 30 00 00 	mov    rdx,QWORD PTR [r8+0x30c0]
    29a5:	48 8b 40 08          	mov    rax,QWORD PTR [rax+0x8]
    29a9:	49 89 80 a8 30 00 00 	mov    QWORD PTR [r8+0x30a8],rax
    29b0:	49 8b 80 b8 30 00 00 	mov    rax,QWORD PTR [r8+0x30b8]
    29b7:	48 89 10             	mov    QWORD PTR [rax],rdx
    29ba:	49 89 80 c0 30 00 00 	mov    QWORD PTR [r8+0x30c0],rax
    29c1:	49 8b 71 08          	mov    rsi,QWORD PTR [r9+0x8]
    29c5:	48 81 fe 00 00 00 3f 	cmp    rsi,0x3f000000
    29cc:	0f 8e f3 fd ff ff    	jle    27c5 <dealloc__Jg1OaY9ahkT3MBopLAXRSGw+0x1e5>
    29d2:	e9 39 fe ff ff       	jmp    2810 <dealloc__Jg1OaY9ahkT3MBopLAXRSGw+0x230>
    29d7:	66 0f 1f 84 00 00 00 	nop    WORD PTR [rax+rax*1+0x0]
    29de:	00 00 
    29e0:	48 89 51 20          	mov    QWORD PTR [rcx+0x20],rdx
    29e4:	49 8b 80 a8 30 00 00 	mov    rax,QWORD PTR [r8+0x30a8]
    29eb:	48 8b 50 20          	mov    rdx,QWORD PTR [rax+0x20]
    29ef:	e9 e4 fc ff ff       	jmp    26d8 <dealloc__Jg1OaY9ahkT3MBopLAXRSGw+0xf8>
    29f4:	0f 1f 40 00          	nop    DWORD PTR [rax+0x0]
    29f8:	48 89 48 08          	mov    QWORD PTR [rax+0x8],rcx
    29fc:	48 8b 09             	mov    rcx,QWORD PTR [rcx]
    29ff:	48 89 4a 08          	mov    QWORD PTR [rdx+0x8],rcx
    2a03:	48 8b 48 08          	mov    rcx,QWORD PTR [rax+0x8]
    2a07:	48 89 11             	mov    QWORD PTR [rcx],rdx
    2a0a:	48 8b 40 08          	mov    rax,QWORD PTR [rax+0x8]
    2a0e:	48 83 40 20 01       	add    QWORD PTR [rax+0x20],0x1
    2a13:	e9 a0 fd ff ff       	jmp    27b8 <dealloc__Jg1OaY9ahkT3MBopLAXRSGw+0x1d8>
    2a18:	0f 1f 84 00 00 00 00 	nop    DWORD PTR [rax+rax*1+0x0]
    2a1f:	00 
    2a20:	48 85 d2             	test   rdx,rdx
    2a23:	48 89 50 10          	mov    QWORD PTR [rax+0x10],rdx
    2a27:	0f 84 d4 fe ff ff    	je     2901 <dealloc__Jg1OaY9ahkT3MBopLAXRSGw+0x321>
    2a2d:	48 c7 42 18 00 00 00 	mov    QWORD PTR [rdx+0x18],0x0
    2a34:	00 
    2a35:	e9 c7 fe ff ff       	jmp    2901 <dealloc__Jg1OaY9ahkT3MBopLAXRSGw+0x321>
    2a3a:	66 0f 1f 44 00 00    	nop    WORD PTR [rax+rax*1+0x0]

0000000000002a40 <deallocImpl__lmwgHsdhTsrQaepFju8wew_2>:
    2a40:	49 89 f8             	mov    r8,rdi
    2a43:	48 8b 15 ce 1e 21 00 	mov    rdx,QWORD PTR [rip+0x211ece]        # 214918 <allocator__Het9ctRSeaVb4hPekZZNCJQ+0x2898>
    2a4a:	4c 8d 0d 2f f6 20 00 	lea    r9,[rip+0x20f62f]        # 212080 <allocator__Het9ctRSeaVb4hPekZZNCJQ>
    2a51:	49 81 e0 00 f0 ff ff 	and    r8,0xfffffffffffff000
    2a58:	49 8b 40 08          	mov    rax,QWORD PTR [r8+0x8]
    2a5c:	48 29 c2             	sub    rdx,rax
    2a5f:	48 3d c8 0f 00 00    	cmp    rax,0xfc8
    2a65:	7f 39                	jg     2aa0 <deallocImpl__lmwgHsdhTsrQaepFju8wew_2+0x60>
    2a67:	48 89 15 aa 1e 21 00 	mov    QWORD PTR [rip+0x211eaa],rdx        # 214918 <allocator__Het9ctRSeaVb4hPekZZNCJQ+0x2898>
    2a6e:	49 8b 50 20          	mov    rdx,QWORD PTR [r8+0x20]
    2a72:	48 89 17             	mov    QWORD PTR [rdi],rdx
    2a75:	49 8b 50 28          	mov    rdx,QWORD PTR [r8+0x28]
    2a79:	49 89 78 20          	mov    QWORD PTR [r8+0x20],rdi
    2a7d:	48 39 d0             	cmp    rax,rdx
    2a80:	0f 8f ba 01 00 00    	jg     2c40 <deallocImpl__lmwgHsdhTsrQaepFju8wew_2+0x200>
    2a86:	48 01 c2             	add    rdx,rax
    2a89:	48 81 fa c8 0f 00 00 	cmp    rdx,0xfc8
    2a90:	49 89 50 28          	mov    QWORD PTR [r8+0x28],rdx
    2a94:	0f 84 9e 02 00 00    	je     2d38 <deallocImpl__lmwgHsdhTsrQaepFju8wew_2+0x2f8>
    2a9a:	f3 c3                	repz ret 
    2a9c:	0f 1f 40 00          	nop    DWORD PTR [rax+0x0]
    2aa0:	48 83 ec 08          	sub    rsp,0x8
    2aa4:	48 83 3d ac 26 21 00 	cmp    QWORD PTR [rip+0x2126ac],0x0        # 215158 <allocator__Het9ctRSeaVb4hPekZZNCJQ+0x30d8>
    2aab:	00 
    2aac:	48 89 15 65 1e 21 00 	mov    QWORD PTR [rip+0x211e65],rdx        # 214918 <allocator__Het9ctRSeaVb4hPekZZNCJQ+0x2898>
    2ab3:	4c 8d 15 9e 26 21 00 	lea    r10,[rip+0x21269e]        # 215158 <allocator__Het9ctRSeaVb4hPekZZNCJQ+0x30d8>
    2aba:	0f 84 60 02 00 00    	je     2d20 <deallocImpl__lmwgHsdhTsrQaepFju8wew_2+0x2e0>
    2ac0:	48 8b 35 61 26 21 00 	mov    rsi,QWORD PTR [rip+0x212661]        # 215128 <allocator__Het9ctRSeaVb4hPekZZNCJQ+0x30a8>
    2ac7:	4c 89 15 62 26 21 00 	mov    QWORD PTR [rip+0x212662],r10        # 215130 <allocator__Het9ctRSeaVb4hPekZZNCJQ+0x30b0>
    2ace:	48 3b 36             	cmp    rsi,QWORD PTR [rsi]
    2ad1:	0f 84 49 01 00 00    	je     2c20 <deallocImpl__lmwgHsdhTsrQaepFju8wew_2+0x1e0>
    2ad7:	4d 8d 58 20          	lea    r11,[r8+0x20]
    2adb:	48 89 35 56 26 21 00 	mov    QWORD PTR [rip+0x212656],rsi        # 215138 <allocator__Het9ctRSeaVb4hPekZZNCJQ+0x30b8>
    2ae2:	4c 3b 5e 10          	cmp    r11,QWORD PTR [rsi+0x10]
    2ae6:	0f 83 24 02 00 00    	jae    2d10 <deallocImpl__lmwgHsdhTsrQaepFju8wew_2+0x2d0>
    2aec:	48 8d 3d 8d f5 20 00 	lea    rdi,[rip+0x20f58d]        # 212080 <allocator__Het9ctRSeaVb4hPekZZNCJQ>
    2af3:	4c 89 da             	mov    rdx,r11
    2af6:	e8 d5 f3 ff ff       	call   1ed0 <del__Io5JDKCS5u26IEWw0J53hQ>
    2afb:	48 8b 05 26 26 21 00 	mov    rax,QWORD PTR [rip+0x212626]        # 215128 <allocator__Het9ctRSeaVb4hPekZZNCJQ+0x30a8>
    2b02:	48 3b 05 2f 26 21 00 	cmp    rax,QWORD PTR [rip+0x21262f]        # 215138 <allocator__Het9ctRSeaVb4hPekZZNCJQ+0x30b8>
    2b09:	0f 84 a9 02 00 00    	je     2db8 <deallocImpl__lmwgHsdhTsrQaepFju8wew_2+0x378>
    2b0f:	48 8b 48 20          	mov    rcx,QWORD PTR [rax+0x20]
    2b13:	48 8d 51 ff          	lea    rdx,[rcx-0x1]
    2b17:	48 8b 08             	mov    rcx,QWORD PTR [rax]
    2b1a:	48 39 51 20          	cmp    QWORD PTR [rcx+0x20],rdx
    2b1e:	0f 8d 7c 02 00 00    	jge    2da0 <deallocImpl__lmwgHsdhTsrQaepFju8wew_2+0x360>
    2b24:	48 89 50 20          	mov    QWORD PTR [rax+0x20],rdx
    2b28:	48 8b 05 f9 25 21 00 	mov    rax,QWORD PTR [rip+0x2125f9]        # 215128 <allocator__Het9ctRSeaVb4hPekZZNCJQ+0x30a8>
    2b2f:	48 8b 48 08          	mov    rcx,QWORD PTR [rax+0x8]
    2b33:	48 8b 50 20          	mov    rdx,QWORD PTR [rax+0x20]
    2b37:	48 3b 51 20          	cmp    rdx,QWORD PTR [rcx+0x20]
    2b3b:	0f 8c 0f 03 00 00    	jl     2e50 <deallocImpl__lmwgHsdhTsrQaepFju8wew_2+0x410>
    2b41:	48 8b 08             	mov    rcx,QWORD PTR [rax]
    2b44:	48 39 51 20          	cmp    QWORD PTR [rcx+0x20],rdx
    2b48:	75 20                	jne    2b6a <deallocImpl__lmwgHsdhTsrQaepFju8wew_2+0x12a>
    2b4a:	48 89 0d d7 25 21 00 	mov    QWORD PTR [rip+0x2125d7],rcx        # 215128 <allocator__Het9ctRSeaVb4hPekZZNCJQ+0x30a8>
    2b51:	48 8b 51 08          	mov    rdx,QWORD PTR [rcx+0x8]
    2b55:	48 89 10             	mov    QWORD PTR [rax],rdx
    2b58:	48 8b 15 c9 25 21 00 	mov    rdx,QWORD PTR [rip+0x2125c9]        # 215128 <allocator__Het9ctRSeaVb4hPekZZNCJQ+0x30a8>
    2b5f:	48 89 42 08          	mov    QWORD PTR [rdx+0x8],rax
    2b63:	48 8b 05 be 25 21 00 	mov    rax,QWORD PTR [rip+0x2125be]        # 215128 <allocator__Het9ctRSeaVb4hPekZZNCJQ+0x30a8>
    2b6a:	48 8b 50 08          	mov    rdx,QWORD PTR [rax+0x8]
    2b6e:	48 8b 0a             	mov    rcx,QWORD PTR [rdx]
    2b71:	48 8b 72 20          	mov    rsi,QWORD PTR [rdx+0x20]
    2b75:	48 39 71 20          	cmp    QWORD PTR [rcx+0x20],rsi
    2b79:	75 1e                	jne    2b99 <deallocImpl__lmwgHsdhTsrQaepFju8wew_2+0x159>
    2b7b:	48 89 48 08          	mov    QWORD PTR [rax+0x8],rcx
    2b7f:	48 8b 49 08          	mov    rcx,QWORD PTR [rcx+0x8]
    2b83:	48 89 0a             	mov    QWORD PTR [rdx],rcx
    2b86:	48 8b 40 08          	mov    rax,QWORD PTR [rax+0x8]
    2b8a:	48 89 50 08          	mov    QWORD PTR [rax+0x8],rdx
    2b8e:	48 8b 05 93 25 21 00 	mov    rax,QWORD PTR [rip+0x212593]        # 215128 <allocator__Het9ctRSeaVb4hPekZZNCJQ+0x30a8>
    2b95:	48 8b 50 08          	mov    rdx,QWORD PTR [rax+0x8]
    2b99:	48 8b 4a 08          	mov    rcx,QWORD PTR [rdx+0x8]
    2b9d:	48 8b 39             	mov    rdi,QWORD PTR [rcx]
    2ba0:	48 8b 71 20          	mov    rsi,QWORD PTR [rcx+0x20]
    2ba4:	48 39 77 20          	cmp    QWORD PTR [rdi+0x20],rsi
    2ba8:	75 26                	jne    2bd0 <deallocImpl__lmwgHsdhTsrQaepFju8wew_2+0x190>
    2baa:	48 89 7a 08          	mov    QWORD PTR [rdx+0x8],rdi
    2bae:	48 8b 47 08          	mov    rax,QWORD PTR [rdi+0x8]
    2bb2:	48 89 01             	mov    QWORD PTR [rcx],rax
    2bb5:	48 8b 42 08          	mov    rax,QWORD PTR [rdx+0x8]
    2bb9:	48 89 48 08          	mov    QWORD PTR [rax+0x8],rcx
    2bbd:	48 8b 05 64 25 21 00 	mov    rax,QWORD PTR [rip+0x212564]        # 215128 <allocator__Het9ctRSeaVb4hPekZZNCJQ+0x30a8>
    2bc4:	48 8b 50 08          	mov    rdx,QWORD PTR [rax+0x8]
    2bc8:	48 8b 4a 08          	mov    rcx,QWORD PTR [rdx+0x8]
    2bcc:	48 8b 71 20          	mov    rsi,QWORD PTR [rcx+0x20]
    2bd0:	48 39 70 20          	cmp    QWORD PTR [rax+0x20],rsi
    2bd4:	75 33                	jne    2c09 <deallocImpl__lmwgHsdhTsrQaepFju8wew_2+0x1c9>
    2bd6:	48 89 15 4b 25 21 00 	mov    QWORD PTR [rip+0x21254b],rdx        # 215128 <allocator__Het9ctRSeaVb4hPekZZNCJQ+0x30a8>
    2bdd:	48 8b 12             	mov    rdx,QWORD PTR [rdx]
    2be0:	48 89 50 08          	mov    QWORD PTR [rax+0x8],rdx
    2be4:	48 8b 15 3d 25 21 00 	mov    rdx,QWORD PTR [rip+0x21253d]        # 215128 <allocator__Het9ctRSeaVb4hPekZZNCJQ+0x30a8>
    2beb:	48 89 02             	mov    QWORD PTR [rdx],rax
    2bee:	48 8b 05 33 25 21 00 	mov    rax,QWORD PTR [rip+0x212533]        # 215128 <allocator__Het9ctRSeaVb4hPekZZNCJQ+0x30a8>
    2bf5:	48 83 40 20 01       	add    QWORD PTR [rax+0x20],0x1
    2bfa:	48 8b 05 27 25 21 00 	mov    rax,QWORD PTR [rip+0x212527]        # 215128 <allocator__Het9ctRSeaVb4hPekZZNCJQ+0x30a8>
    2c01:	48 8b 50 08          	mov    rdx,QWORD PTR [rax+0x8]
    2c05:	48 8b 4a 08          	mov    rcx,QWORD PTR [rdx+0x8]
    2c09:	48 8b 71 08          	mov    rsi,QWORD PTR [rcx+0x8]
    2c0d:	48 8b 7a 20          	mov    rdi,QWORD PTR [rdx+0x20]
    2c11:	48 39 7e 20          	cmp    QWORD PTR [rsi+0x20],rdi
    2c15:	0f 84 4d 02 00 00    	je     2e68 <deallocImpl__lmwgHsdhTsrQaepFju8wew_2+0x428>
    2c1b:	0f 1f 44 00 00       	nop    DWORD PTR [rax+rax*1+0x0]
    2c20:	49 8b 70 08          	mov    rsi,QWORD PTR [r8+0x8]
    2c24:	48 81 fe 00 00 00 3f 	cmp    rsi,0x3f000000
    2c2b:	7f 4b                	jg     2c78 <deallocImpl__lmwgHsdhTsrQaepFju8wew_2+0x238>
    2c2d:	48 8d 3d 4c f4 20 00 	lea    rdi,[rip+0x20f44c]        # 212080 <allocator__Het9ctRSeaVb4hPekZZNCJQ>
    2c34:	4c 89 c6             	mov    rsi,r8
    2c37:	48 83 c4 08          	add    rsp,0x8
    2c3b:	e9 40 eb ff ff       	jmp    1780 <freeBigChunk__IPvsryqksLyNxxag3IQr2g>
    2c40:	48 8d 50 07          	lea    rdx,[rax+0x7]
    2c44:	48 85 c0             	test   rax,rax
    2c47:	48 0f 49 d0          	cmovns rdx,rax
    2c4b:	48 c1 fa 03          	sar    rdx,0x3
    2c4f:	48 83 c2 02          	add    rdx,0x2
    2c53:	49 8b 0c d1          	mov    rcx,QWORD PTR [r9+rdx*8]
    2c57:	49 89 48 10          	mov    QWORD PTR [r8+0x10],rcx
    2c5b:	49 8b 0c d1          	mov    rcx,QWORD PTR [r9+rdx*8]
    2c5f:	48 85 c9             	test   rcx,rcx
    2c62:	74 04                	je     2c68 <deallocImpl__lmwgHsdhTsrQaepFju8wew_2+0x228>
    2c64:	4c 89 41 18          	mov    QWORD PTR [rcx+0x18],r8
    2c68:	4d 89 04 d1          	mov    QWORD PTR [r9+rdx*8],r8
    2c6c:	49 01 40 28          	add    QWORD PTR [r8+0x28],rax
    2c70:	c3                   	ret    
    2c71:	0f 1f 80 00 00 00 00 	nop    DWORD PTR [rax+0x0]
    2c78:	4c 89 c2             	mov    rdx,r8
    2c7b:	48 c1 fa 15          	sar    rdx,0x15
    2c7f:	0f b6 c2             	movzx  eax,dl
    2c82:	49 8b 84 c1 a8 28 00 	mov    rax,QWORD PTR [r9+rax*8+0x28a8]
    2c89:	00 
    2c8a:	48 85 c0             	test   rax,rax
    2c8d:	74 2d                	je     2cbc <deallocImpl__lmwgHsdhTsrQaepFju8wew_2+0x27c>
    2c8f:	48 39 50 08          	cmp    QWORD PTR [rax+0x8],rdx
    2c93:	75 69                	jne    2cfe <deallocImpl__lmwgHsdhTsrQaepFju8wew_2+0x2be>
    2c95:	0f 1f 00             	nop    DWORD PTR [rax]
    2c98:	4c 89 c1             	mov    rcx,r8
    2c9b:	ba 01 00 00 00       	mov    edx,0x1
    2ca0:	48 c1 f9 0c          	sar    rcx,0xc
    2ca4:	81 e1 ff 01 00 00    	and    ecx,0x1ff
    2caa:	48 89 cf             	mov    rdi,rcx
    2cad:	48 d3 e2             	shl    rdx,cl
    2cb0:	48 c1 ff 06          	sar    rdi,0x6
    2cb4:	48 f7 d2             	not    rdx
    2cb7:	48 21 54 f8 10       	and    QWORD PTR [rax+rdi*8+0x10],rdx
    2cbc:	48 8b 05 3d 1c 21 00 	mov    rax,QWORD PTR [rip+0x211c3d]        # 214900 <allocator__Het9ctRSeaVb4hPekZZNCJQ+0x2880>
    2cc3:	48 39 05 3e 1c 21 00 	cmp    QWORD PTR [rip+0x211c3e],rax        # 214908 <allocator__Het9ctRSeaVb4hPekZZNCJQ+0x2888>
    2cca:	4c 89 c7             	mov    rdi,r8
    2ccd:	48 89 c2             	mov    rdx,rax
    2cd0:	48 0f 4d 15 30 1c 21 	cmovge rdx,QWORD PTR [rip+0x211c30]        # 214908 <allocator__Het9ctRSeaVb4hPekZZNCJQ+0x2888>
    2cd7:	00 
    2cd8:	48 29 f0             	sub    rax,rsi
    2cdb:	48 89 05 1e 1c 21 00 	mov    QWORD PTR [rip+0x211c1e],rax        # 214900 <allocator__Het9ctRSeaVb4hPekZZNCJQ+0x2880>
    2ce2:	48 89 15 1f 1c 21 00 	mov    QWORD PTR [rip+0x211c1f],rdx        # 214908 <allocator__Het9ctRSeaVb4hPekZZNCJQ+0x2888>
    2ce9:	48 83 c4 08          	add    rsp,0x8
    2ced:	e9 ee dc ff ff       	jmp    9e0 <munmap@plt>
    2cf2:	66 0f 1f 44 00 00    	nop    WORD PTR [rax+rax*1+0x0]
    2cf8:	48 3b 50 08          	cmp    rdx,QWORD PTR [rax+0x8]
    2cfc:	74 9a                	je     2c98 <deallocImpl__lmwgHsdhTsrQaepFju8wew_2+0x258>
    2cfe:	48 8b 00             	mov    rax,QWORD PTR [rax]
    2d01:	48 85 c0             	test   rax,rax
    2d04:	75 f2                	jne    2cf8 <deallocImpl__lmwgHsdhTsrQaepFju8wew_2+0x2b8>
    2d06:	eb b4                	jmp    2cbc <deallocImpl__lmwgHsdhTsrQaepFju8wew_2+0x27c>
    2d08:	0f 1f 84 00 00 00 00 	nop    DWORD PTR [rax+rax*1+0x0]
    2d0f:	00 
    2d10:	48 89 35 19 24 21 00 	mov    QWORD PTR [rip+0x212419],rsi        # 215130 <allocator__Het9ctRSeaVb4hPekZZNCJQ+0x30b0>
    2d17:	48 83 c6 08          	add    rsi,0x8
    2d1b:	e9 cc fd ff ff       	jmp    2aec <deallocImpl__lmwgHsdhTsrQaepFju8wew_2+0xac>
    2d20:	4c 89 15 31 24 21 00 	mov    QWORD PTR [rip+0x212431],r10        # 215158 <allocator__Het9ctRSeaVb4hPekZZNCJQ+0x30d8>
    2d27:	4c 89 15 32 24 21 00 	mov    QWORD PTR [rip+0x212432],r10        # 215160 <allocator__Het9ctRSeaVb4hPekZZNCJQ+0x30e0>
    2d2e:	e9 8d fd ff ff       	jmp    2ac0 <deallocImpl__lmwgHsdhTsrQaepFju8wew_2+0x80>
    2d33:	0f 1f 44 00 00       	nop    DWORD PTR [rax+rax*1+0x0]
    2d38:	48 8d 50 07          	lea    rdx,[rax+0x7]
    2d3c:	48 85 c0             	test   rax,rax
    2d3f:	48 0f 48 c2          	cmovs  rax,rdx
    2d43:	49 8b 50 10          	mov    rdx,QWORD PTR [r8+0x10]
    2d47:	48 c1 f8 03          	sar    rax,0x3
    2d4b:	48 83 c0 02          	add    rax,0x2
    2d4f:	4d 3b 04 c1          	cmp    r8,QWORD PTR [r9+rax*8]
    2d53:	0f 84 37 01 00 00    	je     2e90 <deallocImpl__lmwgHsdhTsrQaepFju8wew_2+0x450>
    2d59:	49 8b 40 18          	mov    rax,QWORD PTR [r8+0x18]
    2d5d:	48 89 50 10          	mov    QWORD PTR [rax+0x10],rdx
    2d61:	49 8b 40 10          	mov    rax,QWORD PTR [r8+0x10]
    2d65:	48 85 c0             	test   rax,rax
    2d68:	74 08                	je     2d72 <deallocImpl__lmwgHsdhTsrQaepFju8wew_2+0x332>
    2d6a:	49 8b 50 18          	mov    rdx,QWORD PTR [r8+0x18]
    2d6e:	48 89 50 18          	mov    QWORD PTR [rax+0x18],rdx
    2d72:	48 8d 3d 07 f3 20 00 	lea    rdi,[rip+0x20f307]        # 212080 <allocator__Het9ctRSeaVb4hPekZZNCJQ>
    2d79:	49 c7 40 10 00 00 00 	mov    QWORD PTR [r8+0x10],0x0
    2d80:	00 
    2d81:	49 c7 40 18 00 00 00 	mov    QWORD PTR [r8+0x18],0x0
    2d88:	00 
    2d89:	49 c7 40 08 00 10 00 	mov    QWORD PTR [r8+0x8],0x1000
    2d90:	00 
    2d91:	4c 89 c6             	mov    rsi,r8
    2d94:	e9 e7 e9 ff ff       	jmp    1780 <freeBigChunk__IPvsryqksLyNxxag3IQr2g>
    2d99:	0f 1f 80 00 00 00 00 	nop    DWORD PTR [rax+0x0]
    2da0:	48 8b 48 08          	mov    rcx,QWORD PTR [rax+0x8]
    2da4:	48 3b 51 20          	cmp    rdx,QWORD PTR [rcx+0x20]
    2da8:	0f 8e 72 fe ff ff    	jle    2c20 <deallocImpl__lmwgHsdhTsrQaepFju8wew_2+0x1e0>
    2dae:	e9 71 fd ff ff       	jmp    2b24 <deallocImpl__lmwgHsdhTsrQaepFju8wew_2+0xe4>
    2db3:	0f 1f 44 00 00       	nop    DWORD PTR [rax+rax*1+0x0]
    2db8:	48 8b 15 71 23 21 00 	mov    rdx,QWORD PTR [rip+0x212371]        # 215130 <allocator__Het9ctRSeaVb4hPekZZNCJQ+0x30b0>
    2dbf:	48 3b 12             	cmp    rdx,QWORD PTR [rdx]
    2dc2:	0f 84 47 fd ff ff    	je     2b0f <deallocImpl__lmwgHsdhTsrQaepFju8wew_2+0xcf>
    2dc8:	4c 3b 5a 10          	cmp    r11,QWORD PTR [rdx+0x10]
    2dcc:	0f 85 3d fd ff ff    	jne    2b0f <deallocImpl__lmwgHsdhTsrQaepFju8wew_2+0xcf>
    2dd2:	48 8b 40 10          	mov    rax,QWORD PTR [rax+0x10]
    2dd6:	48 89 42 10          	mov    QWORD PTR [rdx+0x10],rax
    2dda:	48 8b 05 47 23 21 00 	mov    rax,QWORD PTR [rip+0x212347]        # 215128 <allocator__Het9ctRSeaVb4hPekZZNCJQ+0x30a8>
    2de1:	48 8b 50 18          	mov    rdx,QWORD PTR [rax+0x18]
    2de5:	48 8b 05 44 23 21 00 	mov    rax,QWORD PTR [rip+0x212344]        # 215130 <allocator__Het9ctRSeaVb4hPekZZNCJQ+0x30b0>
    2dec:	48 89 50 18          	mov    QWORD PTR [rax+0x18],rdx
    2df0:	48 83 3d 60 23 21 00 	cmp    QWORD PTR [rip+0x212360],0x0        # 215158 <allocator__Het9ctRSeaVb4hPekZZNCJQ+0x30d8>
    2df7:	00 
    2df8:	75 0e                	jne    2e08 <deallocImpl__lmwgHsdhTsrQaepFju8wew_2+0x3c8>
    2dfa:	4c 89 15 57 23 21 00 	mov    QWORD PTR [rip+0x212357],r10        # 215158 <allocator__Het9ctRSeaVb4hPekZZNCJQ+0x30d8>
    2e01:	4c 89 15 58 23 21 00 	mov    QWORD PTR [rip+0x212358],r10        # 215160 <allocator__Het9ctRSeaVb4hPekZZNCJQ+0x30e0>
    2e08:	48 8b 05 19 23 21 00 	mov    rax,QWORD PTR [rip+0x212319]        # 215128 <allocator__Het9ctRSeaVb4hPekZZNCJQ+0x30a8>
    2e0f:	4c 89 15 1a 23 21 00 	mov    QWORD PTR [rip+0x21231a],r10        # 215130 <allocator__Het9ctRSeaVb4hPekZZNCJQ+0x30b0>
    2e16:	48 8b 15 23 23 21 00 	mov    rdx,QWORD PTR [rip+0x212323]        # 215140 <allocator__Het9ctRSeaVb4hPekZZNCJQ+0x30c0>
    2e1d:	48 8b 40 08          	mov    rax,QWORD PTR [rax+0x8]
    2e21:	48 89 05 00 23 21 00 	mov    QWORD PTR [rip+0x212300],rax        # 215128 <allocator__Het9ctRSeaVb4hPekZZNCJQ+0x30a8>
    2e28:	48 8b 05 09 23 21 00 	mov    rax,QWORD PTR [rip+0x212309]        # 215138 <allocator__Het9ctRSeaVb4hPekZZNCJQ+0x30b8>
    2e2f:	48 89 10             	mov    QWORD PTR [rax],rdx
    2e32:	48 89 05 07 23 21 00 	mov    QWORD PTR [rip+0x212307],rax        # 215140 <allocator__Het9ctRSeaVb4hPekZZNCJQ+0x30c0>
    2e39:	49 8b 70 08          	mov    rsi,QWORD PTR [r8+0x8]
    2e3d:	48 81 fe 00 00 00 3f 	cmp    rsi,0x3f000000
    2e44:	0f 8e e3 fd ff ff    	jle    2c2d <deallocImpl__lmwgHsdhTsrQaepFju8wew_2+0x1ed>
    2e4a:	e9 29 fe ff ff       	jmp    2c78 <deallocImpl__lmwgHsdhTsrQaepFju8wew_2+0x238>
    2e4f:	90                   	nop
    2e50:	48 89 51 20          	mov    QWORD PTR [rcx+0x20],rdx
    2e54:	48 8b 05 cd 22 21 00 	mov    rax,QWORD PTR [rip+0x2122cd]        # 215128 <allocator__Het9ctRSeaVb4hPekZZNCJQ+0x30a8>
    2e5b:	48 8b 50 20          	mov    rdx,QWORD PTR [rax+0x20]
    2e5f:	e9 dd fc ff ff       	jmp    2b41 <deallocImpl__lmwgHsdhTsrQaepFju8wew_2+0x101>
    2e64:	0f 1f 40 00          	nop    DWORD PTR [rax+0x0]
    2e68:	48 89 48 08          	mov    QWORD PTR [rax+0x8],rcx
    2e6c:	48 8b 09             	mov    rcx,QWORD PTR [rcx]
    2e6f:	48 89 4a 08          	mov    QWORD PTR [rdx+0x8],rcx
    2e73:	48 8b 48 08          	mov    rcx,QWORD PTR [rax+0x8]
    2e77:	48 89 11             	mov    QWORD PTR [rcx],rdx
    2e7a:	48 8b 40 08          	mov    rax,QWORD PTR [rax+0x8]
    2e7e:	48 83 40 20 01       	add    QWORD PTR [rax+0x20],0x1
    2e83:	e9 98 fd ff ff       	jmp    2c20 <deallocImpl__lmwgHsdhTsrQaepFju8wew_2+0x1e0>
    2e88:	0f 1f 84 00 00 00 00 	nop    DWORD PTR [rax+rax*1+0x0]
    2e8f:	00 
    2e90:	48 85 d2             	test   rdx,rdx
    2e93:	49 89 14 c1          	mov    QWORD PTR [r9+rax*8],rdx
    2e97:	0f 84 d5 fe ff ff    	je     2d72 <deallocImpl__lmwgHsdhTsrQaepFju8wew_2+0x332>
    2e9d:	48 c7 42 18 00 00 00 	mov    QWORD PTR [rdx+0x18],0x0
    2ea4:	00 
    2ea5:	e9 c8 fe ff ff       	jmp    2d72 <deallocImpl__lmwgHsdhTsrQaepFju8wew_2+0x332>
    2eaa:	66 0f 1f 44 00 00    	nop    WORD PTR [rax+rax*1+0x0]

0000000000002eb0 <deallocSharedImpl__lmwgHsdhTsrQaepFju8wew>:
    2eb0:	49 89 f8             	mov    r8,rdi
    2eb3:	48 8b 15 5e 1a 21 00 	mov    rdx,QWORD PTR [rip+0x211a5e]        # 214918 <allocator__Het9ctRSeaVb4hPekZZNCJQ+0x2898>
    2eba:	4c 8d 0d bf f1 20 00 	lea    r9,[rip+0x20f1bf]        # 212080 <allocator__Het9ctRSeaVb4hPekZZNCJQ>
    2ec1:	49 81 e0 00 f0 ff ff 	and    r8,0xfffffffffffff000
    2ec8:	49 8b 40 08          	mov    rax,QWORD PTR [r8+0x8]
    2ecc:	48 29 c2             	sub    rdx,rax
    2ecf:	48 3d c8 0f 00 00    	cmp    rax,0xfc8
    2ed5:	7f 39                	jg     2f10 <deallocSharedImpl__lmwgHsdhTsrQaepFju8wew+0x60>
    2ed7:	48 89 15 3a 1a 21 00 	mov    QWORD PTR [rip+0x211a3a],rdx        # 214918 <allocator__Het9ctRSeaVb4hPekZZNCJQ+0x2898>
    2ede:	49 8b 50 20          	mov    rdx,QWORD PTR [r8+0x20]
    2ee2:	48 89 17             	mov    QWORD PTR [rdi],rdx
    2ee5:	49 8b 50 28          	mov    rdx,QWORD PTR [r8+0x28]
    2ee9:	49 89 78 20          	mov    QWORD PTR [r8+0x20],rdi
    2eed:	48 39 d0             	cmp    rax,rdx
    2ef0:	0f 8f ba 01 00 00    	jg     30b0 <deallocSharedImpl__lmwgHsdhTsrQaepFju8wew+0x200>
    2ef6:	48 01 c2             	add    rdx,rax
    2ef9:	48 81 fa c8 0f 00 00 	cmp    rdx,0xfc8
    2f00:	49 89 50 28          	mov    QWORD PTR [r8+0x28],rdx
    2f04:	0f 84 9e 02 00 00    	je     31a8 <deallocSharedImpl__lmwgHsdhTsrQaepFju8wew+0x2f8>
    2f0a:	f3 c3                	repz ret 
    2f0c:	0f 1f 40 00          	nop    DWORD PTR [rax+0x0]
    2f10:	48 83 ec 08          	sub    rsp,0x8
    2f14:	48 83 3d 3c 22 21 00 	cmp    QWORD PTR [rip+0x21223c],0x0        # 215158 <allocator__Het9ctRSeaVb4hPekZZNCJQ+0x30d8>
    2f1b:	00 
    2f1c:	48 89 15 f5 19 21 00 	mov    QWORD PTR [rip+0x2119f5],rdx        # 214918 <allocator__Het9ctRSeaVb4hPekZZNCJQ+0x2898>
    2f23:	4c 8d 15 2e 22 21 00 	lea    r10,[rip+0x21222e]        # 215158 <allocator__Het9ctRSeaVb4hPekZZNCJQ+0x30d8>
    2f2a:	0f 84 60 02 00 00    	je     3190 <deallocSharedImpl__lmwgHsdhTsrQaepFju8wew+0x2e0>
    2f30:	48 8b 35 f1 21 21 00 	mov    rsi,QWORD PTR [rip+0x2121f1]        # 215128 <allocator__Het9ctRSeaVb4hPekZZNCJQ+0x30a8>
    2f37:	4c 89 15 f2 21 21 00 	mov    QWORD PTR [rip+0x2121f2],r10        # 215130 <allocator__Het9ctRSeaVb4hPekZZNCJQ+0x30b0>
    2f3e:	48 3b 36             	cmp    rsi,QWORD PTR [rsi]
    2f41:	0f 84 49 01 00 00    	je     3090 <deallocSharedImpl__lmwgHsdhTsrQaepFju8wew+0x1e0>
    2f47:	4d 8d 58 20          	lea    r11,[r8+0x20]
    2f4b:	48 89 35 e6 21 21 00 	mov    QWORD PTR [rip+0x2121e6],rsi        # 215138 <allocator__Het9ctRSeaVb4hPekZZNCJQ+0x30b8>
    2f52:	4c 3b 5e 10          	cmp    r11,QWORD PTR [rsi+0x10]
    2f56:	0f 83 24 02 00 00    	jae    3180 <deallocSharedImpl__lmwgHsdhTsrQaepFju8wew+0x2d0>
    2f5c:	48 8d 3d 1d f1 20 00 	lea    rdi,[rip+0x20f11d]        # 212080 <allocator__Het9ctRSeaVb4hPekZZNCJQ>
    2f63:	4c 89 da             	mov    rdx,r11
    2f66:	e8 65 ef ff ff       	call   1ed0 <del__Io5JDKCS5u26IEWw0J53hQ>
    2f6b:	48 8b 05 b6 21 21 00 	mov    rax,QWORD PTR [rip+0x2121b6]        # 215128 <allocator__Het9ctRSeaVb4hPekZZNCJQ+0x30a8>
    2f72:	48 3b 05 bf 21 21 00 	cmp    rax,QWORD PTR [rip+0x2121bf]        # 215138 <allocator__Het9ctRSeaVb4hPekZZNCJQ+0x30b8>
    2f79:	0f 84 a9 02 00 00    	je     3228 <deallocSharedImpl__lmwgHsdhTsrQaepFju8wew+0x378>
    2f7f:	48 8b 48 20          	mov    rcx,QWORD PTR [rax+0x20]
    2f83:	48 8d 51 ff          	lea    rdx,[rcx-0x1]
    2f87:	48 8b 08             	mov    rcx,QWORD PTR [rax]
    2f8a:	48 39 51 20          	cmp    QWORD PTR [rcx+0x20],rdx
    2f8e:	0f 8d 7c 02 00 00    	jge    3210 <deallocSharedImpl__lmwgHsdhTsrQaepFju8wew+0x360>
    2f94:	48 89 50 20          	mov    QWORD PTR [rax+0x20],rdx
    2f98:	48 8b 05 89 21 21 00 	mov    rax,QWORD PTR [rip+0x212189]        # 215128 <allocator__Het9ctRSeaVb4hPekZZNCJQ+0x30a8>
    2f9f:	48 8b 48 08          	mov    rcx,QWORD PTR [rax+0x8]
    2fa3:	48 8b 50 20          	mov    rdx,QWORD PTR [rax+0x20]
    2fa7:	48 3b 51 20          	cmp    rdx,QWORD PTR [rcx+0x20]
    2fab:	0f 8c 0f 03 00 00    	jl     32c0 <deallocSharedImpl__lmwgHsdhTsrQaepFju8wew+0x410>
    2fb1:	48 8b 08             	mov    rcx,QWORD PTR [rax]
    2fb4:	48 39 51 20          	cmp    QWORD PTR [rcx+0x20],rdx
    2fb8:	75 20                	jne    2fda <deallocSharedImpl__lmwgHsdhTsrQaepFju8wew+0x12a>
    2fba:	48 89 0d 67 21 21 00 	mov    QWORD PTR [rip+0x212167],rcx        # 215128 <allocator__Het9ctRSeaVb4hPekZZNCJQ+0x30a8>
    2fc1:	48 8b 51 08          	mov    rdx,QWORD PTR [rcx+0x8]
    2fc5:	48 89 10             	mov    QWORD PTR [rax],rdx
    2fc8:	48 8b 15 59 21 21 00 	mov    rdx,QWORD PTR [rip+0x212159]        # 215128 <allocator__Het9ctRSeaVb4hPekZZNCJQ+0x30a8>
    2fcf:	48 89 42 08          	mov    QWORD PTR [rdx+0x8],rax
    2fd3:	48 8b 05 4e 21 21 00 	mov    rax,QWORD PTR [rip+0x21214e]        # 215128 <allocator__Het9ctRSeaVb4hPekZZNCJQ+0x30a8>
    2fda:	48 8b 50 08          	mov    rdx,QWORD PTR [rax+0x8]
    2fde:	48 8b 0a             	mov    rcx,QWORD PTR [rdx]
    2fe1:	48 8b 72 20          	mov    rsi,QWORD PTR [rdx+0x20]
    2fe5:	48 39 71 20          	cmp    QWORD PTR [rcx+0x20],rsi
    2fe9:	75 1e                	jne    3009 <deallocSharedImpl__lmwgHsdhTsrQaepFju8wew+0x159>
    2feb:	48 89 48 08          	mov    QWORD PTR [rax+0x8],rcx
    2fef:	48 8b 49 08          	mov    rcx,QWORD PTR [rcx+0x8]
    2ff3:	48 89 0a             	mov    QWORD PTR [rdx],rcx
    2ff6:	48 8b 40 08          	mov    rax,QWORD PTR [rax+0x8]
    2ffa:	48 89 50 08          	mov    QWORD PTR [rax+0x8],rdx
    2ffe:	48 8b 05 23 21 21 00 	mov    rax,QWORD PTR [rip+0x212123]        # 215128 <allocator__Het9ctRSeaVb4hPekZZNCJQ+0x30a8>
    3005:	48 8b 50 08          	mov    rdx,QWORD PTR [rax+0x8]
    3009:	48 8b 4a 08          	mov    rcx,QWORD PTR [rdx+0x8]
    300d:	48 8b 39             	mov    rdi,QWORD PTR [rcx]
    3010:	48 8b 71 20          	mov    rsi,QWORD PTR [rcx+0x20]
    3014:	48 39 77 20          	cmp    QWORD PTR [rdi+0x20],rsi
    3018:	75 26                	jne    3040 <deallocSharedImpl__lmwgHsdhTsrQaepFju8wew+0x190>
    301a:	48 89 7a 08          	mov    QWORD PTR [rdx+0x8],rdi
    301e:	48 8b 47 08          	mov    rax,QWORD PTR [rdi+0x8]
    3022:	48 89 01             	mov    QWORD PTR [rcx],rax
    3025:	48 8b 42 08          	mov    rax,QWORD PTR [rdx+0x8]
    3029:	48 89 48 08          	mov    QWORD PTR [rax+0x8],rcx
    302d:	48 8b 05 f4 20 21 00 	mov    rax,QWORD PTR [rip+0x2120f4]        # 215128 <allocator__Het9ctRSeaVb4hPekZZNCJQ+0x30a8>
    3034:	48 8b 50 08          	mov    rdx,QWORD PTR [rax+0x8]
    3038:	48 8b 4a 08          	mov    rcx,QWORD PTR [rdx+0x8]
    303c:	48 8b 71 20          	mov    rsi,QWORD PTR [rcx+0x20]
    3040:	48 39 70 20          	cmp    QWORD PTR [rax+0x20],rsi
    3044:	75 33                	jne    3079 <deallocSharedImpl__lmwgHsdhTsrQaepFju8wew+0x1c9>
    3046:	48 89 15 db 20 21 00 	mov    QWORD PTR [rip+0x2120db],rdx        # 215128 <allocator__Het9ctRSeaVb4hPekZZNCJQ+0x30a8>
    304d:	48 8b 12             	mov    rdx,QWORD PTR [rdx]
    3050:	48 89 50 08          	mov    QWORD PTR [rax+0x8],rdx
    3054:	48 8b 15 cd 20 21 00 	mov    rdx,QWORD PTR [rip+0x2120cd]        # 215128 <allocator__Het9ctRSeaVb4hPekZZNCJQ+0x30a8>
    305b:	48 89 02             	mov    QWORD PTR [rdx],rax
    305e:	48 8b 05 c3 20 21 00 	mov    rax,QWORD PTR [rip+0x2120c3]        # 215128 <allocator__Het9ctRSeaVb4hPekZZNCJQ+0x30a8>
    3065:	48 83 40 20 01       	add    QWORD PTR [rax+0x20],0x1
    306a:	48 8b 05 b7 20 21 00 	mov    rax,QWORD PTR [rip+0x2120b7]        # 215128 <allocator__Het9ctRSeaVb4hPekZZNCJQ+0x30a8>
    3071:	48 8b 50 08          	mov    rdx,QWORD PTR [rax+0x8]
    3075:	48 8b 4a 08          	mov    rcx,QWORD PTR [rdx+0x8]
    3079:	48 8b 71 08          	mov    rsi,QWORD PTR [rcx+0x8]
    307d:	48 8b 7a 20          	mov    rdi,QWORD PTR [rdx+0x20]
    3081:	48 39 7e 20          	cmp    QWORD PTR [rsi+0x20],rdi
    3085:	0f 84 4d 02 00 00    	je     32d8 <deallocSharedImpl__lmwgHsdhTsrQaepFju8wew+0x428>
    308b:	0f 1f 44 00 00       	nop    DWORD PTR [rax+rax*1+0x0]
    3090:	49 8b 70 08          	mov    rsi,QWORD PTR [r8+0x8]
    3094:	48 81 fe 00 00 00 3f 	cmp    rsi,0x3f000000
    309b:	7f 4b                	jg     30e8 <deallocSharedImpl__lmwgHsdhTsrQaepFju8wew+0x238>
    309d:	48 8d 3d dc ef 20 00 	lea    rdi,[rip+0x20efdc]        # 212080 <allocator__Het9ctRSeaVb4hPekZZNCJQ>
    30a4:	4c 89 c6             	mov    rsi,r8
    30a7:	48 83 c4 08          	add    rsp,0x8
    30ab:	e9 d0 e6 ff ff       	jmp    1780 <freeBigChunk__IPvsryqksLyNxxag3IQr2g>
    30b0:	48 8d 50 07          	lea    rdx,[rax+0x7]
    30b4:	48 85 c0             	test   rax,rax
    30b7:	48 0f 49 d0          	cmovns rdx,rax
    30bb:	48 c1 fa 03          	sar    rdx,0x3
    30bf:	48 83 c2 02          	add    rdx,0x2
    30c3:	49 8b 0c d1          	mov    rcx,QWORD PTR [r9+rdx*8]
    30c7:	49 89 48 10          	mov    QWORD PTR [r8+0x10],rcx
    30cb:	49 8b 0c d1          	mov    rcx,QWORD PTR [r9+rdx*8]
    30cf:	48 85 c9             	test   rcx,rcx
    30d2:	74 04                	je     30d8 <deallocSharedImpl__lmwgHsdhTsrQaepFju8wew+0x228>
    30d4:	4c 89 41 18          	mov    QWORD PTR [rcx+0x18],r8
    30d8:	4d 89 04 d1          	mov    QWORD PTR [r9+rdx*8],r8
    30dc:	49 01 40 28          	add    QWORD PTR [r8+0x28],rax
    30e0:	c3                   	ret    
    30e1:	0f 1f 80 00 00 00 00 	nop    DWORD PTR [rax+0x0]
    30e8:	4c 89 c2             	mov    rdx,r8
    30eb:	48 c1 fa 15          	sar    rdx,0x15
    30ef:	0f b6 c2             	movzx  eax,dl
    30f2:	49 8b 84 c1 a8 28 00 	mov    rax,QWORD PTR [r9+rax*8+0x28a8]
    30f9:	00 
    30fa:	48 85 c0             	test   rax,rax
    30fd:	74 2d                	je     312c <deallocSharedImpl__lmwgHsdhTsrQaepFju8wew+0x27c>
    30ff:	48 39 50 08          	cmp    QWORD PTR [rax+0x8],rdx
    3103:	75 69                	jne    316e <deallocSharedImpl__lmwgHsdhTsrQaepFju8wew+0x2be>
    3105:	0f 1f 00             	nop    DWORD PTR [rax]
    3108:	4c 89 c1             	mov    rcx,r8
    310b:	ba 01 00 00 00       	mov    edx,0x1
    3110:	48 c1 f9 0c          	sar    rcx,0xc
    3114:	81 e1 ff 01 00 00    	and    ecx,0x1ff
    311a:	48 89 cf             	mov    rdi,rcx
    311d:	48 d3 e2             	shl    rdx,cl
    3120:	48 c1 ff 06          	sar    rdi,0x6
    3124:	48 f7 d2             	not    rdx
    3127:	48 21 54 f8 10       	and    QWORD PTR [rax+rdi*8+0x10],rdx
    312c:	48 8b 05 cd 17 21 00 	mov    rax,QWORD PTR [rip+0x2117cd]        # 214900 <allocator__Het9ctRSeaVb4hPekZZNCJQ+0x2880>
    3133:	48 39 05 ce 17 21 00 	cmp    QWORD PTR [rip+0x2117ce],rax        # 214908 <allocator__Het9ctRSeaVb4hPekZZNCJQ+0x2888>
    313a:	4c 89 c7             	mov    rdi,r8
    313d:	48 89 c2             	mov    rdx,rax
    3140:	48 0f 4d 15 c0 17 21 	cmovge rdx,QWORD PTR [rip+0x2117c0]        # 214908 <allocator__Het9ctRSeaVb4hPekZZNCJQ+0x2888>
    3147:	00 
    3148:	48 29 f0             	sub    rax,rsi
    314b:	48 89 05 ae 17 21 00 	mov    QWORD PTR [rip+0x2117ae],rax        # 214900 <allocator__Het9ctRSeaVb4hPekZZNCJQ+0x2880>
    3152:	48 89 15 af 17 21 00 	mov    QWORD PTR [rip+0x2117af],rdx        # 214908 <allocator__Het9ctRSeaVb4hPekZZNCJQ+0x2888>
    3159:	48 83 c4 08          	add    rsp,0x8
    315d:	e9 7e d8 ff ff       	jmp    9e0 <munmap@plt>
    3162:	66 0f 1f 44 00 00    	nop    WORD PTR [rax+rax*1+0x0]
    3168:	48 3b 50 08          	cmp    rdx,QWORD PTR [rax+0x8]
    316c:	74 9a                	je     3108 <deallocSharedImpl__lmwgHsdhTsrQaepFju8wew+0x258>
    316e:	48 8b 00             	mov    rax,QWORD PTR [rax]
    3171:	48 85 c0             	test   rax,rax
    3174:	75 f2                	jne    3168 <deallocSharedImpl__lmwgHsdhTsrQaepFju8wew+0x2b8>
    3176:	eb b4                	jmp    312c <deallocSharedImpl__lmwgHsdhTsrQaepFju8wew+0x27c>
    3178:	0f 1f 84 00 00 00 00 	nop    DWORD PTR [rax+rax*1+0x0]
    317f:	00 
    3180:	48 89 35 a9 1f 21 00 	mov    QWORD PTR [rip+0x211fa9],rsi        # 215130 <allocator__Het9ctRSeaVb4hPekZZNCJQ+0x30b0>
    3187:	48 83 c6 08          	add    rsi,0x8
    318b:	e9 cc fd ff ff       	jmp    2f5c <deallocSharedImpl__lmwgHsdhTsrQaepFju8wew+0xac>
    3190:	4c 89 15 c1 1f 21 00 	mov    QWORD PTR [rip+0x211fc1],r10        # 215158 <allocator__Het9ctRSeaVb4hPekZZNCJQ+0x30d8>
    3197:	4c 89 15 c2 1f 21 00 	mov    QWORD PTR [rip+0x211fc2],r10        # 215160 <allocator__Het9ctRSeaVb4hPekZZNCJQ+0x30e0>
    319e:	e9 8d fd ff ff       	jmp    2f30 <deallocSharedImpl__lmwgHsdhTsrQaepFju8wew+0x80>
    31a3:	0f 1f 44 00 00       	nop    DWORD PTR [rax+rax*1+0x0]
    31a8:	48 8d 50 07          	lea    rdx,[rax+0x7]
    31ac:	48 85 c0             	test   rax,rax
    31af:	48 0f 48 c2          	cmovs  rax,rdx
    31b3:	49 8b 50 10          	mov    rdx,QWORD PTR [r8+0x10]
    31b7:	48 c1 f8 03          	sar    rax,0x3
    31bb:	48 83 c0 02          	add    rax,0x2
    31bf:	4d 3b 04 c1          	cmp    r8,QWORD PTR [r9+rax*8]
    31c3:	0f 84 37 01 00 00    	je     3300 <deallocSharedImpl__lmwgHsdhTsrQaepFju8wew+0x450>
    31c9:	49 8b 40 18          	mov    rax,QWORD PTR [r8+0x18]
    31cd:	48 89 50 10          	mov    QWORD PTR [rax+0x10],rdx
    31d1:	49 8b 40 10          	mov    rax,QWORD PTR [r8+0x10]
    31d5:	48 85 c0             	test   rax,rax
    31d8:	74 08                	je     31e2 <deallocSharedImpl__lmwgHsdhTsrQaepFju8wew+0x332>
    31da:	49 8b 50 18          	mov    rdx,QWORD PTR [r8+0x18]
    31de:	48 89 50 18          	mov    QWORD PTR [rax+0x18],rdx
    31e2:	48 8d 3d 97 ee 20 00 	lea    rdi,[rip+0x20ee97]        # 212080 <allocator__Het9ctRSeaVb4hPekZZNCJQ>
    31e9:	49 c7 40 10 00 00 00 	mov    QWORD PTR [r8+0x10],0x0
    31f0:	00 
    31f1:	49 c7 40 18 00 00 00 	mov    QWORD PTR [r8+0x18],0x0
    31f8:	00 
    31f9:	49 c7 40 08 00 10 00 	mov    QWORD PTR [r8+0x8],0x1000
    3200:	00 
    3201:	4c 89 c6             	mov    rsi,r8
    3204:	e9 77 e5 ff ff       	jmp    1780 <freeBigChunk__IPvsryqksLyNxxag3IQr2g>
    3209:	0f 1f 80 00 00 00 00 	nop    DWORD PTR [rax+0x0]
    3210:	48 8b 48 08          	mov    rcx,QWORD PTR [rax+0x8]
    3214:	48 3b 51 20          	cmp    rdx,QWORD PTR [rcx+0x20]
    3218:	0f 8e 72 fe ff ff    	jle    3090 <deallocSharedImpl__lmwgHsdhTsrQaepFju8wew+0x1e0>
    321e:	e9 71 fd ff ff       	jmp    2f94 <deallocSharedImpl__lmwgHsdhTsrQaepFju8wew+0xe4>
    3223:	0f 1f 44 00 00       	nop    DWORD PTR [rax+rax*1+0x0]
    3228:	48 8b 15 01 1f 21 00 	mov    rdx,QWORD PTR [rip+0x211f01]        # 215130 <allocator__Het9ctRSeaVb4hPekZZNCJQ+0x30b0>
    322f:	48 3b 12             	cmp    rdx,QWORD PTR [rdx]
    3232:	0f 84 47 fd ff ff    	je     2f7f <deallocSharedImpl__lmwgHsdhTsrQaepFju8wew+0xcf>
    3238:	4c 3b 5a 10          	cmp    r11,QWORD PTR [rdx+0x10]
    323c:	0f 85 3d fd ff ff    	jne    2f7f <deallocSharedImpl__lmwgHsdhTsrQaepFju8wew+0xcf>
    3242:	48 8b 40 10          	mov    rax,QWORD PTR [rax+0x10]
    3246:	48 89 42 10          	mov    QWORD PTR [rdx+0x10],rax
    324a:	48 8b 05 d7 1e 21 00 	mov    rax,QWORD PTR [rip+0x211ed7]        # 215128 <allocator__Het9ctRSeaVb4hPekZZNCJQ+0x30a8>
    3251:	48 8b 50 18          	mov    rdx,QWORD PTR [rax+0x18]
    3255:	48 8b 05 d4 1e 21 00 	mov    rax,QWORD PTR [rip+0x211ed4]        # 215130 <allocator__Het9ctRSeaVb4hPekZZNCJQ+0x30b0>
    325c:	48 89 50 18          	mov    QWORD PTR [rax+0x18],rdx
    3260:	48 83 3d f0 1e 21 00 	cmp    QWORD PTR [rip+0x211ef0],0x0        # 215158 <allocator__Het9ctRSeaVb4hPekZZNCJQ+0x30d8>
    3267:	00 
    3268:	75 0e                	jne    3278 <deallocSharedImpl__lmwgHsdhTsrQaepFju8wew+0x3c8>
    326a:	4c 89 15 e7 1e 21 00 	mov    QWORD PTR [rip+0x211ee7],r10        # 215158 <allocator__Het9ctRSeaVb4hPekZZNCJQ+0x30d8>
    3271:	4c 89 15 e8 1e 21 00 	mov    QWORD PTR [rip+0x211ee8],r10        # 215160 <allocator__Het9ctRSeaVb4hPekZZNCJQ+0x30e0>
    3278:	48 8b 05 a9 1e 21 00 	mov    rax,QWORD PTR [rip+0x211ea9]        # 215128 <allocator__Het9ctRSeaVb4hPekZZNCJQ+0x30a8>
    327f:	4c 89 15 aa 1e 21 00 	mov    QWORD PTR [rip+0x211eaa],r10        # 215130 <allocator__Het9ctRSeaVb4hPekZZNCJQ+0x30b0>
    3286:	48 8b 15 b3 1e 21 00 	mov    rdx,QWORD PTR [rip+0x211eb3]        # 215140 <allocator__Het9ctRSeaVb4hPekZZNCJQ+0x30c0>
    328d:	48 8b 40 08          	mov    rax,QWORD PTR [rax+0x8]
    3291:	48 89 05 90 1e 21 00 	mov    QWORD PTR [rip+0x211e90],rax        # 215128 <allocator__Het9ctRSeaVb4hPekZZNCJQ+0x30a8>
    3298:	48 8b 05 99 1e 21 00 	mov    rax,QWORD PTR [rip+0x211e99]        # 215138 <allocator__Het9ctRSeaVb4hPekZZNCJQ+0x30b8>
    329f:	48 89 10             	mov    QWORD PTR [rax],rdx
    32a2:	48 89 05 97 1e 21 00 	mov    QWORD PTR [rip+0x211e97],rax        # 215140 <allocator__Het9ctRSeaVb4hPekZZNCJQ+0x30c0>
    32a9:	49 8b 70 08          	mov    rsi,QWORD PTR [r8+0x8]
    32ad:	48 81 fe 00 00 00 3f 	cmp    rsi,0x3f000000
    32b4:	0f 8e e3 fd ff ff    	jle    309d <deallocSharedImpl__lmwgHsdhTsrQaepFju8wew+0x1ed>
    32ba:	e9 29 fe ff ff       	jmp    30e8 <deallocSharedImpl__lmwgHsdhTsrQaepFju8wew+0x238>
    32bf:	90                   	nop
    32c0:	48 89 51 20          	mov    QWORD PTR [rcx+0x20],rdx
    32c4:	48 8b 05 5d 1e 21 00 	mov    rax,QWORD PTR [rip+0x211e5d]        # 215128 <allocator__Het9ctRSeaVb4hPekZZNCJQ+0x30a8>
    32cb:	48 8b 50 20          	mov    rdx,QWORD PTR [rax+0x20]
    32cf:	e9 dd fc ff ff       	jmp    2fb1 <deallocSharedImpl__lmwgHsdhTsrQaepFju8wew+0x101>
    32d4:	0f 1f 40 00          	nop    DWORD PTR [rax+0x0]
    32d8:	48 89 48 08          	mov    QWORD PTR [rax+0x8],rcx
    32dc:	48 8b 09             	mov    rcx,QWORD PTR [rcx]
    32df:	48 89 4a 08          	mov    QWORD PTR [rdx+0x8],rcx
    32e3:	48 8b 48 08          	mov    rcx,QWORD PTR [rax+0x8]
    32e7:	48 89 11             	mov    QWORD PTR [rcx],rdx
    32ea:	48 8b 40 08          	mov    rax,QWORD PTR [rax+0x8]
    32ee:	48 83 40 20 01       	add    QWORD PTR [rax+0x20],0x1
    32f3:	e9 98 fd ff ff       	jmp    3090 <deallocSharedImpl__lmwgHsdhTsrQaepFju8wew+0x1e0>
    32f8:	0f 1f 84 00 00 00 00 	nop    DWORD PTR [rax+rax*1+0x0]
    32ff:	00 
    3300:	48 85 d2             	test   rdx,rdx
    3303:	49 89 14 c1          	mov    QWORD PTR [r9+rax*8],rdx
    3307:	0f 84 d5 fe ff ff    	je     31e2 <deallocSharedImpl__lmwgHsdhTsrQaepFju8wew+0x332>
    330d:	48 c7 42 18 00 00 00 	mov    QWORD PTR [rdx+0x18],0x0
    3314:	00 
    3315:	e9 c8 fe ff ff       	jmp    31e2 <deallocSharedImpl__lmwgHsdhTsrQaepFju8wew+0x332>
    331a:	66 0f 1f 44 00 00    	nop    WORD PTR [rax+rax*1+0x0]

0000000000003320 <deallocShared>:
    3320:	49 89 f8             	mov    r8,rdi
    3323:	48 8b 15 ee 15 21 00 	mov    rdx,QWORD PTR [rip+0x2115ee]        # 214918 <allocator__Het9ctRSeaVb4hPekZZNCJQ+0x2898>
    332a:	4c 8d 0d 4f ed 20 00 	lea    r9,[rip+0x20ed4f]        # 212080 <allocator__Het9ctRSeaVb4hPekZZNCJQ>
    3331:	49 81 e0 00 f0 ff ff 	and    r8,0xfffffffffffff000
    3338:	49 8b 40 08          	mov    rax,QWORD PTR [r8+0x8]
    333c:	48 29 c2             	sub    rdx,rax
    333f:	48 3d c8 0f 00 00    	cmp    rax,0xfc8
    3345:	7f 39                	jg     3380 <deallocShared+0x60>
    3347:	48 89 15 ca 15 21 00 	mov    QWORD PTR [rip+0x2115ca],rdx        # 214918 <allocator__Het9ctRSeaVb4hPekZZNCJQ+0x2898>
    334e:	49 8b 50 20          	mov    rdx,QWORD PTR [r8+0x20]
    3352:	48 89 17             	mov    QWORD PTR [rdi],rdx
    3355:	49 8b 50 28          	mov    rdx,QWORD PTR [r8+0x28]
    3359:	49 89 78 20          	mov    QWORD PTR [r8+0x20],rdi
    335d:	48 39 d0             	cmp    rax,rdx
    3360:	0f 8f ba 01 00 00    	jg     3520 <deallocShared+0x200>
    3366:	48 01 c2             	add    rdx,rax
    3369:	48 81 fa c8 0f 00 00 	cmp    rdx,0xfc8
    3370:	49 89 50 28          	mov    QWORD PTR [r8+0x28],rdx
    3374:	0f 84 9e 02 00 00    	je     3618 <deallocShared+0x2f8>
    337a:	f3 c3                	repz ret 
    337c:	0f 1f 40 00          	nop    DWORD PTR [rax+0x0]
    3380:	48 83 ec 08          	sub    rsp,0x8
    3384:	48 83 3d cc 1d 21 00 	cmp    QWORD PTR [rip+0x211dcc],0x0        # 215158 <allocator__Het9ctRSeaVb4hPekZZNCJQ+0x30d8>
    338b:	00 
    338c:	48 89 15 85 15 21 00 	mov    QWORD PTR [rip+0x211585],rdx        # 214918 <allocator__Het9ctRSeaVb4hPekZZNCJQ+0x2898>
    3393:	4c 8d 15 be 1d 21 00 	lea    r10,[rip+0x211dbe]        # 215158 <allocator__Het9ctRSeaVb4hPekZZNCJQ+0x30d8>
    339a:	0f 84 60 02 00 00    	je     3600 <deallocShared+0x2e0>
    33a0:	48 8b 35 81 1d 21 00 	mov    rsi,QWORD PTR [rip+0x211d81]        # 215128 <allocator__Het9ctRSeaVb4hPekZZNCJQ+0x30a8>
    33a7:	4c 89 15 82 1d 21 00 	mov    QWORD PTR [rip+0x211d82],r10        # 215130 <allocator__Het9ctRSeaVb4hPekZZNCJQ+0x30b0>
    33ae:	48 3b 36             	cmp    rsi,QWORD PTR [rsi]
    33b1:	0f 84 49 01 00 00    	je     3500 <deallocShared+0x1e0>
    33b7:	4d 8d 58 20          	lea    r11,[r8+0x20]
    33bb:	48 89 35 76 1d 21 00 	mov    QWORD PTR [rip+0x211d76],rsi        # 215138 <allocator__Het9ctRSeaVb4hPekZZNCJQ+0x30b8>
    33c2:	4c 3b 5e 10          	cmp    r11,QWORD PTR [rsi+0x10]
    33c6:	0f 83 24 02 00 00    	jae    35f0 <deallocShared+0x2d0>
    33cc:	48 8d 3d ad ec 20 00 	lea    rdi,[rip+0x20ecad]        # 212080 <allocator__Het9ctRSeaVb4hPekZZNCJQ>
    33d3:	4c 89 da             	mov    rdx,r11
    33d6:	e8 f5 ea ff ff       	call   1ed0 <del__Io5JDKCS5u26IEWw0J53hQ>
    33db:	48 8b 05 46 1d 21 00 	mov    rax,QWORD PTR [rip+0x211d46]        # 215128 <allocator__Het9ctRSeaVb4hPekZZNCJQ+0x30a8>
    33e2:	48 3b 05 4f 1d 21 00 	cmp    rax,QWORD PTR [rip+0x211d4f]        # 215138 <allocator__Het9ctRSeaVb4hPekZZNCJQ+0x30b8>
    33e9:	0f 84 a9 02 00 00    	je     3698 <deallocShared+0x378>
    33ef:	48 8b 48 20          	mov    rcx,QWORD PTR [rax+0x20]
    33f3:	48 8d 51 ff          	lea    rdx,[rcx-0x1]
    33f7:	48 8b 08             	mov    rcx,QWORD PTR [rax]
    33fa:	48 39 51 20          	cmp    QWORD PTR [rcx+0x20],rdx
    33fe:	0f 8d 7c 02 00 00    	jge    3680 <deallocShared+0x360>
    3404:	48 89 50 20          	mov    QWORD PTR [rax+0x20],rdx
    3408:	48 8b 05 19 1d 21 00 	mov    rax,QWORD PTR [rip+0x211d19]        # 215128 <allocator__Het9ctRSeaVb4hPekZZNCJQ+0x30a8>
    340f:	48 8b 48 08          	mov    rcx,QWORD PTR [rax+0x8]
    3413:	48 8b 50 20          	mov    rdx,QWORD PTR [rax+0x20]
    3417:	48 3b 51 20          	cmp    rdx,QWORD PTR [rcx+0x20]
    341b:	0f 8c 0f 03 00 00    	jl     3730 <deallocShared+0x410>
    3421:	48 8b 08             	mov    rcx,QWORD PTR [rax]
    3424:	48 39 51 20          	cmp    QWORD PTR [rcx+0x20],rdx
    3428:	75 20                	jne    344a <deallocShared+0x12a>
    342a:	48 89 0d f7 1c 21 00 	mov    QWORD PTR [rip+0x211cf7],rcx        # 215128 <allocator__Het9ctRSeaVb4hPekZZNCJQ+0x30a8>
    3431:	48 8b 51 08          	mov    rdx,QWORD PTR [rcx+0x8]
    3435:	48 89 10             	mov    QWORD PTR [rax],rdx
    3438:	48 8b 15 e9 1c 21 00 	mov    rdx,QWORD PTR [rip+0x211ce9]        # 215128 <allocator__Het9ctRSeaVb4hPekZZNCJQ+0x30a8>
    343f:	48 89 42 08          	mov    QWORD PTR [rdx+0x8],rax
    3443:	48 8b 05 de 1c 21 00 	mov    rax,QWORD PTR [rip+0x211cde]        # 215128 <allocator__Het9ctRSeaVb4hPekZZNCJQ+0x30a8>
    344a:	48 8b 50 08          	mov    rdx,QWORD PTR [rax+0x8]
    344e:	48 8b 0a             	mov    rcx,QWORD PTR [rdx]
    3451:	48 8b 72 20          	mov    rsi,QWORD PTR [rdx+0x20]
    3455:	48 39 71 20          	cmp    QWORD PTR [rcx+0x20],rsi
    3459:	75 1e                	jne    3479 <deallocShared+0x159>
    345b:	48 89 48 08          	mov    QWORD PTR [rax+0x8],rcx
    345f:	48 8b 49 08          	mov    rcx,QWORD PTR [rcx+0x8]
    3463:	48 89 0a             	mov    QWORD PTR [rdx],rcx
    3466:	48 8b 40 08          	mov    rax,QWORD PTR [rax+0x8]
    346a:	48 89 50 08          	mov    QWORD PTR [rax+0x8],rdx
    346e:	48 8b 05 b3 1c 21 00 	mov    rax,QWORD PTR [rip+0x211cb3]        # 215128 <allocator__Het9ctRSeaVb4hPekZZNCJQ+0x30a8>
    3475:	48 8b 50 08          	mov    rdx,QWORD PTR [rax+0x8]
    3479:	48 8b 4a 08          	mov    rcx,QWORD PTR [rdx+0x8]
    347d:	48 8b 39             	mov    rdi,QWORD PTR [rcx]
    3480:	48 8b 71 20          	mov    rsi,QWORD PTR [rcx+0x20]
    3484:	48 39 77 20          	cmp    QWORD PTR [rdi+0x20],rsi
    3488:	75 26                	jne    34b0 <deallocShared+0x190>
    348a:	48 89 7a 08          	mov    QWORD PTR [rdx+0x8],rdi
    348e:	48 8b 47 08          	mov    rax,QWORD PTR [rdi+0x8]
    3492:	48 89 01             	mov    QWORD PTR [rcx],rax
    3495:	48 8b 42 08          	mov    rax,QWORD PTR [rdx+0x8]
    3499:	48 89 48 08          	mov    QWORD PTR [rax+0x8],rcx
    349d:	48 8b 05 84 1c 21 00 	mov    rax,QWORD PTR [rip+0x211c84]        # 215128 <allocator__Het9ctRSeaVb4hPekZZNCJQ+0x30a8>
    34a4:	48 8b 50 08          	mov    rdx,QWORD PTR [rax+0x8]
    34a8:	48 8b 4a 08          	mov    rcx,QWORD PTR [rdx+0x8]
    34ac:	48 8b 71 20          	mov    rsi,QWORD PTR [rcx+0x20]
    34b0:	48 39 70 20          	cmp    QWORD PTR [rax+0x20],rsi
    34b4:	75 33                	jne    34e9 <deallocShared+0x1c9>
    34b6:	48 89 15 6b 1c 21 00 	mov    QWORD PTR [rip+0x211c6b],rdx        # 215128 <allocator__Het9ctRSeaVb4hPekZZNCJQ+0x30a8>
    34bd:	48 8b 12             	mov    rdx,QWORD PTR [rdx]
    34c0:	48 89 50 08          	mov    QWORD PTR [rax+0x8],rdx
    34c4:	48 8b 15 5d 1c 21 00 	mov    rdx,QWORD PTR [rip+0x211c5d]        # 215128 <allocator__Het9ctRSeaVb4hPekZZNCJQ+0x30a8>
    34cb:	48 89 02             	mov    QWORD PTR [rdx],rax
    34ce:	48 8b 05 53 1c 21 00 	mov    rax,QWORD PTR [rip+0x211c53]        # 215128 <allocator__Het9ctRSeaVb4hPekZZNCJQ+0x30a8>
    34d5:	48 83 40 20 01       	add    QWORD PTR [rax+0x20],0x1
    34da:	48 8b 05 47 1c 21 00 	mov    rax,QWORD PTR [rip+0x211c47]        # 215128 <allocator__Het9ctRSeaVb4hPekZZNCJQ+0x30a8>
    34e1:	48 8b 50 08          	mov    rdx,QWORD PTR [rax+0x8]
    34e5:	48 8b 4a 08          	mov    rcx,QWORD PTR [rdx+0x8]
    34e9:	48 8b 71 08          	mov    rsi,QWORD PTR [rcx+0x8]
    34ed:	48 8b 7a 20          	mov    rdi,QWORD PTR [rdx+0x20]
    34f1:	48 39 7e 20          	cmp    QWORD PTR [rsi+0x20],rdi
    34f5:	0f 84 4d 02 00 00    	je     3748 <deallocShared+0x428>
    34fb:	0f 1f 44 00 00       	nop    DWORD PTR [rax+rax*1+0x0]
    3500:	49 8b 70 08          	mov    rsi,QWORD PTR [r8+0x8]
    3504:	48 81 fe 00 00 00 3f 	cmp    rsi,0x3f000000
    350b:	7f 4b                	jg     3558 <deallocShared+0x238>
    350d:	48 8d 3d 6c eb 20 00 	lea    rdi,[rip+0x20eb6c]        # 212080 <allocator__Het9ctRSeaVb4hPekZZNCJQ>
    3514:	4c 89 c6             	mov    rsi,r8
    3517:	48 83 c4 08          	add    rsp,0x8
    351b:	e9 60 e2 ff ff       	jmp    1780 <freeBigChunk__IPvsryqksLyNxxag3IQr2g>
    3520:	48 8d 50 07          	lea    rdx,[rax+0x7]
    3524:	48 85 c0             	test   rax,rax
    3527:	48 0f 49 d0          	cmovns rdx,rax
    352b:	48 c1 fa 03          	sar    rdx,0x3
    352f:	48 83 c2 02          	add    rdx,0x2
    3533:	49 8b 0c d1          	mov    rcx,QWORD PTR [r9+rdx*8]
    3537:	49 89 48 10          	mov    QWORD PTR [r8+0x10],rcx
    353b:	49 8b 0c d1          	mov    rcx,QWORD PTR [r9+rdx*8]
    353f:	48 85 c9             	test   rcx,rcx
    3542:	74 04                	je     3548 <deallocShared+0x228>
    3544:	4c 89 41 18          	mov    QWORD PTR [rcx+0x18],r8
    3548:	4d 89 04 d1          	mov    QWORD PTR [r9+rdx*8],r8
    354c:	49 01 40 28          	add    QWORD PTR [r8+0x28],rax
    3550:	c3                   	ret    
    3551:	0f 1f 80 00 00 00 00 	nop    DWORD PTR [rax+0x0]
    3558:	4c 89 c2             	mov    rdx,r8
    355b:	48 c1 fa 15          	sar    rdx,0x15
    355f:	0f b6 c2             	movzx  eax,dl
    3562:	49 8b 84 c1 a8 28 00 	mov    rax,QWORD PTR [r9+rax*8+0x28a8]
    3569:	00 
    356a:	48 85 c0             	test   rax,rax
    356d:	74 2d                	je     359c <deallocShared+0x27c>
    356f:	48 39 50 08          	cmp    QWORD PTR [rax+0x8],rdx
    3573:	75 69                	jne    35de <deallocShared+0x2be>
    3575:	0f 1f 00             	nop    DWORD PTR [rax]
    3578:	4c 89 c1             	mov    rcx,r8
    357b:	ba 01 00 00 00       	mov    edx,0x1
    3580:	48 c1 f9 0c          	sar    rcx,0xc
    3584:	81 e1 ff 01 00 00    	and    ecx,0x1ff
    358a:	48 89 cf             	mov    rdi,rcx
    358d:	48 d3 e2             	shl    rdx,cl
    3590:	48 c1 ff 06          	sar    rdi,0x6
    3594:	48 f7 d2             	not    rdx
    3597:	48 21 54 f8 10       	and    QWORD PTR [rax+rdi*8+0x10],rdx
    359c:	48 8b 05 5d 13 21 00 	mov    rax,QWORD PTR [rip+0x21135d]        # 214900 <allocator__Het9ctRSeaVb4hPekZZNCJQ+0x2880>
    35a3:	48 39 05 5e 13 21 00 	cmp    QWORD PTR [rip+0x21135e],rax        # 214908 <allocator__Het9ctRSeaVb4hPekZZNCJQ+0x2888>
    35aa:	4c 89 c7             	mov    rdi,r8
    35ad:	48 89 c2             	mov    rdx,rax
    35b0:	48 0f 4d 15 50 13 21 	cmovge rdx,QWORD PTR [rip+0x211350]        # 214908 <allocator__Het9ctRSeaVb4hPekZZNCJQ+0x2888>
    35b7:	00 
    35b8:	48 29 f0             	sub    rax,rsi
    35bb:	48 89 05 3e 13 21 00 	mov    QWORD PTR [rip+0x21133e],rax        # 214900 <allocator__Het9ctRSeaVb4hPekZZNCJQ+0x2880>
    35c2:	48 89 15 3f 13 21 00 	mov    QWORD PTR [rip+0x21133f],rdx        # 214908 <allocator__Het9ctRSeaVb4hPekZZNCJQ+0x2888>
    35c9:	48 83 c4 08          	add    rsp,0x8
    35cd:	e9 0e d4 ff ff       	jmp    9e0 <munmap@plt>
    35d2:	66 0f 1f 44 00 00    	nop    WORD PTR [rax+rax*1+0x0]
    35d8:	48 3b 50 08          	cmp    rdx,QWORD PTR [rax+0x8]
    35dc:	74 9a                	je     3578 <deallocShared+0x258>
    35de:	48 8b 00             	mov    rax,QWORD PTR [rax]
    35e1:	48 85 c0             	test   rax,rax
    35e4:	75 f2                	jne    35d8 <deallocShared+0x2b8>
    35e6:	eb b4                	jmp    359c <deallocShared+0x27c>
    35e8:	0f 1f 84 00 00 00 00 	nop    DWORD PTR [rax+rax*1+0x0]
    35ef:	00 
    35f0:	48 89 35 39 1b 21 00 	mov    QWORD PTR [rip+0x211b39],rsi        # 215130 <allocator__Het9ctRSeaVb4hPekZZNCJQ+0x30b0>
    35f7:	48 83 c6 08          	add    rsi,0x8
    35fb:	e9 cc fd ff ff       	jmp    33cc <deallocShared+0xac>
    3600:	4c 89 15 51 1b 21 00 	mov    QWORD PTR [rip+0x211b51],r10        # 215158 <allocator__Het9ctRSeaVb4hPekZZNCJQ+0x30d8>
    3607:	4c 89 15 52 1b 21 00 	mov    QWORD PTR [rip+0x211b52],r10        # 215160 <allocator__Het9ctRSeaVb4hPekZZNCJQ+0x30e0>
    360e:	e9 8d fd ff ff       	jmp    33a0 <deallocShared+0x80>
    3613:	0f 1f 44 00 00       	nop    DWORD PTR [rax+rax*1+0x0]
    3618:	48 8d 50 07          	lea    rdx,[rax+0x7]
    361c:	48 85 c0             	test   rax,rax
    361f:	48 0f 48 c2          	cmovs  rax,rdx
    3623:	49 8b 50 10          	mov    rdx,QWORD PTR [r8+0x10]
    3627:	48 c1 f8 03          	sar    rax,0x3
    362b:	48 83 c0 02          	add    rax,0x2
    362f:	4d 3b 04 c1          	cmp    r8,QWORD PTR [r9+rax*8]
    3633:	0f 84 37 01 00 00    	je     3770 <deallocShared+0x450>
    3639:	49 8b 40 18          	mov    rax,QWORD PTR [r8+0x18]
    363d:	48 89 50 10          	mov    QWORD PTR [rax+0x10],rdx
    3641:	49 8b 40 10          	mov    rax,QWORD PTR [r8+0x10]
    3645:	48 85 c0             	test   rax,rax
    3648:	74 08                	je     3652 <deallocShared+0x332>
    364a:	49 8b 50 18          	mov    rdx,QWORD PTR [r8+0x18]
    364e:	48 89 50 18          	mov    QWORD PTR [rax+0x18],rdx
    3652:	48 8d 3d 27 ea 20 00 	lea    rdi,[rip+0x20ea27]        # 212080 <allocator__Het9ctRSeaVb4hPekZZNCJQ>
    3659:	49 c7 40 10 00 00 00 	mov    QWORD PTR [r8+0x10],0x0
    3660:	00 
    3661:	49 c7 40 18 00 00 00 	mov    QWORD PTR [r8+0x18],0x0
    3668:	00 
    3669:	49 c7 40 08 00 10 00 	mov    QWORD PTR [r8+0x8],0x1000
    3670:	00 
    3671:	4c 89 c6             	mov    rsi,r8
    3674:	e9 07 e1 ff ff       	jmp    1780 <freeBigChunk__IPvsryqksLyNxxag3IQr2g>
    3679:	0f 1f 80 00 00 00 00 	nop    DWORD PTR [rax+0x0]
    3680:	48 8b 48 08          	mov    rcx,QWORD PTR [rax+0x8]
    3684:	48 3b 51 20          	cmp    rdx,QWORD PTR [rcx+0x20]
    3688:	0f 8e 72 fe ff ff    	jle    3500 <deallocShared+0x1e0>
    368e:	e9 71 fd ff ff       	jmp    3404 <deallocShared+0xe4>
    3693:	0f 1f 44 00 00       	nop    DWORD PTR [rax+rax*1+0x0]
    3698:	48 8b 15 91 1a 21 00 	mov    rdx,QWORD PTR [rip+0x211a91]        # 215130 <allocator__Het9ctRSeaVb4hPekZZNCJQ+0x30b0>
    369f:	48 3b 12             	cmp    rdx,QWORD PTR [rdx]
    36a2:	0f 84 47 fd ff ff    	je     33ef <deallocShared+0xcf>
    36a8:	4c 3b 5a 10          	cmp    r11,QWORD PTR [rdx+0x10]
    36ac:	0f 85 3d fd ff ff    	jne    33ef <deallocShared+0xcf>
    36b2:	48 8b 40 10          	mov    rax,QWORD PTR [rax+0x10]
    36b6:	48 89 42 10          	mov    QWORD PTR [rdx+0x10],rax
    36ba:	48 8b 05 67 1a 21 00 	mov    rax,QWORD PTR [rip+0x211a67]        # 215128 <allocator__Het9ctRSeaVb4hPekZZNCJQ+0x30a8>
    36c1:	48 8b 50 18          	mov    rdx,QWORD PTR [rax+0x18]
    36c5:	48 8b 05 64 1a 21 00 	mov    rax,QWORD PTR [rip+0x211a64]        # 215130 <allocator__Het9ctRSeaVb4hPekZZNCJQ+0x30b0>
    36cc:	48 89 50 18          	mov    QWORD PTR [rax+0x18],rdx
    36d0:	48 83 3d 80 1a 21 00 	cmp    QWORD PTR [rip+0x211a80],0x0        # 215158 <allocator__Het9ctRSeaVb4hPekZZNCJQ+0x30d8>
    36d7:	00 
    36d8:	75 0e                	jne    36e8 <deallocShared+0x3c8>
    36da:	4c 89 15 77 1a 21 00 	mov    QWORD PTR [rip+0x211a77],r10        # 215158 <allocator__Het9ctRSeaVb4hPekZZNCJQ+0x30d8>
    36e1:	4c 89 15 78 1a 21 00 	mov    QWORD PTR [rip+0x211a78],r10        # 215160 <allocator__Het9ctRSeaVb4hPekZZNCJQ+0x30e0>
    36e8:	48 8b 05 39 1a 21 00 	mov    rax,QWORD PTR [rip+0x211a39]        # 215128 <allocator__Het9ctRSeaVb4hPekZZNCJQ+0x30a8>
    36ef:	4c 89 15 3a 1a 21 00 	mov    QWORD PTR [rip+0x211a3a],r10        # 215130 <allocator__Het9ctRSeaVb4hPekZZNCJQ+0x30b0>
    36f6:	48 8b 15 43 1a 21 00 	mov    rdx,QWORD PTR [rip+0x211a43]        # 215140 <allocator__Het9ctRSeaVb4hPekZZNCJQ+0x30c0>
    36fd:	48 8b 40 08          	mov    rax,QWORD PTR [rax+0x8]
    3701:	48 89 05 20 1a 21 00 	mov    QWORD PTR [rip+0x211a20],rax        # 215128 <allocator__Het9ctRSeaVb4hPekZZNCJQ+0x30a8>
    3708:	48 8b 05 29 1a 21 00 	mov    rax,QWORD PTR [rip+0x211a29]        # 215138 <allocator__Het9ctRSeaVb4hPekZZNCJQ+0x30b8>
    370f:	48 89 10             	mov    QWORD PTR [rax],rdx
    3712:	48 89 05 27 1a 21 00 	mov    QWORD PTR [rip+0x211a27],rax        # 215140 <allocator__Het9ctRSeaVb4hPekZZNCJQ+0x30c0>
    3719:	49 8b 70 08          	mov    rsi,QWORD PTR [r8+0x8]
    371d:	48 81 fe 00 00 00 3f 	cmp    rsi,0x3f000000
    3724:	0f 8e e3 fd ff ff    	jle    350d <deallocShared+0x1ed>
    372a:	e9 29 fe ff ff       	jmp    3558 <deallocShared+0x238>
    372f:	90                   	nop
    3730:	48 89 51 20          	mov    QWORD PTR [rcx+0x20],rdx
    3734:	48 8b 05 ed 19 21 00 	mov    rax,QWORD PTR [rip+0x2119ed]        # 215128 <allocator__Het9ctRSeaVb4hPekZZNCJQ+0x30a8>
    373b:	48 8b 50 20          	mov    rdx,QWORD PTR [rax+0x20]
    373f:	e9 dd fc ff ff       	jmp    3421 <deallocShared+0x101>
    3744:	0f 1f 40 00          	nop    DWORD PTR [rax+0x0]
    3748:	48 89 48 08          	mov    QWORD PTR [rax+0x8],rcx
    374c:	48 8b 09             	mov    rcx,QWORD PTR [rcx]
    374f:	48 89 4a 08          	mov    QWORD PTR [rdx+0x8],rcx
    3753:	48 8b 48 08          	mov    rcx,QWORD PTR [rax+0x8]
    3757:	48 89 11             	mov    QWORD PTR [rcx],rdx
    375a:	48 8b 40 08          	mov    rax,QWORD PTR [rax+0x8]
    375e:	48 83 40 20 01       	add    QWORD PTR [rax+0x20],0x1
    3763:	e9 98 fd ff ff       	jmp    3500 <deallocShared+0x1e0>
    3768:	0f 1f 84 00 00 00 00 	nop    DWORD PTR [rax+rax*1+0x0]
    376f:	00 
    3770:	48 85 d2             	test   rdx,rdx
    3773:	49 89 14 c1          	mov    QWORD PTR [r9+rax*8],rdx
    3777:	0f 84 d5 fe ff ff    	je     3652 <deallocShared+0x332>
    377d:	48 c7 42 18 00 00 00 	mov    QWORD PTR [rdx+0x18],0x0
    3784:	00 
    3785:	e9 c8 fe ff ff       	jmp    3652 <deallocShared+0x332>
    378a:	66 0f 1f 44 00 00    	nop    WORD PTR [rax+rax*1+0x0]

0000000000003790 <eqdestroy___dS1BF3Vxjg9aJMmmhVJKSpQ>:
    3790:	48 8b 77 08          	mov    rsi,QWORD PTR [rdi+0x8]
    3794:	48 85 f6             	test   rsi,rsi
    3797:	74 0f                	je     37a8 <eqdestroy___dS1BF3Vxjg9aJMmmhVJKSpQ+0x18>
    3799:	48 b8 00 00 00 00 00 	movabs rax,0x4000000000000000
    37a0:	00 00 40 
    37a3:	48 85 06             	test   QWORD PTR [rsi],rax
    37a6:	74 08                	je     37b0 <eqdestroy___dS1BF3Vxjg9aJMmmhVJKSpQ+0x20>
    37a8:	f3 c3                	repz ret 
    37aa:	66 0f 1f 44 00 00    	nop    WORD PTR [rax+rax*1+0x0]
    37b0:	53                   	push   rbx
    37b1:	48 89 fb             	mov    rbx,rdi
    37b4:	48 8d 3d c5 e8 20 00 	lea    rdi,[rip+0x20e8c5]        # 212080 <allocator__Het9ctRSeaVb4hPekZZNCJQ>
    37bb:	e8 c0 e9 ff ff       	call   2180 <rawDealloc__K7uQ6aTKvW6OnOV8EMoNNQ>
    37c0:	48 c7 43 08 00 00 00 	mov    QWORD PTR [rbx+0x8],0x0
    37c7:	00 
    37c8:	48 c7 03 00 00 00 00 	mov    QWORD PTR [rbx],0x0
    37cf:	5b                   	pop    rbx
    37d0:	c3                   	ret    
    37d1:	0f 1f 44 00 00       	nop    DWORD PTR [rax+rax*1+0x0]
    37d6:	66 2e 0f 1f 84 00 00 	nop    WORD PTR cs:[rax+rax*1+0x0]
    37dd:	00 00 00 

00000000000037e0 <eqsink___aBBXmHFBEivKqERloP6zmA>:
    37e0:	55                   	push   rbp
    37e1:	53                   	push   rbx
    37e2:	48 89 f5             	mov    rbp,rsi
    37e5:	48 89 fb             	mov    rbx,rdi
    37e8:	48 83 ec 18          	sub    rsp,0x18
    37ec:	48 83 3f 00          	cmp    QWORD PTR [rdi],0x0
    37f0:	74 1d                	je     380f <eqsink___aBBXmHFBEivKqERloP6zmA+0x2f>
    37f2:	48 8b 77 08          	mov    rsi,QWORD PTR [rdi+0x8]
    37f6:	48 85 f6             	test   rsi,rsi
    37f9:	74 14                	je     380f <eqsink___aBBXmHFBEivKqERloP6zmA+0x2f>
    37fb:	48 39 d6             	cmp    rsi,rdx
    37fe:	74 0f                	je     380f <eqsink___aBBXmHFBEivKqERloP6zmA+0x2f>
    3800:	48 b8 00 00 00 00 00 	movabs rax,0x4000000000000000
    3807:	00 00 40 
    380a:	48 85 06             	test   QWORD PTR [rsi],rax
    380d:	74 11                	je     3820 <eqsink___aBBXmHFBEivKqERloP6zmA+0x40>
    380f:	48 89 2b             	mov    QWORD PTR [rbx],rbp
    3812:	48 89 53 08          	mov    QWORD PTR [rbx+0x8],rdx
    3816:	48 83 c4 18          	add    rsp,0x18
    381a:	5b                   	pop    rbx
    381b:	5d                   	pop    rbp
    381c:	c3                   	ret    
    381d:	0f 1f 00             	nop    DWORD PTR [rax]
    3820:	48 8d 3d 59 e8 20 00 	lea    rdi,[rip+0x20e859]        # 212080 <allocator__Het9ctRSeaVb4hPekZZNCJQ>
    3827:	48 89 54 24 08       	mov    QWORD PTR [rsp+0x8],rdx
    382c:	e8 4f e9 ff ff       	call   2180 <rawDealloc__K7uQ6aTKvW6OnOV8EMoNNQ>
    3831:	48 8b 54 24 08       	mov    rdx,QWORD PTR [rsp+0x8]
    3836:	eb d7                	jmp    380f <eqsink___aBBXmHFBEivKqERloP6zmA+0x2f>
    3838:	0f 1f 84 00 00 00 00 	nop    DWORD PTR [rax+rax*1+0x0]
    383f:	00 

0000000000003840 <nimRawDispose>:
    3840:	48 8d 4f f8          	lea    rcx,[rdi-0x8]
    3844:	48 8b 15 cd 10 21 00 	mov    rdx,QWORD PTR [rip+0x2110cd]        # 214918 <allocator__Het9ctRSeaVb4hPekZZNCJQ+0x2898>
    384b:	4c 8d 0d 2e e8 20 00 	lea    r9,[rip+0x20e82e]        # 212080 <allocator__Het9ctRSeaVb4hPekZZNCJQ>
    3852:	49 89 c8             	mov    r8,rcx
    3855:	49 81 e0 00 f0 ff ff 	and    r8,0xfffffffffffff000
    385c:	49 8b 40 08          	mov    rax,QWORD PTR [r8+0x8]
    3860:	48 29 c2             	sub    rdx,rax
    3863:	48 3d c8 0f 00 00    	cmp    rax,0xfc8
    3869:	7f 3d                	jg     38a8 <nimRawDispose+0x68>
    386b:	48 89 15 a6 10 21 00 	mov    QWORD PTR [rip+0x2110a6],rdx        # 214918 <allocator__Het9ctRSeaVb4hPekZZNCJQ+0x2898>
    3872:	49 8b 50 20          	mov    rdx,QWORD PTR [r8+0x20]
    3876:	48 89 57 f8          	mov    QWORD PTR [rdi-0x8],rdx
    387a:	49 8b 50 28          	mov    rdx,QWORD PTR [r8+0x28]
    387e:	49 89 48 20          	mov    QWORD PTR [r8+0x20],rcx
    3882:	48 39 d0             	cmp    rax,rdx
    3885:	0f 8f c5 01 00 00    	jg     3a50 <nimRawDispose+0x210>
    388b:	48 01 c2             	add    rdx,rax
    388e:	48 81 fa c8 0f 00 00 	cmp    rdx,0xfc8
    3895:	49 89 50 28          	mov    QWORD PTR [r8+0x28],rdx
    3899:	0f 84 a9 02 00 00    	je     3b48 <nimRawDispose+0x308>
    389f:	f3 c3                	repz ret 
    38a1:	0f 1f 80 00 00 00 00 	nop    DWORD PTR [rax+0x0]
    38a8:	48 83 ec 08          	sub    rsp,0x8
    38ac:	48 83 3d a4 18 21 00 	cmp    QWORD PTR [rip+0x2118a4],0x0        # 215158 <allocator__Het9ctRSeaVb4hPekZZNCJQ+0x30d8>
    38b3:	00 
    38b4:	48 89 15 5d 10 21 00 	mov    QWORD PTR [rip+0x21105d],rdx        # 214918 <allocator__Het9ctRSeaVb4hPekZZNCJQ+0x2898>
    38bb:	4c 8d 15 96 18 21 00 	lea    r10,[rip+0x211896]        # 215158 <allocator__Het9ctRSeaVb4hPekZZNCJQ+0x30d8>
    38c2:	0f 84 68 02 00 00    	je     3b30 <nimRawDispose+0x2f0>
    38c8:	48 8b 35 59 18 21 00 	mov    rsi,QWORD PTR [rip+0x211859]        # 215128 <allocator__Het9ctRSeaVb4hPekZZNCJQ+0x30a8>
    38cf:	4c 89 15 5a 18 21 00 	mov    QWORD PTR [rip+0x21185a],r10        # 215130 <allocator__Het9ctRSeaVb4hPekZZNCJQ+0x30b0>
    38d6:	48 3b 36             	cmp    rsi,QWORD PTR [rsi]
    38d9:	0f 84 49 01 00 00    	je     3a28 <nimRawDispose+0x1e8>
    38df:	4d 8d 58 20          	lea    r11,[r8+0x20]
    38e3:	48 89 35 4e 18 21 00 	mov    QWORD PTR [rip+0x21184e],rsi        # 215138 <allocator__Het9ctRSeaVb4hPekZZNCJQ+0x30b8>
    38ea:	4c 3b 5e 10          	cmp    r11,QWORD PTR [rsi+0x10]
    38ee:	0f 83 2c 02 00 00    	jae    3b20 <nimRawDispose+0x2e0>
    38f4:	48 8d 3d 85 e7 20 00 	lea    rdi,[rip+0x20e785]        # 212080 <allocator__Het9ctRSeaVb4hPekZZNCJQ>
    38fb:	4c 89 da             	mov    rdx,r11
    38fe:	e8 cd e5 ff ff       	call   1ed0 <del__Io5JDKCS5u26IEWw0J53hQ>
    3903:	48 8b 05 1e 18 21 00 	mov    rax,QWORD PTR [rip+0x21181e]        # 215128 <allocator__Het9ctRSeaVb4hPekZZNCJQ+0x30a8>
    390a:	48 3b 05 27 18 21 00 	cmp    rax,QWORD PTR [rip+0x211827]        # 215138 <allocator__Het9ctRSeaVb4hPekZZNCJQ+0x30b8>
    3911:	0f 84 b1 02 00 00    	je     3bc8 <nimRawDispose+0x388>
    3917:	48 8b 78 20          	mov    rdi,QWORD PTR [rax+0x20]
    391b:	48 8b 08             	mov    rcx,QWORD PTR [rax]
    391e:	48 8d 57 ff          	lea    rdx,[rdi-0x1]
    3922:	48 39 51 20          	cmp    QWORD PTR [rcx+0x20],rdx
    3926:	0f 8d 84 02 00 00    	jge    3bb0 <nimRawDispose+0x370>
    392c:	48 89 50 20          	mov    QWORD PTR [rax+0x20],rdx
    3930:	48 8b 05 f1 17 21 00 	mov    rax,QWORD PTR [rip+0x2117f1]        # 215128 <allocator__Het9ctRSeaVb4hPekZZNCJQ+0x30a8>
    3937:	48 8b 48 08          	mov    rcx,QWORD PTR [rax+0x8]
    393b:	48 8b 50 20          	mov    rdx,QWORD PTR [rax+0x20]
    393f:	48 3b 51 20          	cmp    rdx,QWORD PTR [rcx+0x20]
    3943:	0f 8c 17 03 00 00    	jl     3c60 <nimRawDispose+0x420>
    3949:	48 8b 08             	mov    rcx,QWORD PTR [rax]
    394c:	48 39 51 20          	cmp    QWORD PTR [rcx+0x20],rdx
    3950:	75 20                	jne    3972 <nimRawDispose+0x132>
    3952:	48 89 0d cf 17 21 00 	mov    QWORD PTR [rip+0x2117cf],rcx        # 215128 <allocator__Het9ctRSeaVb4hPekZZNCJQ+0x30a8>
    3959:	48 8b 51 08          	mov    rdx,QWORD PTR [rcx+0x8]
    395d:	48 89 10             	mov    QWORD PTR [rax],rdx
    3960:	48 8b 15 c1 17 21 00 	mov    rdx,QWORD PTR [rip+0x2117c1]        # 215128 <allocator__Het9ctRSeaVb4hPekZZNCJQ+0x30a8>
    3967:	48 89 42 08          	mov    QWORD PTR [rdx+0x8],rax
    396b:	48 8b 05 b6 17 21 00 	mov    rax,QWORD PTR [rip+0x2117b6]        # 215128 <allocator__Het9ctRSeaVb4hPekZZNCJQ+0x30a8>
    3972:	48 8b 50 08          	mov    rdx,QWORD PTR [rax+0x8]
    3976:	48 8b 0a             	mov    rcx,QWORD PTR [rdx]
    3979:	48 8b 72 20          	mov    rsi,QWORD PTR [rdx+0x20]
    397d:	48 39 71 20          	cmp    QWORD PTR [rcx+0x20],rsi
    3981:	75 1e                	jne    39a1 <nimRawDispose+0x161>
    3983:	48 89 48 08          	mov    QWORD PTR [rax+0x8],rcx
    3987:	48 8b 49 08          	mov    rcx,QWORD PTR [rcx+0x8]
    398b:	48 89 0a             	mov    QWORD PTR [rdx],rcx
    398e:	48 8b 40 08          	mov    rax,QWORD PTR [rax+0x8]
    3992:	48 89 50 08          	mov    QWORD PTR [rax+0x8],rdx
    3996:	48 8b 05 8b 17 21 00 	mov    rax,QWORD PTR [rip+0x21178b]        # 215128 <allocator__Het9ctRSeaVb4hPekZZNCJQ+0x30a8>
    399d:	48 8b 50 08          	mov    rdx,QWORD PTR [rax+0x8]
    39a1:	48 8b 4a 08          	mov    rcx,QWORD PTR [rdx+0x8]
    39a5:	48 8b 39             	mov    rdi,QWORD PTR [rcx]
    39a8:	48 8b 71 20          	mov    rsi,QWORD PTR [rcx+0x20]
    39ac:	48 39 77 20          	cmp    QWORD PTR [rdi+0x20],rsi
    39b0:	75 26                	jne    39d8 <nimRawDispose+0x198>
    39b2:	48 89 7a 08          	mov    QWORD PTR [rdx+0x8],rdi
    39b6:	48 8b 47 08          	mov    rax,QWORD PTR [rdi+0x8]
    39ba:	48 89 01             	mov    QWORD PTR [rcx],rax
    39bd:	48 8b 42 08          	mov    rax,QWORD PTR [rdx+0x8]
    39c1:	48 89 48 08          	mov    QWORD PTR [rax+0x8],rcx
    39c5:	48 8b 05 5c 17 21 00 	mov    rax,QWORD PTR [rip+0x21175c]        # 215128 <allocator__Het9ctRSeaVb4hPekZZNCJQ+0x30a8>
    39cc:	48 8b 50 08          	mov    rdx,QWORD PTR [rax+0x8]
    39d0:	48 8b 4a 08          	mov    rcx,QWORD PTR [rdx+0x8]
    39d4:	48 8b 71 20          	mov    rsi,QWORD PTR [rcx+0x20]
    39d8:	48 39 70 20          	cmp    QWORD PTR [rax+0x20],rsi
    39dc:	75 33                	jne    3a11 <nimRawDispose+0x1d1>
    39de:	48 89 15 43 17 21 00 	mov    QWORD PTR [rip+0x211743],rdx        # 215128 <allocator__Het9ctRSeaVb4hPekZZNCJQ+0x30a8>
    39e5:	48 8b 12             	mov    rdx,QWORD PTR [rdx]
    39e8:	48 89 50 08          	mov    QWORD PTR [rax+0x8],rdx
    39ec:	48 8b 15 35 17 21 00 	mov    rdx,QWORD PTR [rip+0x211735]        # 215128 <allocator__Het9ctRSeaVb4hPekZZNCJQ+0x30a8>
    39f3:	48 89 02             	mov    QWORD PTR [rdx],rax
    39f6:	48 8b 05 2b 17 21 00 	mov    rax,QWORD PTR [rip+0x21172b]        # 215128 <allocator__Het9ctRSeaVb4hPekZZNCJQ+0x30a8>
    39fd:	48 83 40 20 01       	add    QWORD PTR [rax+0x20],0x1
    3a02:	48 8b 05 1f 17 21 00 	mov    rax,QWORD PTR [rip+0x21171f]        # 215128 <allocator__Het9ctRSeaVb4hPekZZNCJQ+0x30a8>
    3a09:	48 8b 50 08          	mov    rdx,QWORD PTR [rax+0x8]
    3a0d:	48 8b 4a 08          	mov    rcx,QWORD PTR [rdx+0x8]
    3a11:	48 8b 71 08          	mov    rsi,QWORD PTR [rcx+0x8]
    3a15:	48 8b 7a 20          	mov    rdi,QWORD PTR [rdx+0x20]
    3a19:	48 39 7e 20          	cmp    QWORD PTR [rsi+0x20],rdi
    3a1d:	0f 84 55 02 00 00    	je     3c78 <nimRawDispose+0x438>
    3a23:	0f 1f 44 00 00       	nop    DWORD PTR [rax+rax*1+0x0]
    3a28:	49 8b 70 08          	mov    rsi,QWORD PTR [r8+0x8]
    3a2c:	48 81 fe 00 00 00 3f 	cmp    rsi,0x3f000000
    3a33:	7f 53                	jg     3a88 <nimRawDispose+0x248>
    3a35:	48 8d 3d 44 e6 20 00 	lea    rdi,[rip+0x20e644]        # 212080 <allocator__Het9ctRSeaVb4hPekZZNCJQ>
    3a3c:	4c 89 c6             	mov    rsi,r8
    3a3f:	48 83 c4 08          	add    rsp,0x8
    3a43:	e9 38 dd ff ff       	jmp    1780 <freeBigChunk__IPvsryqksLyNxxag3IQr2g>
    3a48:	0f 1f 84 00 00 00 00 	nop    DWORD PTR [rax+rax*1+0x0]
    3a4f:	00 
    3a50:	48 8d 50 07          	lea    rdx,[rax+0x7]
    3a54:	48 85 c0             	test   rax,rax
    3a57:	48 0f 49 d0          	cmovns rdx,rax
    3a5b:	48 c1 fa 03          	sar    rdx,0x3
    3a5f:	48 83 c2 02          	add    rdx,0x2
    3a63:	49 8b 0c d1          	mov    rcx,QWORD PTR [r9+rdx*8]
    3a67:	49 89 48 10          	mov    QWORD PTR [r8+0x10],rcx
    3a6b:	49 8b 0c d1          	mov    rcx,QWORD PTR [r9+rdx*8]
    3a6f:	48 85 c9             	test   rcx,rcx
    3a72:	74 04                	je     3a78 <nimRawDispose+0x238>
    3a74:	4c 89 41 18          	mov    QWORD PTR [rcx+0x18],r8
    3a78:	4d 89 04 d1          	mov    QWORD PTR [r9+rdx*8],r8
    3a7c:	49 01 40 28          	add    QWORD PTR [r8+0x28],rax
    3a80:	c3                   	ret    
    3a81:	0f 1f 80 00 00 00 00 	nop    DWORD PTR [rax+0x0]
    3a88:	4c 89 c2             	mov    rdx,r8
    3a8b:	48 c1 fa 15          	sar    rdx,0x15
    3a8f:	0f b6 c2             	movzx  eax,dl
    3a92:	49 8b 84 c1 a8 28 00 	mov    rax,QWORD PTR [r9+rax*8+0x28a8]
    3a99:	00 
    3a9a:	48 85 c0             	test   rax,rax
    3a9d:	74 2d                	je     3acc <nimRawDispose+0x28c>
    3a9f:	48 39 50 08          	cmp    QWORD PTR [rax+0x8],rdx
    3aa3:	75 69                	jne    3b0e <nimRawDispose+0x2ce>
    3aa5:	0f 1f 00             	nop    DWORD PTR [rax]
    3aa8:	4c 89 c1             	mov    rcx,r8
    3aab:	ba 01 00 00 00       	mov    edx,0x1
    3ab0:	48 c1 f9 0c          	sar    rcx,0xc
    3ab4:	81 e1 ff 01 00 00    	and    ecx,0x1ff
    3aba:	48 89 cf             	mov    rdi,rcx
    3abd:	48 d3 e2             	shl    rdx,cl
    3ac0:	48 c1 ff 06          	sar    rdi,0x6
    3ac4:	48 f7 d2             	not    rdx
    3ac7:	48 21 54 f8 10       	and    QWORD PTR [rax+rdi*8+0x10],rdx
    3acc:	48 8b 05 2d 0e 21 00 	mov    rax,QWORD PTR [rip+0x210e2d]        # 214900 <allocator__Het9ctRSeaVb4hPekZZNCJQ+0x2880>
    3ad3:	48 39 05 2e 0e 21 00 	cmp    QWORD PTR [rip+0x210e2e],rax        # 214908 <allocator__Het9ctRSeaVb4hPekZZNCJQ+0x2888>
    3ada:	4c 89 c7             	mov    rdi,r8
    3add:	48 89 c2             	mov    rdx,rax
    3ae0:	48 0f 4d 15 20 0e 21 	cmovge rdx,QWORD PTR [rip+0x210e20]        # 214908 <allocator__Het9ctRSeaVb4hPekZZNCJQ+0x2888>
    3ae7:	00 
    3ae8:	48 29 f0             	sub    rax,rsi
    3aeb:	48 89 05 0e 0e 21 00 	mov    QWORD PTR [rip+0x210e0e],rax        # 214900 <allocator__Het9ctRSeaVb4hPekZZNCJQ+0x2880>
    3af2:	48 89 15 0f 0e 21 00 	mov    QWORD PTR [rip+0x210e0f],rdx        # 214908 <allocator__Het9ctRSeaVb4hPekZZNCJQ+0x2888>
    3af9:	48 83 c4 08          	add    rsp,0x8
    3afd:	e9 de ce ff ff       	jmp    9e0 <munmap@plt>
    3b02:	66 0f 1f 44 00 00    	nop    WORD PTR [rax+rax*1+0x0]
    3b08:	48 3b 50 08          	cmp    rdx,QWORD PTR [rax+0x8]
    3b0c:	74 9a                	je     3aa8 <nimRawDispose+0x268>
    3b0e:	48 8b 00             	mov    rax,QWORD PTR [rax]
    3b11:	48 85 c0             	test   rax,rax
    3b14:	75 f2                	jne    3b08 <nimRawDispose+0x2c8>
    3b16:	eb b4                	jmp    3acc <nimRawDispose+0x28c>
    3b18:	0f 1f 84 00 00 00 00 	nop    DWORD PTR [rax+rax*1+0x0]
    3b1f:	00 
    3b20:	48 89 35 09 16 21 00 	mov    QWORD PTR [rip+0x211609],rsi        # 215130 <allocator__Het9ctRSeaVb4hPekZZNCJQ+0x30b0>
    3b27:	48 83 c6 08          	add    rsi,0x8
    3b2b:	e9 c4 fd ff ff       	jmp    38f4 <nimRawDispose+0xb4>
    3b30:	4c 89 15 21 16 21 00 	mov    QWORD PTR [rip+0x211621],r10        # 215158 <allocator__Het9ctRSeaVb4hPekZZNCJQ+0x30d8>
    3b37:	4c 89 15 22 16 21 00 	mov    QWORD PTR [rip+0x211622],r10        # 215160 <allocator__Het9ctRSeaVb4hPekZZNCJQ+0x30e0>
    3b3e:	e9 85 fd ff ff       	jmp    38c8 <nimRawDispose+0x88>
    3b43:	0f 1f 44 00 00       	nop    DWORD PTR [rax+rax*1+0x0]
    3b48:	48 8d 50 07          	lea    rdx,[rax+0x7]
    3b4c:	48 85 c0             	test   rax,rax
    3b4f:	48 0f 48 c2          	cmovs  rax,rdx
    3b53:	49 8b 50 10          	mov    rdx,QWORD PTR [r8+0x10]
    3b57:	48 c1 f8 03          	sar    rax,0x3
    3b5b:	48 83 c0 02          	add    rax,0x2
    3b5f:	4d 3b 04 c1          	cmp    r8,QWORD PTR [r9+rax*8]
    3b63:	0f 84 37 01 00 00    	je     3ca0 <nimRawDispose+0x460>
    3b69:	49 8b 40 18          	mov    rax,QWORD PTR [r8+0x18]
    3b6d:	48 89 50 10          	mov    QWORD PTR [rax+0x10],rdx
    3b71:	49 8b 40 10          	mov    rax,QWORD PTR [r8+0x10]
    3b75:	48 85 c0             	test   rax,rax
    3b78:	74 08                	je     3b82 <nimRawDispose+0x342>
    3b7a:	49 8b 50 18          	mov    rdx,QWORD PTR [r8+0x18]
    3b7e:	48 89 50 18          	mov    QWORD PTR [rax+0x18],rdx
    3b82:	48 8d 3d f7 e4 20 00 	lea    rdi,[rip+0x20e4f7]        # 212080 <allocator__Het9ctRSeaVb4hPekZZNCJQ>
    3b89:	49 c7 40 10 00 00 00 	mov    QWORD PTR [r8+0x10],0x0
    3b90:	00 
    3b91:	49 c7 40 18 00 00 00 	mov    QWORD PTR [r8+0x18],0x0
    3b98:	00 
    3b99:	49 c7 40 08 00 10 00 	mov    QWORD PTR [r8+0x8],0x1000
    3ba0:	00 
    3ba1:	4c 89 c6             	mov    rsi,r8
    3ba4:	e9 d7 db ff ff       	jmp    1780 <freeBigChunk__IPvsryqksLyNxxag3IQr2g>
    3ba9:	0f 1f 80 00 00 00 00 	nop    DWORD PTR [rax+0x0]
    3bb0:	48 8b 48 08          	mov    rcx,QWORD PTR [rax+0x8]
    3bb4:	48 3b 51 20          	cmp    rdx,QWORD PTR [rcx+0x20]
    3bb8:	0f 8e 6a fe ff ff    	jle    3a28 <nimRawDispose+0x1e8>
    3bbe:	e9 69 fd ff ff       	jmp    392c <nimRawDispose+0xec>
    3bc3:	0f 1f 44 00 00       	nop    DWORD PTR [rax+rax*1+0x0]
    3bc8:	48 8b 15 61 15 21 00 	mov    rdx,QWORD PTR [rip+0x211561]        # 215130 <allocator__Het9ctRSeaVb4hPekZZNCJQ+0x30b0>
    3bcf:	48 3b 12             	cmp    rdx,QWORD PTR [rdx]
    3bd2:	0f 84 3f fd ff ff    	je     3917 <nimRawDispose+0xd7>
    3bd8:	4c 3b 5a 10          	cmp    r11,QWORD PTR [rdx+0x10]
    3bdc:	0f 85 35 fd ff ff    	jne    3917 <nimRawDispose+0xd7>
    3be2:	48 8b 40 10          	mov    rax,QWORD PTR [rax+0x10]
    3be6:	48 89 42 10          	mov    QWORD PTR [rdx+0x10],rax
    3bea:	48 8b 05 37 15 21 00 	mov    rax,QWORD PTR [rip+0x211537]        # 215128 <allocator__Het9ctRSeaVb4hPekZZNCJQ+0x30a8>
    3bf1:	48 8b 50 18          	mov    rdx,QWORD PTR [rax+0x18]
    3bf5:	48 8b 05 34 15 21 00 	mov    rax,QWORD PTR [rip+0x211534]        # 215130 <allocator__Het9ctRSeaVb4hPekZZNCJQ+0x30b0>
    3bfc:	48 89 50 18          	mov    QWORD PTR [rax+0x18],rdx
    3c00:	48 83 3d 50 15 21 00 	cmp    QWORD PTR [rip+0x211550],0x0        # 215158 <allocator__Het9ctRSeaVb4hPekZZNCJQ+0x30d8>
    3c07:	00 
    3c08:	75 0e                	jne    3c18 <nimRawDispose+0x3d8>
    3c0a:	4c 89 15 47 15 21 00 	mov    QWORD PTR [rip+0x211547],r10        # 215158 <allocator__Het9ctRSeaVb4hPekZZNCJQ+0x30d8>
    3c11:	4c 89 15 48 15 21 00 	mov    QWORD PTR [rip+0x211548],r10        # 215160 <allocator__Het9ctRSeaVb4hPekZZNCJQ+0x30e0>
    3c18:	48 8b 05 09 15 21 00 	mov    rax,QWORD PTR [rip+0x211509]        # 215128 <allocator__Het9ctRSeaVb4hPekZZNCJQ+0x30a8>
    3c1f:	4c 89 15 0a 15 21 00 	mov    QWORD PTR [rip+0x21150a],r10        # 215130 <allocator__Het9ctRSeaVb4hPekZZNCJQ+0x30b0>
    3c26:	48 8b 15 13 15 21 00 	mov    rdx,QWORD PTR [rip+0x211513]        # 215140 <allocator__Het9ctRSeaVb4hPekZZNCJQ+0x30c0>
    3c2d:	48 8b 40 08          	mov    rax,QWORD PTR [rax+0x8]
    3c31:	48 89 05 f0 14 21 00 	mov    QWORD PTR [rip+0x2114f0],rax        # 215128 <allocator__Het9ctRSeaVb4hPekZZNCJQ+0x30a8>
    3c38:	48 8b 05 f9 14 21 00 	mov    rax,QWORD PTR [rip+0x2114f9]        # 215138 <allocator__Het9ctRSeaVb4hPekZZNCJQ+0x30b8>
    3c3f:	48 89 10             	mov    QWORD PTR [rax],rdx
    3c42:	48 89 05 f7 14 21 00 	mov    QWORD PTR [rip+0x2114f7],rax        # 215140 <allocator__Het9ctRSeaVb4hPekZZNCJQ+0x30c0>
    3c49:	49 8b 70 08          	mov    rsi,QWORD PTR [r8+0x8]
    3c4d:	48 81 fe 00 00 00 3f 	cmp    rsi,0x3f000000
    3c54:	0f 8e db fd ff ff    	jle    3a35 <nimRawDispose+0x1f5>
    3c5a:	e9 29 fe ff ff       	jmp    3a88 <nimRawDispose+0x248>
    3c5f:	90                   	nop
    3c60:	48 89 51 20          	mov    QWORD PTR [rcx+0x20],rdx
    3c64:	48 8b 05 bd 14 21 00 	mov    rax,QWORD PTR [rip+0x2114bd]        # 215128 <allocator__Het9ctRSeaVb4hPekZZNCJQ+0x30a8>
    3c6b:	48 8b 50 20          	mov    rdx,QWORD PTR [rax+0x20]
    3c6f:	e9 d5 fc ff ff       	jmp    3949 <nimRawDispose+0x109>
    3c74:	0f 1f 40 00          	nop    DWORD PTR [rax+0x0]
    3c78:	48 89 48 08          	mov    QWORD PTR [rax+0x8],rcx
    3c7c:	48 8b 09             	mov    rcx,QWORD PTR [rcx]
    3c7f:	48 89 4a 08          	mov    QWORD PTR [rdx+0x8],rcx
    3c83:	48 8b 48 08          	mov    rcx,QWORD PTR [rax+0x8]
    3c87:	48 89 11             	mov    QWORD PTR [rcx],rdx
    3c8a:	48 8b 40 08          	mov    rax,QWORD PTR [rax+0x8]
    3c8e:	48 83 40 20 01       	add    QWORD PTR [rax+0x20],0x1
    3c93:	e9 90 fd ff ff       	jmp    3a28 <nimRawDispose+0x1e8>
    3c98:	0f 1f 84 00 00 00 00 	nop    DWORD PTR [rax+rax*1+0x0]
    3c9f:	00 
    3ca0:	48 85 d2             	test   rdx,rdx
    3ca3:	49 89 14 c1          	mov    QWORD PTR [r9+rax*8],rdx
    3ca7:	0f 84 d5 fe ff ff    	je     3b82 <nimRawDispose+0x342>
    3cad:	48 c7 42 18 00 00 00 	mov    QWORD PTR [rdx+0x18],0x0
    3cb4:	00 
    3cb5:	e9 c8 fe ff ff       	jmp    3b82 <nimRawDispose+0x342>
    3cba:	66 0f 1f 44 00 00    	nop    WORD PTR [rax+rax*1+0x0]

0000000000003cc0 <nimDestroyAndDispose>:
    3cc0:	53                   	push   rbx
    3cc1:	48 8b 07             	mov    rax,QWORD PTR [rdi]
    3cc4:	48 89 fb             	mov    rbx,rdi
    3cc7:	48 8b 00             	mov    rax,QWORD PTR [rax]
    3cca:	48 85 c0             	test   rax,rax
    3ccd:	74 10                	je     3cdf <nimDestroyAndDispose+0x1f>
    3ccf:	ff d0                	call   rax
    3cd1:	48 83 3d 37 17 21 00 	cmp    QWORD PTR [rip+0x211737],0x0        # 215410 <nimInErrorMode__759bT87luu8XGcbkw13FUjA>
    3cd8:	00 
    3cd9:	0f 85 1d 02 00 00    	jne    3efc <nimDestroyAndDispose+0x23c>
    3cdf:	48 8d 4b f8          	lea    rcx,[rbx-0x8]
    3ce3:	48 8b 15 2e 0c 21 00 	mov    rdx,QWORD PTR [rip+0x210c2e]        # 214918 <allocator__Het9ctRSeaVb4hPekZZNCJQ+0x2898>
    3cea:	4c 8d 0d 8f e3 20 00 	lea    r9,[rip+0x20e38f]        # 212080 <allocator__Het9ctRSeaVb4hPekZZNCJQ>
    3cf1:	49 89 c8             	mov    r8,rcx
    3cf4:	49 81 e0 00 f0 ff ff 	and    r8,0xfffffffffffff000
    3cfb:	49 8b 40 08          	mov    rax,QWORD PTR [r8+0x8]
    3cff:	48 29 c2             	sub    rdx,rax
    3d02:	48 3d c8 0f 00 00    	cmp    rax,0xfc8
    3d08:	0f 8e a2 01 00 00    	jle    3eb0 <nimDestroyAndDispose+0x1f0>
    3d0e:	48 83 3d 42 14 21 00 	cmp    QWORD PTR [rip+0x211442],0x0        # 215158 <allocator__Het9ctRSeaVb4hPekZZNCJQ+0x30d8>
    3d15:	00 
    3d16:	48 89 15 fb 0b 21 00 	mov    QWORD PTR [rip+0x210bfb],rdx        # 214918 <allocator__Het9ctRSeaVb4hPekZZNCJQ+0x2898>
    3d1d:	4c 8d 15 34 14 21 00 	lea    r10,[rip+0x211434]        # 215158 <allocator__Het9ctRSeaVb4hPekZZNCJQ+0x30d8>
    3d24:	0f 84 1e 03 00 00    	je     4048 <nimDestroyAndDispose+0x388>
    3d2a:	48 8b 35 f7 13 21 00 	mov    rsi,QWORD PTR [rip+0x2113f7]        # 215128 <allocator__Het9ctRSeaVb4hPekZZNCJQ+0x30a8>
    3d31:	4c 89 15 f8 13 21 00 	mov    QWORD PTR [rip+0x2113f8],r10        # 215130 <allocator__Het9ctRSeaVb4hPekZZNCJQ+0x30b0>
    3d38:	48 3b 36             	cmp    rsi,QWORD PTR [rsi]
    3d3b:	0f 84 47 01 00 00    	je     3e88 <nimDestroyAndDispose+0x1c8>
    3d41:	4d 8d 58 20          	lea    r11,[r8+0x20]
    3d45:	48 89 35 ec 13 21 00 	mov    QWORD PTR [rip+0x2113ec],rsi        # 215138 <allocator__Het9ctRSeaVb4hPekZZNCJQ+0x30b8>
    3d4c:	4c 3b 5e 10          	cmp    r11,QWORD PTR [rsi+0x10]
    3d50:	0f 83 92 02 00 00    	jae    3fe8 <nimDestroyAndDispose+0x328>
    3d56:	48 8d 3d 23 e3 20 00 	lea    rdi,[rip+0x20e323]        # 212080 <allocator__Het9ctRSeaVb4hPekZZNCJQ>
    3d5d:	4c 89 da             	mov    rdx,r11
    3d60:	e8 6b e1 ff ff       	call   1ed0 <del__Io5JDKCS5u26IEWw0J53hQ>
    3d65:	48 8b 05 bc 13 21 00 	mov    rax,QWORD PTR [rip+0x2113bc]        # 215128 <allocator__Het9ctRSeaVb4hPekZZNCJQ+0x30a8>
    3d6c:	48 3b 05 c5 13 21 00 	cmp    rax,QWORD PTR [rip+0x2113c5]        # 215138 <allocator__Het9ctRSeaVb4hPekZZNCJQ+0x30b8>
    3d73:	0f 84 e7 02 00 00    	je     4060 <nimDestroyAndDispose+0x3a0>
    3d79:	48 8b 78 20          	mov    rdi,QWORD PTR [rax+0x20]
    3d7d:	48 8b 08             	mov    rcx,QWORD PTR [rax]
    3d80:	48 8d 57 ff          	lea    rdx,[rdi-0x1]
    3d84:	48 39 51 20          	cmp    QWORD PTR [rcx+0x20],rdx
    3d88:	0f 8d 72 02 00 00    	jge    4000 <nimDestroyAndDispose+0x340>
    3d8e:	48 89 50 20          	mov    QWORD PTR [rax+0x20],rdx
    3d92:	48 8b 05 8f 13 21 00 	mov    rax,QWORD PTR [rip+0x21138f]        # 215128 <allocator__Het9ctRSeaVb4hPekZZNCJQ+0x30a8>
    3d99:	48 8b 48 08          	mov    rcx,QWORD PTR [rax+0x8]
    3d9d:	48 8b 50 20          	mov    rdx,QWORD PTR [rax+0x20]
    3da1:	48 3b 51 20          	cmp    rdx,QWORD PTR [rcx+0x20]
    3da5:	0f 8c 45 03 00 00    	jl     40f0 <nimDestroyAndDispose+0x430>
    3dab:	48 8b 08             	mov    rcx,QWORD PTR [rax]
    3dae:	48 39 51 20          	cmp    QWORD PTR [rcx+0x20],rdx
    3db2:	75 20                	jne    3dd4 <nimDestroyAndDispose+0x114>
    3db4:	48 89 0d 6d 13 21 00 	mov    QWORD PTR [rip+0x21136d],rcx        # 215128 <allocator__Het9ctRSeaVb4hPekZZNCJQ+0x30a8>
    3dbb:	48 8b 51 08          	mov    rdx,QWORD PTR [rcx+0x8]
    3dbf:	48 89 10             	mov    QWORD PTR [rax],rdx
    3dc2:	48 8b 15 5f 13 21 00 	mov    rdx,QWORD PTR [rip+0x21135f]        # 215128 <allocator__Het9ctRSeaVb4hPekZZNCJQ+0x30a8>
    3dc9:	48 89 42 08          	mov    QWORD PTR [rdx+0x8],rax
    3dcd:	48 8b 05 54 13 21 00 	mov    rax,QWORD PTR [rip+0x211354]        # 215128 <allocator__Het9ctRSeaVb4hPekZZNCJQ+0x30a8>
    3dd4:	48 8b 50 08          	mov    rdx,QWORD PTR [rax+0x8]
    3dd8:	48 8b 0a             	mov    rcx,QWORD PTR [rdx]
    3ddb:	48 8b 7a 20          	mov    rdi,QWORD PTR [rdx+0x20]
    3ddf:	48 39 79 20          	cmp    QWORD PTR [rcx+0x20],rdi
    3de3:	75 1e                	jne    3e03 <nimDestroyAndDispose+0x143>
    3de5:	48 89 48 08          	mov    QWORD PTR [rax+0x8],rcx
    3de9:	48 8b 49 08          	mov    rcx,QWORD PTR [rcx+0x8]
    3ded:	48 89 0a             	mov    QWORD PTR [rdx],rcx
    3df0:	48 8b 40 08          	mov    rax,QWORD PTR [rax+0x8]
    3df4:	48 89 50 08          	mov    QWORD PTR [rax+0x8],rdx
    3df8:	48 8b 05 29 13 21 00 	mov    rax,QWORD PTR [rip+0x211329]        # 215128 <allocator__Het9ctRSeaVb4hPekZZNCJQ+0x30a8>
    3dff:	48 8b 50 08          	mov    rdx,QWORD PTR [rax+0x8]
    3e03:	48 8b 4a 08          	mov    rcx,QWORD PTR [rdx+0x8]
    3e07:	48 8b 39             	mov    rdi,QWORD PTR [rcx]
    3e0a:	48 8b 71 20          	mov    rsi,QWORD PTR [rcx+0x20]
    3e0e:	48 39 77 20          	cmp    QWORD PTR [rdi+0x20],rsi
    3e12:	75 26                	jne    3e3a <nimDestroyAndDispose+0x17a>
    3e14:	48 89 7a 08          	mov    QWORD PTR [rdx+0x8],rdi
    3e18:	48 8b 47 08          	mov    rax,QWORD PTR [rdi+0x8]
    3e1c:	48 89 01             	mov    QWORD PTR [rcx],rax
    3e1f:	48 8b 42 08          	mov    rax,QWORD PTR [rdx+0x8]
    3e23:	48 89 48 08          	mov    QWORD PTR [rax+0x8],rcx
    3e27:	48 8b 05 fa 12 21 00 	mov    rax,QWORD PTR [rip+0x2112fa]        # 215128 <allocator__Het9ctRSeaVb4hPekZZNCJQ+0x30a8>
    3e2e:	48 8b 50 08          	mov    rdx,QWORD PTR [rax+0x8]
    3e32:	48 8b 4a 08          	mov    rcx,QWORD PTR [rdx+0x8]
    3e36:	48 8b 71 20          	mov    rsi,QWORD PTR [rcx+0x20]
    3e3a:	48 39 70 20          	cmp    QWORD PTR [rax+0x20],rsi
    3e3e:	75 33                	jne    3e73 <nimDestroyAndDispose+0x1b3>
    3e40:	48 89 15 e1 12 21 00 	mov    QWORD PTR [rip+0x2112e1],rdx        # 215128 <allocator__Het9ctRSeaVb4hPekZZNCJQ+0x30a8>
    3e47:	48 8b 12             	mov    rdx,QWORD PTR [rdx]
    3e4a:	48 89 50 08          	mov    QWORD PTR [rax+0x8],rdx
    3e4e:	48 8b 15 d3 12 21 00 	mov    rdx,QWORD PTR [rip+0x2112d3]        # 215128 <allocator__Het9ctRSeaVb4hPekZZNCJQ+0x30a8>
    3e55:	48 89 02             	mov    QWORD PTR [rdx],rax
    3e58:	48 8b 05 c9 12 21 00 	mov    rax,QWORD PTR [rip+0x2112c9]        # 215128 <allocator__Het9ctRSeaVb4hPekZZNCJQ+0x30a8>
    3e5f:	48 83 40 20 01       	add    QWORD PTR [rax+0x20],0x1
    3e64:	48 8b 05 bd 12 21 00 	mov    rax,QWORD PTR [rip+0x2112bd]        # 215128 <allocator__Het9ctRSeaVb4hPekZZNCJQ+0x30a8>
    3e6b:	48 8b 50 08          	mov    rdx,QWORD PTR [rax+0x8]
    3e6f:	48 8b 4a 08          	mov    rcx,QWORD PTR [rdx+0x8]
    3e73:	48 8b 71 08          	mov    rsi,QWORD PTR [rcx+0x8]
    3e77:	48 8b 5a 20          	mov    rbx,QWORD PTR [rdx+0x20]
    3e7b:	48 39 5e 20          	cmp    QWORD PTR [rsi+0x20],rbx
    3e7f:	0f 84 83 02 00 00    	je     4108 <nimDestroyAndDispose+0x448>
    3e85:	0f 1f 00             	nop    DWORD PTR [rax]
    3e88:	49 8b 70 08          	mov    rsi,QWORD PTR [r8+0x8]
    3e8c:	48 81 fe 00 00 00 3f 	cmp    rsi,0x3f000000
    3e93:	0f 8f df 00 00 00    	jg     3f78 <nimDestroyAndDispose+0x2b8>
    3e99:	5b                   	pop    rbx
    3e9a:	48 8d 3d df e1 20 00 	lea    rdi,[rip+0x20e1df]        # 212080 <allocator__Het9ctRSeaVb4hPekZZNCJQ>
    3ea1:	4c 89 c6             	mov    rsi,r8
    3ea4:	e9 d7 d8 ff ff       	jmp    1780 <freeBigChunk__IPvsryqksLyNxxag3IQr2g>
    3ea9:	0f 1f 80 00 00 00 00 	nop    DWORD PTR [rax+0x0]
    3eb0:	48 89 15 61 0a 21 00 	mov    QWORD PTR [rip+0x210a61],rdx        # 214918 <allocator__Het9ctRSeaVb4hPekZZNCJQ+0x2898>
    3eb7:	49 8b 50 20          	mov    rdx,QWORD PTR [r8+0x20]
    3ebb:	48 89 53 f8          	mov    QWORD PTR [rbx-0x8],rdx
    3ebf:	49 8b 50 28          	mov    rdx,QWORD PTR [r8+0x28]
    3ec3:	49 89 48 20          	mov    QWORD PTR [r8+0x20],rcx
    3ec7:	48 39 d0             	cmp    rax,rdx
    3eca:	7e 34                	jle    3f00 <nimDestroyAndDispose+0x240>
    3ecc:	48 8d 50 07          	lea    rdx,[rax+0x7]
    3ed0:	48 85 c0             	test   rax,rax
    3ed3:	48 0f 49 d0          	cmovns rdx,rax
    3ed7:	48 c1 fa 03          	sar    rdx,0x3
    3edb:	48 83 c2 02          	add    rdx,0x2
    3edf:	49 8b 0c d1          	mov    rcx,QWORD PTR [r9+rdx*8]
    3ee3:	49 89 48 10          	mov    QWORD PTR [r8+0x10],rcx
    3ee7:	49 8b 0c d1          	mov    rcx,QWORD PTR [r9+rdx*8]
    3eeb:	48 85 c9             	test   rcx,rcx
    3eee:	74 04                	je     3ef4 <nimDestroyAndDispose+0x234>
    3ef0:	4c 89 41 18          	mov    QWORD PTR [rcx+0x18],r8
    3ef4:	4d 89 04 d1          	mov    QWORD PTR [r9+rdx*8],r8
    3ef8:	49 01 40 28          	add    QWORD PTR [r8+0x28],rax
    3efc:	5b                   	pop    rbx
    3efd:	c3                   	ret    
    3efe:	66 90                	xchg   ax,ax
    3f00:	48 01 c2             	add    rdx,rax
    3f03:	48 81 fa c8 0f 00 00 	cmp    rdx,0xfc8
    3f0a:	49 89 50 28          	mov    QWORD PTR [r8+0x28],rdx
    3f0e:	75 ec                	jne    3efc <nimDestroyAndDispose+0x23c>
    3f10:	48 8d 50 07          	lea    rdx,[rax+0x7]
    3f14:	48 85 c0             	test   rax,rax
    3f17:	48 0f 48 c2          	cmovs  rax,rdx
    3f1b:	49 8b 50 10          	mov    rdx,QWORD PTR [r8+0x10]
    3f1f:	48 c1 f8 03          	sar    rax,0x3
    3f23:	48 83 c0 02          	add    rax,0x2
    3f27:	4d 3b 04 c1          	cmp    r8,QWORD PTR [r9+rax*8]
    3f2b:	0f 84 ff 01 00 00    	je     4130 <nimDestroyAndDispose+0x470>
    3f31:	49 8b 40 18          	mov    rax,QWORD PTR [r8+0x18]
    3f35:	48 89 50 10          	mov    QWORD PTR [rax+0x10],rdx
    3f39:	49 8b 40 10          	mov    rax,QWORD PTR [r8+0x10]
    3f3d:	48 85 c0             	test   rax,rax
    3f40:	74 08                	je     3f4a <nimDestroyAndDispose+0x28a>
    3f42:	49 8b 50 18          	mov    rdx,QWORD PTR [r8+0x18]
    3f46:	48 89 50 18          	mov    QWORD PTR [rax+0x18],rdx
    3f4a:	49 c7 40 10 00 00 00 	mov    QWORD PTR [r8+0x10],0x0
    3f51:	00 
    3f52:	49 c7 40 18 00 00 00 	mov    QWORD PTR [r8+0x18],0x0
    3f59:	00 
    3f5a:	48 8d 3d 1f e1 20 00 	lea    rdi,[rip+0x20e11f]        # 212080 <allocator__Het9ctRSeaVb4hPekZZNCJQ>
    3f61:	49 c7 40 08 00 10 00 	mov    QWORD PTR [r8+0x8],0x1000
    3f68:	00 
    3f69:	4c 89 c6             	mov    rsi,r8
    3f6c:	5b                   	pop    rbx
    3f6d:	e9 0e d8 ff ff       	jmp    1780 <freeBigChunk__IPvsryqksLyNxxag3IQr2g>
    3f72:	66 0f 1f 44 00 00    	nop    WORD PTR [rax+rax*1+0x0]
    3f78:	4c 89 c2             	mov    rdx,r8
    3f7b:	48 c1 fa 15          	sar    rdx,0x15
    3f7f:	0f b6 c2             	movzx  eax,dl
    3f82:	49 8b 84 c1 a8 28 00 	mov    rax,QWORD PTR [r9+rax*8+0x28a8]
    3f89:	00 
    3f8a:	48 85 c0             	test   rax,rax
    3f8d:	74 1f                	je     3fae <nimDestroyAndDispose+0x2ee>
    3f8f:	48 39 50 08          	cmp    QWORD PTR [rax+0x8],rdx
    3f93:	75 11                	jne    3fa6 <nimDestroyAndDispose+0x2e6>
    3f95:	e9 7e 00 00 00       	jmp    4018 <nimDestroyAndDispose+0x358>
    3f9a:	66 0f 1f 44 00 00    	nop    WORD PTR [rax+rax*1+0x0]
    3fa0:	48 3b 50 08          	cmp    rdx,QWORD PTR [rax+0x8]
    3fa4:	74 72                	je     4018 <nimDestroyAndDispose+0x358>
    3fa6:	48 8b 00             	mov    rax,QWORD PTR [rax]
    3fa9:	48 85 c0             	test   rax,rax
    3fac:	75 f2                	jne    3fa0 <nimDestroyAndDispose+0x2e0>
    3fae:	48 8b 05 4b 09 21 00 	mov    rax,QWORD PTR [rip+0x21094b]        # 214900 <allocator__Het9ctRSeaVb4hPekZZNCJQ+0x2880>
    3fb5:	48 39 05 4c 09 21 00 	cmp    QWORD PTR [rip+0x21094c],rax        # 214908 <allocator__Het9ctRSeaVb4hPekZZNCJQ+0x2888>
    3fbc:	4c 89 c7             	mov    rdi,r8
    3fbf:	5b                   	pop    rbx
    3fc0:	48 89 c2             	mov    rdx,rax
    3fc3:	48 0f 4d 15 3d 09 21 	cmovge rdx,QWORD PTR [rip+0x21093d]        # 214908 <allocator__Het9ctRSeaVb4hPekZZNCJQ+0x2888>
    3fca:	00 
    3fcb:	48 29 f0             	sub    rax,rsi
    3fce:	48 89 05 2b 09 21 00 	mov    QWORD PTR [rip+0x21092b],rax        # 214900 <allocator__Het9ctRSeaVb4hPekZZNCJQ+0x2880>
    3fd5:	48 89 15 2c 09 21 00 	mov    QWORD PTR [rip+0x21092c],rdx        # 214908 <allocator__Het9ctRSeaVb4hPekZZNCJQ+0x2888>
    3fdc:	e9 ff c9 ff ff       	jmp    9e0 <munmap@plt>
    3fe1:	0f 1f 80 00 00 00 00 	nop    DWORD PTR [rax+0x0]
    3fe8:	48 89 35 41 11 21 00 	mov    QWORD PTR [rip+0x211141],rsi        # 215130 <allocator__Het9ctRSeaVb4hPekZZNCJQ+0x30b0>
    3fef:	48 83 c6 08          	add    rsi,0x8
    3ff3:	e9 5e fd ff ff       	jmp    3d56 <nimDestroyAndDispose+0x96>
    3ff8:	0f 1f 84 00 00 00 00 	nop    DWORD PTR [rax+rax*1+0x0]
    3fff:	00 
    4000:	48 8b 48 08          	mov    rcx,QWORD PTR [rax+0x8]
    4004:	48 3b 51 20          	cmp    rdx,QWORD PTR [rcx+0x20]
    4008:	0f 8e 7a fe ff ff    	jle    3e88 <nimDestroyAndDispose+0x1c8>
    400e:	e9 7b fd ff ff       	jmp    3d8e <nimDestroyAndDispose+0xce>
    4013:	0f 1f 44 00 00       	nop    DWORD PTR [rax+rax*1+0x0]
    4018:	4c 89 c1             	mov    rcx,r8
    401b:	ba 01 00 00 00       	mov    edx,0x1
    4020:	48 c1 f9 0c          	sar    rcx,0xc
    4024:	81 e1 ff 01 00 00    	and    ecx,0x1ff
    402a:	48 89 cf             	mov    rdi,rcx
    402d:	48 d3 e2             	shl    rdx,cl
    4030:	48 c1 ff 06          	sar    rdi,0x6
    4034:	48 f7 d2             	not    rdx
    4037:	48 21 54 f8 10       	and    QWORD PTR [rax+rdi*8+0x10],rdx
    403c:	e9 6d ff ff ff       	jmp    3fae <nimDestroyAndDispose+0x2ee>
    4041:	0f 1f 80 00 00 00 00 	nop    DWORD PTR [rax+0x0]
    4048:	4c 89 15 09 11 21 00 	mov    QWORD PTR [rip+0x211109],r10        # 215158 <allocator__Het9ctRSeaVb4hPekZZNCJQ+0x30d8>
    404f:	4c 89 15 0a 11 21 00 	mov    QWORD PTR [rip+0x21110a],r10        # 215160 <allocator__Het9ctRSeaVb4hPekZZNCJQ+0x30e0>
    4056:	e9 cf fc ff ff       	jmp    3d2a <nimDestroyAndDispose+0x6a>
    405b:	0f 1f 44 00 00       	nop    DWORD PTR [rax+rax*1+0x0]
    4060:	48 8b 15 c9 10 21 00 	mov    rdx,QWORD PTR [rip+0x2110c9]        # 215130 <allocator__Het9ctRSeaVb4hPekZZNCJQ+0x30b0>
    4067:	48 3b 12             	cmp    rdx,QWORD PTR [rdx]
    406a:	0f 84 09 fd ff ff    	je     3d79 <nimDestroyAndDispose+0xb9>
    4070:	4c 3b 5a 10          	cmp    r11,QWORD PTR [rdx+0x10]
    4074:	0f 85 ff fc ff ff    	jne    3d79 <nimDestroyAndDispose+0xb9>
    407a:	48 8b 40 10          	mov    rax,QWORD PTR [rax+0x10]
    407e:	48 89 42 10          	mov    QWORD PTR [rdx+0x10],rax
    4082:	48 8b 05 9f 10 21 00 	mov    rax,QWORD PTR [rip+0x21109f]        # 215128 <allocator__Het9ctRSeaVb4hPekZZNCJQ+0x30a8>
    4089:	48 8b 50 18          	mov    rdx,QWORD PTR [rax+0x18]
    408d:	48 8b 05 9c 10 21 00 	mov    rax,QWORD PTR [rip+0x21109c]        # 215130 <allocator__Het9ctRSeaVb4hPekZZNCJQ+0x30b0>
    4094:	48 89 50 18          	mov    QWORD PTR [rax+0x18],rdx
    4098:	48 83 3d b8 10 21 00 	cmp    QWORD PTR [rip+0x2110b8],0x0        # 215158 <allocator__Het9ctRSeaVb4hPekZZNCJQ+0x30d8>
    409f:	00 
    40a0:	75 0e                	jne    40b0 <nimDestroyAndDispose+0x3f0>
    40a2:	4c 89 15 af 10 21 00 	mov    QWORD PTR [rip+0x2110af],r10        # 215158 <allocator__Het9ctRSeaVb4hPekZZNCJQ+0x30d8>
    40a9:	4c 89 15 b0 10 21 00 	mov    QWORD PTR [rip+0x2110b0],r10        # 215160 <allocator__Het9ctRSeaVb4hPekZZNCJQ+0x30e0>
    40b0:	48 8b 05 71 10 21 00 	mov    rax,QWORD PTR [rip+0x211071]        # 215128 <allocator__Het9ctRSeaVb4hPekZZNCJQ+0x30a8>
    40b7:	4c 89 15 72 10 21 00 	mov    QWORD PTR [rip+0x211072],r10        # 215130 <allocator__Het9ctRSeaVb4hPekZZNCJQ+0x30b0>
    40be:	48 8b 15 7b 10 21 00 	mov    rdx,QWORD PTR [rip+0x21107b]        # 215140 <allocator__Het9ctRSeaVb4hPekZZNCJQ+0x30c0>
    40c5:	48 8b 40 08          	mov    rax,QWORD PTR [rax+0x8]
    40c9:	48 89 05 58 10 21 00 	mov    QWORD PTR [rip+0x211058],rax        # 215128 <allocator__Het9ctRSeaVb4hPekZZNCJQ+0x30a8>
    40d0:	48 8b 05 61 10 21 00 	mov    rax,QWORD PTR [rip+0x211061]        # 215138 <allocator__Het9ctRSeaVb4hPekZZNCJQ+0x30b8>
    40d7:	48 89 10             	mov    QWORD PTR [rax],rdx
    40da:	48 89 05 5f 10 21 00 	mov    QWORD PTR [rip+0x21105f],rax        # 215140 <allocator__Het9ctRSeaVb4hPekZZNCJQ+0x30c0>
    40e1:	e9 a2 fd ff ff       	jmp    3e88 <nimDestroyAndDispose+0x1c8>
    40e6:	66 2e 0f 1f 84 00 00 	nop    WORD PTR cs:[rax+rax*1+0x0]
    40ed:	00 00 00 
    40f0:	48 89 51 20          	mov    QWORD PTR [rcx+0x20],rdx
    40f4:	48 8b 05 2d 10 21 00 	mov    rax,QWORD PTR [rip+0x21102d]        # 215128 <allocator__Het9ctRSeaVb4hPekZZNCJQ+0x30a8>
    40fb:	48 8b 50 20          	mov    rdx,QWORD PTR [rax+0x20]
    40ff:	e9 a7 fc ff ff       	jmp    3dab <nimDestroyAndDispose+0xeb>
    4104:	0f 1f 40 00          	nop    DWORD PTR [rax+0x0]
    4108:	48 89 48 08          	mov    QWORD PTR [rax+0x8],rcx
    410c:	48 8b 09             	mov    rcx,QWORD PTR [rcx]
    410f:	48 89 4a 08          	mov    QWORD PTR [rdx+0x8],rcx
    4113:	48 8b 48 08          	mov    rcx,QWORD PTR [rax+0x8]
    4117:	48 89 11             	mov    QWORD PTR [rcx],rdx
    411a:	48 8b 40 08          	mov    rax,QWORD PTR [rax+0x8]
    411e:	48 83 40 20 01       	add    QWORD PTR [rax+0x20],0x1
    4123:	e9 60 fd ff ff       	jmp    3e88 <nimDestroyAndDispose+0x1c8>
    4128:	0f 1f 84 00 00 00 00 	nop    DWORD PTR [rax+rax*1+0x0]
    412f:	00 
    4130:	48 85 d2             	test   rdx,rdx
    4133:	49 89 14 c1          	mov    QWORD PTR [r9+rax*8],rdx
    4137:	0f 84 0d fe ff ff    	je     3f4a <nimDestroyAndDispose+0x28a>
    413d:	48 c7 42 18 00 00 00 	mov    QWORD PTR [rdx+0x18],0x0
    4144:	00 
    4145:	e9 00 fe ff ff       	jmp    3f4a <nimDestroyAndDispose+0x28a>
    414a:	66 0f 1f 44 00 00    	nop    WORD PTR [rax+rax*1+0x0]

0000000000004150 <eqdestroy___4fQQqvAqifkWGVa4g39cI5A>:
    4150:	48 8b 77 08          	mov    rsi,QWORD PTR [rdi+0x8]
    4154:	48 85 f6             	test   rsi,rsi
    4157:	74 0f                	je     4168 <eqdestroy___4fQQqvAqifkWGVa4g39cI5A+0x18>
    4159:	48 b8 00 00 00 00 00 	movabs rax,0x4000000000000000
    4160:	00 00 40 
    4163:	48 85 06             	test   QWORD PTR [rsi],rax
    4166:	74 08                	je     4170 <eqdestroy___4fQQqvAqifkWGVa4g39cI5A+0x20>
    4168:	f3 c3                	repz ret 
    416a:	66 0f 1f 44 00 00    	nop    WORD PTR [rax+rax*1+0x0]
    4170:	53                   	push   rbx
    4171:	48 89 fb             	mov    rbx,rdi
    4174:	48 8d 3d 05 df 20 00 	lea    rdi,[rip+0x20df05]        # 212080 <allocator__Het9ctRSeaVb4hPekZZNCJQ>
    417b:	e8 00 e0 ff ff       	call   2180 <rawDealloc__K7uQ6aTKvW6OnOV8EMoNNQ>
    4180:	48 c7 43 08 00 00 00 	mov    QWORD PTR [rbx+0x8],0x0
    4187:	00 
    4188:	48 c7 03 00 00 00 00 	mov    QWORD PTR [rbx],0x0
    418f:	5b                   	pop    rbx
    4190:	c3                   	ret    
    4191:	0f 1f 44 00 00       	nop    DWORD PTR [rax+rax*1+0x0]
    4196:	66 2e 0f 1f 84 00 00 	nop    WORD PTR cs:[rax+rax*1+0x0]
    419d:	00 00 00 

00000000000041a0 <addHeapLink__LIRFHBfc9aX3C5dmMmLnpwA>:
    41a0:	41 55                	push   r13
    41a2:	41 54                	push   r12
    41a4:	49 89 f5             	mov    r13,rsi
    41a7:	55                   	push   rbp
    41a8:	53                   	push   rbx
    41a9:	49 89 d4             	mov    r12,rdx
    41ac:	48 89 fb             	mov    rbx,rdi
    41af:	48 8d 87 00 31 00 00 	lea    rax,[rdi+0x3100]
    41b6:	48 83 ec 18          	sub    rsp,0x18
    41ba:	eb 15                	jmp    41d1 <addHeapLink__LIRFHBfc9aX3C5dmMmLnpwA+0x31>
    41bc:	0f 1f 40 00          	nop    DWORD PTR [rax+0x0]
    41c0:	48 83 38 1d          	cmp    QWORD PTR [rax],0x1d
    41c4:	0f 8e a9 00 00 00    	jle    4273 <addHeapLink__LIRFHBfc9aX3C5dmMmLnpwA+0xd3>
    41ca:	48 8b 80 e8 01 00 00 	mov    rax,QWORD PTR [rax+0x1e8]
    41d1:	48 85 c0             	test   rax,rax
    41d4:	75 ea                	jne    41c0 <addHeapLink__LIRFHBfc9aX3C5dmMmLnpwA+0x20>
    41d6:	48 8b ab 78 28 00 00 	mov    rbp,QWORD PTR [rbx+0x2878]
    41dd:	48 85 ed             	test   rbp,rbp
    41e0:	0f 84 ba 00 00 00    	je     42a0 <addHeapLink__LIRFHBfc9aX3C5dmMmLnpwA+0x100>
    41e6:	48 8b 45 00          	mov    rax,QWORD PTR [rbp+0x0]
    41ea:	48 3d ef 01 00 00    	cmp    rax,0x1ef
    41f0:	0f 8e aa 00 00 00    	jle    42a0 <addHeapLink__LIRFHBfc9aX3C5dmMmLnpwA+0x100>
    41f6:	48 8b 55 08          	mov    rdx,QWORD PTR [rbp+0x8]
    41fa:	48 2d f0 01 00 00    	sub    rax,0x1f0
    4200:	48 89 45 00          	mov    QWORD PTR [rbp+0x0],rax
    4204:	48 8b 83 78 28 00 00 	mov    rax,QWORD PTR [rbx+0x2878]
    420b:	48 01 ea             	add    rdx,rbp
    420e:	48 8d 7a 08          	lea    rdi,[rdx+0x8]
    4212:	48 89 d1             	mov    rcx,rdx
    4215:	48 81 40 08 f0 01 00 	add    QWORD PTR [rax+0x8],0x1f0
    421c:	00 
    421d:	31 c0                	xor    eax,eax
    421f:	48 c7 02 00 00 00 00 	mov    QWORD PTR [rdx],0x0
    4226:	48 c7 82 e8 01 00 00 	mov    QWORD PTR [rdx+0x1e8],0x0
    422d:	00 00 00 00 
    4231:	48 83 e7 f8          	and    rdi,0xfffffffffffffff8
    4235:	48 29 f9             	sub    rcx,rdi
    4238:	81 c1 f0 01 00 00    	add    ecx,0x1f0
    423e:	c1 e9 03             	shr    ecx,0x3
    4241:	f3 48 ab             	rep stos QWORD PTR es:[rdi],rax
    4244:	48 8b 83 e8 32 00 00 	mov    rax,QWORD PTR [rbx+0x32e8]
    424b:	48 89 82 e8 01 00 00 	mov    QWORD PTR [rdx+0x1e8],rax
    4252:	48 89 93 e8 32 00 00 	mov    QWORD PTR [rbx+0x32e8],rdx
    4259:	4c 89 6a 08          	mov    QWORD PTR [rdx+0x8],r13
    425d:	4c 89 62 10          	mov    QWORD PTR [rdx+0x10],r12
    4261:	48 c7 02 01 00 00 00 	mov    QWORD PTR [rdx],0x1
    4268:	48 83 c4 18          	add    rsp,0x18
    426c:	5b                   	pop    rbx
    426d:	5d                   	pop    rbp
    426e:	41 5c                	pop    r12
    4270:	41 5d                	pop    r13
    4272:	c3                   	ret    
    4273:	48 8b 08             	mov    rcx,QWORD PTR [rax]
    4276:	48 89 cf             	mov    rdi,rcx
    4279:	48 83 c1 01          	add    rcx,0x1
    427d:	48 c1 e7 04          	shl    rdi,0x4
    4281:	48 01 c7             	add    rdi,rax
    4284:	4c 89 6f 08          	mov    QWORD PTR [rdi+0x8],r13
    4288:	4c 89 67 10          	mov    QWORD PTR [rdi+0x10],r12
    428c:	48 89 08             	mov    QWORD PTR [rax],rcx
    428f:	48 83 c4 18          	add    rsp,0x18
    4293:	5b                   	pop    rbx
    4294:	5d                   	pop    rbp
    4295:	41 5c                	pop    r12
    4297:	41 5d                	pop    r13
    4299:	c3                   	ret    
    429a:	66 0f 1f 44 00 00    	nop    WORD PTR [rax+rax*1+0x0]
    42a0:	45 31 c9             	xor    r9d,r9d
    42a3:	ba 03 00 00 00       	mov    edx,0x3
    42a8:	31 ff                	xor    edi,edi
    42aa:	41 b8 ff ff ff ff    	mov    r8d,0xffffffff
    42b0:	b9 22 00 00 00       	mov    ecx,0x22
    42b5:	be 00 10 00 00       	mov    esi,0x1000
    42ba:	e8 b1 c6 ff ff       	call   970 <mmap@plt>
    42bf:	48 8d 50 ff          	lea    rdx,[rax-0x1]
    42c3:	48 83 fa fd          	cmp    rdx,0xfffffffffffffffd
    42c7:	77 43                	ja     430c <addHeapLink__LIRFHBfc9aX3C5dmMmLnpwA+0x16c>
    42c9:	48 89 83 78 28 00 00 	mov    QWORD PTR [rbx+0x2878],rax
    42d0:	48 81 83 80 28 00 00 	add    QWORD PTR [rbx+0x2880],0x1000
    42d7:	00 10 00 00 
    42db:	48 c7 00 e8 0f 00 00 	mov    QWORD PTR [rax],0xfe8
    42e2:	48 8b 83 78 28 00 00 	mov    rax,QWORD PTR [rbx+0x2878]
    42e9:	48 c7 40 08 18 00 00 	mov    QWORD PTR [rax+0x8],0x18
    42f0:	00 
    42f1:	48 8b 83 78 28 00 00 	mov    rax,QWORD PTR [rbx+0x2878]
    42f8:	48 89 68 10          	mov    QWORD PTR [rax+0x10],rbp
    42fc:	48 8b ab 78 28 00 00 	mov    rbp,QWORD PTR [rbx+0x2878]
    4303:	48 8b 45 00          	mov    rax,QWORD PTR [rbp+0x0]
    4307:	e9 ea fe ff ff       	jmp    41f6 <addHeapLink__LIRFHBfc9aX3C5dmMmLnpwA+0x56>
    430c:	48 89 44 24 08       	mov    QWORD PTR [rsp+0x8],rax
    4311:	e8 ea cd ff ff       	call   1100 <raiseOutOfMem__mMRdr4sgmnykA9aWeM9aDZlw>
    4316:	48 8b 44 24 08       	mov    rax,QWORD PTR [rsp+0x8]
    431b:	eb ac                	jmp    42c9 <addHeapLink__LIRFHBfc9aX3C5dmMmLnpwA+0x129>
    431d:	0f 1f 00             	nop    DWORD PTR [rax]

0000000000004320 <requestOsChunks__stlXHMKRKFIGOvq8t4ynRQ_2>:
    4320:	41 55                	push   r13
    4322:	41 54                	push   r12
    4324:	49 89 f4             	mov    r12,rsi
    4327:	55                   	push   rbp
    4328:	53                   	push   rbx
    4329:	48 89 fb             	mov    rbx,rdi
    432c:	48 83 ec 18          	sub    rsp,0x18
    4330:	80 bf c9 30 00 00 00 	cmp    BYTE PTR [rdi+0x30c9],0x0
    4337:	0f 84 3b 02 00 00    	je     4578 <requestOsChunks__stlXHMKRKFIGOvq8t4ynRQ_2+0x258>
    433d:	48 8b b7 d0 30 00 00 	mov    rsi,QWORD PTR [rdi+0x30d0]
    4344:	45 31 c9             	xor    r9d,r9d
    4347:	49 39 f4             	cmp    r12,rsi
    434a:	41 b8 ff ff ff ff    	mov    r8d,0xffffffff
    4350:	b9 22 00 00 00       	mov    ecx,0x22
    4355:	ba 03 00 00 00       	mov    edx,0x3
    435a:	0f 8e f0 01 00 00    	jle    4550 <requestOsChunks__stlXHMKRKFIGOvq8t4ynRQ_2+0x230>
    4360:	31 ff                	xor    edi,edi
    4362:	4c 89 e6             	mov    rsi,r12
    4365:	e8 06 c6 ff ff       	call   970 <mmap@plt>
    436a:	48 89 c5             	mov    rbp,rax
    436d:	48 8d 40 ff          	lea    rax,[rax-0x1]
    4371:	48 83 f8 fd          	cmp    rax,0xfffffffffffffffd
    4375:	0f 87 b5 02 00 00    	ja     4630 <requestOsChunks__stlXHMKRKFIGOvq8t4ynRQ_2+0x310>
    437b:	4c 01 a3 80 28 00 00 	add    QWORD PTR [rbx+0x2880],r12
    4382:	4c 01 a3 90 28 00 00 	add    QWORD PTR [rbx+0x2890],r12
    4389:	48 8d 83 00 31 00 00 	lea    rax,[rbx+0x3100]
    4390:	48 83 38 1d          	cmp    QWORD PTR [rax],0x1d
    4394:	0f 8e a0 00 00 00    	jle    443a <requestOsChunks__stlXHMKRKFIGOvq8t4ynRQ_2+0x11a>
    439a:	48 8b 80 e8 01 00 00 	mov    rax,QWORD PTR [rax+0x1e8]
    43a1:	48 85 c0             	test   rax,rax
    43a4:	75 ea                	jne    4390 <requestOsChunks__stlXHMKRKFIGOvq8t4ynRQ_2+0x70>
    43a6:	4c 8b ab 78 28 00 00 	mov    r13,QWORD PTR [rbx+0x2878]
    43ad:	4d 85 ed             	test   r13,r13
    43b0:	0f 84 92 02 00 00    	je     4648 <requestOsChunks__stlXHMKRKFIGOvq8t4ynRQ_2+0x328>
    43b6:	49 8b 45 00          	mov    rax,QWORD PTR [r13+0x0]
    43ba:	48 3d ef 01 00 00    	cmp    rax,0x1ef
    43c0:	0f 8e 82 02 00 00    	jle    4648 <requestOsChunks__stlXHMKRKFIGOvq8t4ynRQ_2+0x328>
    43c6:	49 8b 55 08          	mov    rdx,QWORD PTR [r13+0x8]
    43ca:	48 2d f0 01 00 00    	sub    rax,0x1f0
    43d0:	49 89 45 00          	mov    QWORD PTR [r13+0x0],rax
    43d4:	48 8b 83 78 28 00 00 	mov    rax,QWORD PTR [rbx+0x2878]
    43db:	4c 01 ea             	add    rdx,r13
    43de:	48 8d 7a 08          	lea    rdi,[rdx+0x8]
    43e2:	48 89 d1             	mov    rcx,rdx
    43e5:	48 81 40 08 f0 01 00 	add    QWORD PTR [rax+0x8],0x1f0
    43ec:	00 
    43ed:	31 c0                	xor    eax,eax
    43ef:	48 c7 02 00 00 00 00 	mov    QWORD PTR [rdx],0x0
    43f6:	48 c7 82 e8 01 00 00 	mov    QWORD PTR [rdx+0x1e8],0x0
    43fd:	00 00 00 00 
    4401:	48 83 e7 f8          	and    rdi,0xfffffffffffffff8
    4405:	48 29 f9             	sub    rcx,rdi
    4408:	81 c1 f0 01 00 00    	add    ecx,0x1f0
    440e:	c1 e9 03             	shr    ecx,0x3
    4411:	f3 48 ab             	rep stos QWORD PTR es:[rdi],rax
    4414:	48 8b 83 e8 32 00 00 	mov    rax,QWORD PTR [rbx+0x32e8]
    441b:	48 89 82 e8 01 00 00 	mov    QWORD PTR [rdx+0x1e8],rax
    4422:	48 89 93 e8 32 00 00 	mov    QWORD PTR [rbx+0x32e8],rdx
    4429:	48 89 6a 08          	mov    QWORD PTR [rdx+0x8],rbp
    442d:	4c 89 62 10          	mov    QWORD PTR [rdx+0x10],r12
    4431:	48 c7 02 01 00 00 00 	mov    QWORD PTR [rdx],0x1
    4438:	eb 1c                	jmp    4456 <requestOsChunks__stlXHMKRKFIGOvq8t4ynRQ_2+0x136>
    443a:	48 8b 10             	mov    rdx,QWORD PTR [rax]
    443d:	48 89 d1             	mov    rcx,rdx
    4440:	48 83 c2 01          	add    rdx,0x1
    4444:	48 c1 e1 04          	shl    rcx,0x4
    4448:	48 01 c1             	add    rcx,rax
    444b:	48 89 69 08          	mov    QWORD PTR [rcx+0x8],rbp
    444f:	4c 89 61 10          	mov    QWORD PTR [rcx+0x10],r12
    4453:	48 89 10             	mov    QWORD PTR [rax],rdx
    4456:	4a 8d 4c 25 00       	lea    rcx,[rbp+r12*1+0x0]
    445b:	48 c7 45 10 00 00 00 	mov    QWORD PTR [rbp+0x10],0x0
    4462:	00 
    4463:	48 c7 45 18 00 00 00 	mov    QWORD PTR [rbp+0x18],0x0
    446a:	00 
    446b:	4c 89 65 08          	mov    QWORD PTR [rbp+0x8],r12
    446f:	48 89 ca             	mov    rdx,rcx
    4472:	48 c1 fa 15          	sar    rdx,0x15
    4476:	0f b6 c2             	movzx  eax,dl
    4479:	48 8b 84 c3 a8 28 00 	mov    rax,QWORD PTR [rbx+rax*8+0x28a8]
    4480:	00 
    4481:	48 85 c0             	test   rax,rax
    4484:	75 12                	jne    4498 <requestOsChunks__stlXHMKRKFIGOvq8t4ynRQ_2+0x178>
    4486:	eb 39                	jmp    44c1 <requestOsChunks__stlXHMKRKFIGOvq8t4ynRQ_2+0x1a1>
    4488:	0f 1f 84 00 00 00 00 	nop    DWORD PTR [rax+rax*1+0x0]
    448f:	00 
    4490:	48 8b 00             	mov    rax,QWORD PTR [rax]
    4493:	48 85 c0             	test   rax,rax
    4496:	74 29                	je     44c1 <requestOsChunks__stlXHMKRKFIGOvq8t4ynRQ_2+0x1a1>
    4498:	48 3b 50 08          	cmp    rdx,QWORD PTR [rax+0x8]
    449c:	75 f2                	jne    4490 <requestOsChunks__stlXHMKRKFIGOvq8t4ynRQ_2+0x170>
    449e:	48 89 ca             	mov    rdx,rcx
    44a1:	48 c1 fa 0c          	sar    rdx,0xc
    44a5:	81 e2 ff 01 00 00    	and    edx,0x1ff
    44ab:	48 89 d6             	mov    rsi,rdx
    44ae:	48 c1 fe 06          	sar    rsi,0x6
    44b2:	48 8b 44 f0 10       	mov    rax,QWORD PTR [rax+rsi*8+0x10]
    44b7:	48 0f a3 d0          	bt     rax,rdx
    44bb:	0f 82 07 01 00 00    	jb     45c8 <requestOsChunks__stlXHMKRKFIGOvq8t4ynRQ_2+0x2a8>
    44c1:	48 8b b3 a0 28 00 00 	mov    rsi,QWORD PTR [rbx+0x28a0]
    44c8:	48 85 f6             	test   rsi,rsi
    44cb:	48 89 f0             	mov    rax,rsi
    44ce:	75 0a                	jne    44da <requestOsChunks__stlXHMKRKFIGOvq8t4ynRQ_2+0x1ba>
    44d0:	b8 00 10 00 00       	mov    eax,0x1000
    44d5:	be 00 10 00 00       	mov    esi,0x1000
    44da:	48 89 ef             	mov    rdi,rbp
    44dd:	48 8b 4d 00          	mov    rcx,QWORD PTR [rbp+0x0]
    44e1:	48 29 c7             	sub    rdi,rax
    44e4:	48 89 fa             	mov    rdx,rdi
    44e7:	48 c1 fa 15          	sar    rdx,0x15
    44eb:	83 e1 01             	and    ecx,0x1
    44ee:	0f b6 c2             	movzx  eax,dl
    44f1:	48 8b 84 c3 a8 28 00 	mov    rax,QWORD PTR [rbx+rax*8+0x28a8]
    44f8:	00 
    44f9:	48 85 c0             	test   rax,rax
    44fc:	75 0a                	jne    4508 <requestOsChunks__stlXHMKRKFIGOvq8t4ynRQ_2+0x1e8>
    44fe:	eb 36                	jmp    4536 <requestOsChunks__stlXHMKRKFIGOvq8t4ynRQ_2+0x216>
    4500:	48 8b 00             	mov    rax,QWORD PTR [rax]
    4503:	48 85 c0             	test   rax,rax
    4506:	74 2e                	je     4536 <requestOsChunks__stlXHMKRKFIGOvq8t4ynRQ_2+0x216>
    4508:	48 3b 50 08          	cmp    rdx,QWORD PTR [rax+0x8]
    450c:	75 f2                	jne    4500 <requestOsChunks__stlXHMKRKFIGOvq8t4ynRQ_2+0x1e0>
    450e:	48 89 fa             	mov    rdx,rdi
    4511:	48 c1 fa 0c          	sar    rdx,0xc
    4515:	81 e2 ff 01 00 00    	and    edx,0x1ff
    451b:	49 89 d0             	mov    r8,rdx
    451e:	49 c1 f8 06          	sar    r8,0x6
    4522:	4a 8b 44 c0 10       	mov    rax,QWORD PTR [rax+r8*8+0x10]
    4527:	48 0f a3 d0          	bt     rax,rdx
    452b:	73 09                	jae    4536 <requestOsChunks__stlXHMKRKFIGOvq8t4ynRQ_2+0x216>
    452d:	48 39 77 08          	cmp    QWORD PTR [rdi+0x8],rsi
    4531:	75 03                	jne    4536 <requestOsChunks__stlXHMKRKFIGOvq8t4ynRQ_2+0x216>
    4533:	48 09 f1             	or     rcx,rsi
    4536:	48 89 4d 00          	mov    QWORD PTR [rbp+0x0],rcx
    453a:	4c 89 a3 a0 28 00 00 	mov    QWORD PTR [rbx+0x28a0],r12
    4541:	48 83 c4 18          	add    rsp,0x18
    4545:	5b                   	pop    rbx
    4546:	48 89 e8             	mov    rax,rbp
    4549:	5d                   	pop    rbp
    454a:	41 5c                	pop    r12
    454c:	41 5d                	pop    r13
    454e:	c3                   	ret    
    454f:	90                   	nop
    4550:	31 ff                	xor    edi,edi
    4552:	e8 19 c4 ff ff       	call   970 <mmap@plt>
    4557:	48 89 c5             	mov    rbp,rax
    455a:	48 8d 40 ff          	lea    rax,[rax-0x1]
    455e:	48 83 f8 fd          	cmp    rax,0xfffffffffffffffd
    4562:	0f 87 90 00 00 00    	ja     45f8 <requestOsChunks__stlXHMKRKFIGOvq8t4ynRQ_2+0x2d8>
    4568:	4c 8b a3 d0 30 00 00 	mov    r12,QWORD PTR [rbx+0x30d0]
    456f:	e9 07 fe ff ff       	jmp    437b <requestOsChunks__stlXHMKRKFIGOvq8t4ynRQ_2+0x5b>
    4574:	0f 1f 40 00          	nop    DWORD PTR [rax+0x0]
    4578:	48 8b 87 98 28 00 00 	mov    rax,QWORD PTR [rdi+0x2898]
    457f:	48 3d ff ff 00 00    	cmp    rax,0xffff
    4585:	7e 59                	jle    45e0 <requestOsChunks__stlXHMKRKFIGOvq8t4ynRQ_2+0x2c0>
    4587:	48 c1 f8 02          	sar    rax,0x2
    458b:	ba 00 00 00 3f       	mov    edx,0x3f000000
    4590:	48 8d b0 ff 0f 00 00 	lea    rsi,[rax+0xfff]
    4597:	48 8b 87 d0 30 00 00 	mov    rax,QWORD PTR [rdi+0x30d0]
    459e:	48 81 e6 00 f0 ff ff 	and    rsi,0xfffffffffffff000
    45a5:	48 01 c0             	add    rax,rax
    45a8:	48 3d 00 00 00 3f    	cmp    rax,0x3f000000
    45ae:	48 0f 4f c2          	cmovg  rax,rdx
    45b2:	48 39 c6             	cmp    rsi,rax
    45b5:	48 0f 4f f0          	cmovg  rsi,rax
    45b9:	48 89 b7 d0 30 00 00 	mov    QWORD PTR [rdi+0x30d0],rsi
    45c0:	e9 7f fd ff ff       	jmp    4344 <requestOsChunks__stlXHMKRKFIGOvq8t4ynRQ_2+0x24>
    45c5:	0f 1f 00             	nop    DWORD PTR [rax]
    45c8:	48 8b 01             	mov    rax,QWORD PTR [rcx]
    45cb:	83 e0 01             	and    eax,0x1
    45ce:	4c 09 e0             	or     rax,r12
    45d1:	48 89 01             	mov    QWORD PTR [rcx],rax
    45d4:	e9 e8 fe ff ff       	jmp    44c1 <requestOsChunks__stlXHMKRKFIGOvq8t4ynRQ_2+0x1a1>
    45d9:	0f 1f 80 00 00 00 00 	nop    DWORD PTR [rax+0x0]
    45e0:	48 c7 87 d0 30 00 00 	mov    QWORD PTR [rdi+0x30d0],0x4000
    45e7:	00 40 00 00 
    45eb:	be 00 40 00 00       	mov    esi,0x4000
    45f0:	e9 4f fd ff ff       	jmp    4344 <requestOsChunks__stlXHMKRKFIGOvq8t4ynRQ_2+0x24>
    45f5:	0f 1f 00             	nop    DWORD PTR [rax]
    45f8:	45 31 c9             	xor    r9d,r9d
    45fb:	31 ff                	xor    edi,edi
    45fd:	41 b8 ff ff ff ff    	mov    r8d,0xffffffff
    4603:	b9 22 00 00 00       	mov    ecx,0x22
    4608:	ba 03 00 00 00       	mov    edx,0x3
    460d:	4c 89 e6             	mov    rsi,r12
    4610:	e8 5b c3 ff ff       	call   970 <mmap@plt>
    4615:	48 89 c5             	mov    rbp,rax
    4618:	48 8d 40 ff          	lea    rax,[rax-0x1]
    461c:	48 83 f8 fd          	cmp    rax,0xfffffffffffffffd
    4620:	77 18                	ja     463a <requestOsChunks__stlXHMKRKFIGOvq8t4ynRQ_2+0x31a>
    4622:	c6 83 c9 30 00 00 01 	mov    BYTE PTR [rbx+0x30c9],0x1
    4629:	e9 4d fd ff ff       	jmp    437b <requestOsChunks__stlXHMKRKFIGOvq8t4ynRQ_2+0x5b>
    462e:	66 90                	xchg   ax,ax
    4630:	e8 cb ca ff ff       	call   1100 <raiseOutOfMem__mMRdr4sgmnykA9aWeM9aDZlw>
    4635:	e9 41 fd ff ff       	jmp    437b <requestOsChunks__stlXHMKRKFIGOvq8t4ynRQ_2+0x5b>
    463a:	e8 c1 ca ff ff       	call   1100 <raiseOutOfMem__mMRdr4sgmnykA9aWeM9aDZlw>
    463f:	eb e1                	jmp    4622 <requestOsChunks__stlXHMKRKFIGOvq8t4ynRQ_2+0x302>
    4641:	0f 1f 80 00 00 00 00 	nop    DWORD PTR [rax+0x0]
    4648:	45 31 c9             	xor    r9d,r9d
    464b:	ba 03 00 00 00       	mov    edx,0x3
    4650:	31 ff                	xor    edi,edi
    4652:	41 b8 ff ff ff ff    	mov    r8d,0xffffffff
    4658:	b9 22 00 00 00       	mov    ecx,0x22
    465d:	be 00 10 00 00       	mov    esi,0x1000
    4662:	e8 09 c3 ff ff       	call   970 <mmap@plt>
    4667:	48 8d 50 ff          	lea    rdx,[rax-0x1]
    466b:	48 83 fa fd          	cmp    rdx,0xfffffffffffffffd
    466f:	77 43                	ja     46b4 <requestOsChunks__stlXHMKRKFIGOvq8t4ynRQ_2+0x394>
    4671:	48 89 83 78 28 00 00 	mov    QWORD PTR [rbx+0x2878],rax
    4678:	48 81 83 80 28 00 00 	add    QWORD PTR [rbx+0x2880],0x1000
    467f:	00 10 00 00 
    4683:	48 c7 00 e8 0f 00 00 	mov    QWORD PTR [rax],0xfe8
    468a:	48 8b 83 78 28 00 00 	mov    rax,QWORD PTR [rbx+0x2878]
    4691:	48 c7 40 08 18 00 00 	mov    QWORD PTR [rax+0x8],0x18
    4698:	00 
    4699:	48 8b 83 78 28 00 00 	mov    rax,QWORD PTR [rbx+0x2878]
    46a0:	4c 89 68 10          	mov    QWORD PTR [rax+0x10],r13
    46a4:	4c 8b ab 78 28 00 00 	mov    r13,QWORD PTR [rbx+0x2878]
    46ab:	49 8b 45 00          	mov    rax,QWORD PTR [r13+0x0]
    46af:	e9 12 fd ff ff       	jmp    43c6 <requestOsChunks__stlXHMKRKFIGOvq8t4ynRQ_2+0xa6>
    46b4:	48 89 44 24 08       	mov    QWORD PTR [rsp+0x8],rax
    46b9:	e8 42 ca ff ff       	call   1100 <raiseOutOfMem__mMRdr4sgmnykA9aWeM9aDZlw>
    46be:	48 8b 44 24 08       	mov    rax,QWORD PTR [rsp+0x8]
    46c3:	eb ac                	jmp    4671 <requestOsChunks__stlXHMKRKFIGOvq8t4ynRQ_2+0x351>
    46c5:	90                   	nop
    46c6:	66 2e 0f 1f 84 00 00 	nop    WORD PTR cs:[rax+rax*1+0x0]
    46cd:	00 00 00 

00000000000046d0 <splitChunk__BqFVAuadgXfvAiq8B9cBjqQ>:
    46d0:	41 57                	push   r15
    46d2:	41 56                	push   r14
    46d4:	41 55                	push   r13
    46d6:	41 54                	push   r12
    46d8:	55                   	push   rbp
    46d9:	53                   	push   rbx
    46da:	48 89 fd             	mov    rbp,rdi
    46dd:	48 8d 1c 32          	lea    rbx,[rdx+rsi*1]
    46e1:	48 83 ec 18          	sub    rsp,0x18
    46e5:	48 8b 7e 08          	mov    rdi,QWORD PTR [rsi+0x8]
    46e9:	48 c7 43 10 00 00 00 	mov    QWORD PTR [rbx+0x10],0x0
    46f0:	00 
    46f1:	48 c7 43 18 00 00 00 	mov    QWORD PTR [rbx+0x18],0x0
    46f8:	00 
    46f9:	48 89 13             	mov    QWORD PTR [rbx],rdx
    46fc:	48 29 d7             	sub    rdi,rdx
    46ff:	48 89 7b 08          	mov    QWORD PTR [rbx+0x8],rdi
    4703:	4c 8b 46 08          	mov    r8,QWORD PTR [rsi+0x8]
    4707:	49 01 f0             	add    r8,rsi
    470a:	4c 89 c1             	mov    rcx,r8
    470d:	48 c1 f9 15          	sar    rcx,0x15
    4711:	0f b6 c1             	movzx  eax,cl
    4714:	48 8b 84 c5 a8 28 00 	mov    rax,QWORD PTR [rbp+rax*8+0x28a8]
    471b:	00 
    471c:	48 85 c0             	test   rax,rax
    471f:	75 0f                	jne    4730 <splitChunk__BqFVAuadgXfvAiq8B9cBjqQ+0x60>
    4721:	eb 3e                	jmp    4761 <splitChunk__BqFVAuadgXfvAiq8B9cBjqQ+0x91>
    4723:	0f 1f 44 00 00       	nop    DWORD PTR [rax+rax*1+0x0]
    4728:	48 8b 00             	mov    rax,QWORD PTR [rax]
    472b:	48 85 c0             	test   rax,rax
    472e:	74 31                	je     4761 <splitChunk__BqFVAuadgXfvAiq8B9cBjqQ+0x91>
    4730:	48 3b 48 08          	cmp    rcx,QWORD PTR [rax+0x8]
    4734:	75 f2                	jne    4728 <splitChunk__BqFVAuadgXfvAiq8B9cBjqQ+0x58>
    4736:	4c 89 c1             	mov    rcx,r8
    4739:	48 c1 f9 0c          	sar    rcx,0xc
    473d:	81 e1 ff 01 00 00    	and    ecx,0x1ff
    4743:	49 89 c9             	mov    r9,rcx
    4746:	49 c1 f9 06          	sar    r9,0x6
    474a:	4a 8b 44 c8 10       	mov    rax,QWORD PTR [rax+r9*8+0x10]
    474f:	48 0f a3 c8          	bt     rax,rcx
    4753:	73 0c                	jae    4761 <splitChunk__BqFVAuadgXfvAiq8B9cBjqQ+0x91>
    4755:	49 8b 00             	mov    rax,QWORD PTR [r8]
    4758:	83 e0 01             	and    eax,0x1
    475b:	48 09 c7             	or     rdi,rax
    475e:	49 89 38             	mov    QWORD PTR [r8],rdi
    4761:	49 89 dc             	mov    r12,rbx
    4764:	48 89 56 08          	mov    QWORD PTR [rsi+0x8],rdx
    4768:	49 89 dd             	mov    r13,rbx
    476b:	49 c1 fc 15          	sar    r12,0x15
    476f:	49 c1 fd 0c          	sar    r13,0xc
    4773:	41 0f b6 c4          	movzx  eax,r12b
    4777:	4c 8d 74 c5 00       	lea    r14,[rbp+rax*8+0x0]
    477c:	49 8b 86 a8 28 00 00 	mov    rax,QWORD PTR [r14+0x28a8]
    4783:	48 85 c0             	test   rax,rax
    4786:	75 14                	jne    479c <splitChunk__BqFVAuadgXfvAiq8B9cBjqQ+0xcc>
    4788:	e9 db 00 00 00       	jmp    4868 <splitChunk__BqFVAuadgXfvAiq8B9cBjqQ+0x198>
    478d:	0f 1f 00             	nop    DWORD PTR [rax]
    4790:	48 8b 00             	mov    rax,QWORD PTR [rax]
    4793:	48 85 c0             	test   rax,rax
    4796:	0f 84 cc 00 00 00    	je     4868 <splitChunk__BqFVAuadgXfvAiq8B9cBjqQ+0x198>
    479c:	4c 3b 60 08          	cmp    r12,QWORD PTR [rax+0x8]
    47a0:	75 ee                	jne    4790 <splitChunk__BqFVAuadgXfvAiq8B9cBjqQ+0xc0>
    47a2:	4c 89 e9             	mov    rcx,r13
    47a5:	ba 01 00 00 00       	mov    edx,0x1
    47aa:	81 e1 ff 01 00 00    	and    ecx,0x1ff
    47b0:	48 89 ce             	mov    rsi,rcx
    47b3:	48 d3 e2             	shl    rdx,cl
    47b6:	48 c1 fe 06          	sar    rsi,0x6
    47ba:	48 09 54 f0 10       	or     QWORD PTR [rax+rsi*8+0x10],rdx
    47bf:	48 8b 43 08          	mov    rax,QWORD PTR [rbx+0x8]
    47c3:	3d ff ff 00 00       	cmp    eax,0xffff
    47c8:	89 c1                	mov    ecx,eax
    47ca:	0f 87 00 01 00 00    	ja     48d0 <splitChunk__BqFVAuadgXfvAiq8B9cBjqQ+0x200>
    47d0:	31 d2                	xor    edx,edx
    47d2:	3d ff 00 00 00       	cmp    eax,0xff
    47d7:	0f 87 13 01 00 00    	ja     48f0 <splitChunk__BqFVAuadgXfvAiq8B9cBjqQ+0x220>
    47dd:	48 8d 35 1c ae 00 00 	lea    rsi,[rip+0xae1c]        # f600 <fsLookupTable__Gn52IZvqY4slyBTOYwGNRQ>
    47e4:	48 c7 43 18 00 00 00 	mov    QWORD PTR [rbx+0x18],0x0
    47eb:	00 
    47ec:	48 0f be 0c 0e       	movsx  rcx,BYTE PTR [rsi+rcx*1]
    47f1:	48 01 ca             	add    rdx,rcx
    47f4:	8d 4a fb             	lea    ecx,[rdx-0x5]
    47f7:	48 8d 72 fa          	lea    rsi,[rdx-0x6]
    47fb:	48 d3 f8             	sar    rax,cl
    47fe:	48 8d 48 e0          	lea    rcx,[rax-0x20]
    4802:	48 89 f0             	mov    rax,rsi
    4805:	48 c1 e0 05          	shl    rax,0x5
    4809:	48 01 c8             	add    rax,rcx
    480c:	48 8d 44 c5 00       	lea    rax,[rbp+rax*8+0x0]
    4811:	48 8b b8 78 10 00 00 	mov    rdi,QWORD PTR [rax+0x1078]
    4818:	48 89 7b 10          	mov    QWORD PTR [rbx+0x10],rdi
    481c:	48 8b b8 78 10 00 00 	mov    rdi,QWORD PTR [rax+0x1078]
    4823:	48 85 ff             	test   rdi,rdi
    4826:	74 04                	je     482c <splitChunk__BqFVAuadgXfvAiq8B9cBjqQ+0x15c>
    4828:	48 89 5f 18          	mov    QWORD PTR [rdi+0x18],rbx
    482c:	48 89 98 78 10 00 00 	mov    QWORD PTR [rax+0x1078],rbx
    4833:	b8 01 00 00 00       	mov    eax,0x1
    4838:	83 e1 1f             	and    ecx,0x1f
    483b:	48 89 c3             	mov    rbx,rax
    483e:	48 d3 e3             	shl    rbx,cl
    4841:	89 f1                	mov    ecx,esi
    4843:	09 9c 95 fc 0f 00 00 	or     DWORD PTR [rbp+rdx*4+0xffc],ebx
    484a:	83 e1 1f             	and    ecx,0x1f
    484d:	48 d3 e0             	shl    rax,cl
    4850:	09 85 10 10 00 00    	or     DWORD PTR [rbp+0x1010],eax
    4856:	48 83 c4 18          	add    rsp,0x18
    485a:	5b                   	pop    rbx
    485b:	5d                   	pop    rbp
    485c:	41 5c                	pop    r12
    485e:	41 5d                	pop    r13
    4860:	41 5e                	pop    r14
    4862:	41 5f                	pop    r15
    4864:	c3                   	ret    
    4865:	0f 1f 00             	nop    DWORD PTR [rax]
    4868:	4c 8b bd 78 28 00 00 	mov    r15,QWORD PTR [rbp+0x2878]
    486f:	4d 85 ff             	test   r15,r15
    4872:	0f 84 98 00 00 00    	je     4910 <splitChunk__BqFVAuadgXfvAiq8B9cBjqQ+0x240>
    4878:	49 8b 17             	mov    rdx,QWORD PTR [r15]
    487b:	48 83 fa 4f          	cmp    rdx,0x4f
    487f:	0f 8e 8b 00 00 00    	jle    4910 <splitChunk__BqFVAuadgXfvAiq8B9cBjqQ+0x240>
    4885:	48 83 ea 50          	sub    rdx,0x50
    4889:	49 8b 47 08          	mov    rax,QWORD PTR [r15+0x8]
    488d:	49 89 17             	mov    QWORD PTR [r15],rdx
    4890:	48 8b 95 78 28 00 00 	mov    rdx,QWORD PTR [rbp+0x2878]
    4897:	66 0f ef c0          	pxor   xmm0,xmm0
    489b:	4c 01 f8             	add    rax,r15
    489e:	48 83 42 08 50       	add    QWORD PTR [rdx+0x8],0x50
    48a3:	0f 11 00             	movups XMMWORD PTR [rax],xmm0
    48a6:	0f 11 40 10          	movups XMMWORD PTR [rax+0x10],xmm0
    48aa:	0f 11 40 20          	movups XMMWORD PTR [rax+0x20],xmm0
    48ae:	0f 11 40 30          	movups XMMWORD PTR [rax+0x30],xmm0
    48b2:	0f 11 40 40          	movups XMMWORD PTR [rax+0x40],xmm0
    48b6:	49 8b 96 a8 28 00 00 	mov    rdx,QWORD PTR [r14+0x28a8]
    48bd:	48 89 10             	mov    QWORD PTR [rax],rdx
    48c0:	49 89 86 a8 28 00 00 	mov    QWORD PTR [r14+0x28a8],rax
    48c7:	4c 89 60 08          	mov    QWORD PTR [rax+0x8],r12
    48cb:	e9 d2 fe ff ff       	jmp    47a2 <splitChunk__BqFVAuadgXfvAiq8B9cBjqQ+0xd2>
    48d0:	3d ff ff ff 00       	cmp    eax,0xffffff
    48d5:	89 c1                	mov    ecx,eax
    48d7:	76 27                	jbe    4900 <splitChunk__BqFVAuadgXfvAiq8B9cBjqQ+0x230>
    48d9:	c1 e9 18             	shr    ecx,0x18
    48dc:	ba 18 00 00 00       	mov    edx,0x18
    48e1:	e9 f7 fe ff ff       	jmp    47dd <splitChunk__BqFVAuadgXfvAiq8B9cBjqQ+0x10d>
    48e6:	66 2e 0f 1f 84 00 00 	nop    WORD PTR cs:[rax+rax*1+0x0]
    48ed:	00 00 00 
    48f0:	c1 e9 08             	shr    ecx,0x8
    48f3:	ba 08 00 00 00       	mov    edx,0x8
    48f8:	e9 e0 fe ff ff       	jmp    47dd <splitChunk__BqFVAuadgXfvAiq8B9cBjqQ+0x10d>
    48fd:	0f 1f 00             	nop    DWORD PTR [rax]
    4900:	c1 e9 10             	shr    ecx,0x10
    4903:	ba 10 00 00 00       	mov    edx,0x10
    4908:	e9 d0 fe ff ff       	jmp    47dd <splitChunk__BqFVAuadgXfvAiq8B9cBjqQ+0x10d>
    490d:	0f 1f 00             	nop    DWORD PTR [rax]
    4910:	45 31 c9             	xor    r9d,r9d
    4913:	ba 03 00 00 00       	mov    edx,0x3
    4918:	31 ff                	xor    edi,edi
    491a:	41 b8 ff ff ff ff    	mov    r8d,0xffffffff
    4920:	b9 22 00 00 00       	mov    ecx,0x22
    4925:	be 00 10 00 00       	mov    esi,0x1000
    492a:	e8 41 c0 ff ff       	call   970 <mmap@plt>
    492f:	48 8d 50 ff          	lea    rdx,[rax-0x1]
    4933:	48 83 fa fd          	cmp    rdx,0xfffffffffffffffd
    4937:	76 0f                	jbe    4948 <splitChunk__BqFVAuadgXfvAiq8B9cBjqQ+0x278>
    4939:	48 89 44 24 08       	mov    QWORD PTR [rsp+0x8],rax
    493e:	e8 bd c7 ff ff       	call   1100 <raiseOutOfMem__mMRdr4sgmnykA9aWeM9aDZlw>
    4943:	48 8b 44 24 08       	mov    rax,QWORD PTR [rsp+0x8]
    4948:	48 89 85 78 28 00 00 	mov    QWORD PTR [rbp+0x2878],rax
    494f:	48 81 85 80 28 00 00 	add    QWORD PTR [rbp+0x2880],0x1000
    4956:	00 10 00 00 
    495a:	48 c7 00 e8 0f 00 00 	mov    QWORD PTR [rax],0xfe8
    4961:	48 8b 85 78 28 00 00 	mov    rax,QWORD PTR [rbp+0x2878]
    4968:	48 c7 40 08 18 00 00 	mov    QWORD PTR [rax+0x8],0x18
    496f:	00 
    4970:	48 8b 85 78 28 00 00 	mov    rax,QWORD PTR [rbp+0x2878]
    4977:	4c 89 78 10          	mov    QWORD PTR [rax+0x10],r15
    497b:	4c 8b bd 78 28 00 00 	mov    r15,QWORD PTR [rbp+0x2878]
    4982:	49 8b 17             	mov    rdx,QWORD PTR [r15]
    4985:	e9 fb fe ff ff       	jmp    4885 <splitChunk__BqFVAuadgXfvAiq8B9cBjqQ+0x1b5>
    498a:	66 0f 1f 44 00 00    	nop    WORD PTR [rax+rax*1+0x0]

0000000000004990 <removeChunkFromMatrix2__XFftAAJrARamxGOKUFQy9aw>:
    4990:	48 8b 46 10          	mov    rax,QWORD PTR [rsi+0x10]
    4994:	49 89 d0             	mov    r8,rdx
    4997:	49 c1 e0 05          	shl    r8,0x5
    499b:	4e 8d 84 01 0e 02 00 	lea    r8,[rcx+r8*1+0x20e]
    49a2:	00 
    49a3:	48 85 c0             	test   rax,rax
    49a6:	4a 89 44 c7 08       	mov    QWORD PTR [rdi+r8*8+0x8],rax
    49ab:	74 23                	je     49d0 <removeChunkFromMatrix2__XFftAAJrARamxGOKUFQy9aw+0x40>
    49ad:	48 c7 40 18 00 00 00 	mov    QWORD PTR [rax+0x18],0x0
    49b4:	00 
    49b5:	48 c7 46 18 00 00 00 	mov    QWORD PTR [rsi+0x18],0x0
    49bc:	00 
    49bd:	48 c7 46 10 00 00 00 	mov    QWORD PTR [rsi+0x10],0x0
    49c4:	00 
    49c5:	c3                   	ret    
    49c6:	66 2e 0f 1f 84 00 00 	nop    WORD PTR cs:[rax+rax*1+0x0]
    49cd:	00 00 00 
    49d0:	41 b9 01 00 00 00    	mov    r9d,0x1
    49d6:	83 e1 1f             	and    ecx,0x1f
    49d9:	4c 8d 04 97          	lea    r8,[rdi+rdx*4]
    49dd:	4c 89 c8             	mov    rax,r9
    49e0:	48 d3 e0             	shl    rax,cl
    49e3:	f7 d0                	not    eax
    49e5:	41 21 80 14 10 00 00 	and    DWORD PTR [r8+0x1014],eax
    49ec:	75 c7                	jne    49b5 <removeChunkFromMatrix2__XFftAAJrARamxGOKUFQy9aw+0x25>
    49ee:	83 e2 1f             	and    edx,0x1f
    49f1:	89 d1                	mov    ecx,edx
    49f3:	49 d3 e1             	shl    r9,cl
    49f6:	41 f7 d1             	not    r9d
    49f9:	44 21 8f 10 10 00 00 	and    DWORD PTR [rdi+0x1010],r9d
    4a00:	eb b3                	jmp    49b5 <removeChunkFromMatrix2__XFftAAJrARamxGOKUFQy9aw+0x25>
    4a02:	0f 1f 40 00          	nop    DWORD PTR [rax+0x0]
    4a06:	66 2e 0f 1f 84 00 00 	nop    WORD PTR cs:[rax+rax*1+0x0]
    4a0d:	00 00 00 

0000000000004a10 <getBigChunk__stlXHMKRKFIGOvq8t4ynRQ>:
    4a10:	41 57                	push   r15
    4a12:	41 56                	push   r14
    4a14:	41 55                	push   r13
    4a16:	41 54                	push   r12
    4a18:	55                   	push   rbp
    4a19:	53                   	push   rbx
    4a1a:	48 89 fb             	mov    rbx,rdi
    4a1d:	48 83 ec 18          	sub    rsp,0x18
    4a21:	81 fe ff ff 00 00    	cmp    esi,0xffff
    4a27:	0f 87 db 01 00 00    	ja     4c08 <getBigChunk__stlXHMKRKFIGOvq8t4ynRQ+0x1f8>
    4a2d:	31 d2                	xor    edx,edx
    4a2f:	81 fe ff 00 00 00    	cmp    esi,0xff
    4a35:	89 f0                	mov    eax,esi
    4a37:	0f 87 83 03 00 00    	ja     4dc0 <getBigChunk__stlXHMKRKFIGOvq8t4ynRQ+0x3b0>
    4a3d:	4c 8d 2d bc ab 00 00 	lea    r13,[rip+0xabbc]        # f600 <fsLookupTable__Gn52IZvqY4slyBTOYwGNRQ>
    4a44:	bd 00 00 00 3f       	mov    ebp,0x3f000000
    4a49:	49 0f be 44 05 00    	movsx  rax,BYTE PTR [r13+rax*1+0x0]
    4a4f:	8d 4c 10 fb          	lea    ecx,[rax+rdx*1-0x5]
    4a53:	b8 01 00 00 00       	mov    eax,0x1
    4a58:	48 d3 e0             	shl    rax,cl
    4a5b:	48 05 ff 0f 00 00    	add    rax,0xfff
    4a61:	48 25 00 f0 ff ff    	and    rax,0xfffffffffffff000
    4a67:	48 8d 54 30 ff       	lea    rdx,[rax+rsi*1-0x1]
    4a6c:	48 f7 d8             	neg    rax
    4a6f:	48 21 d0             	and    rax,rdx
    4a72:	48 3d 00 00 00 3f    	cmp    rax,0x3f000000
    4a78:	48 0f 4e e8          	cmovle rbp,rax
    4a7c:	81 fd ff ff 00 00    	cmp    ebp,0xffff
    4a82:	89 ea                	mov    edx,ebp
    4a84:	0f 87 5e 01 00 00    	ja     4be8 <getBigChunk__stlXHMKRKFIGOvq8t4ynRQ+0x1d8>
    4a8a:	31 c9                	xor    ecx,ecx
    4a8c:	81 fd ff 00 00 00    	cmp    ebp,0xff
    4a92:	0f 87 58 03 00 00    	ja     4df0 <getBigChunk__stlXHMKRKFIGOvq8t4ynRQ+0x3e0>
    4a98:	49 0f be 74 15 00    	movsx  rsi,BYTE PTR [r13+rdx*1+0x0]
    4a9e:	48 89 ef             	mov    rdi,rbp
    4aa1:	48 01 ce             	add    rsi,rcx
    4aa4:	8d 4e fb             	lea    ecx,[rsi-0x5]
    4aa7:	48 8d 56 fa          	lea    rdx,[rsi-0x6]
    4aab:	48 d3 ff             	sar    rdi,cl
    4aae:	48 89 f9             	mov    rcx,rdi
    4ab1:	bf ff ff ff ff       	mov    edi,0xffffffff
    4ab6:	48 83 e9 20          	sub    rcx,0x20
    4aba:	49 89 fb             	mov    r11,rdi
    4abd:	49 d3 e3             	shl    r11,cl
    4ac0:	4c 89 d9             	mov    rcx,r11
    4ac3:	23 8c b3 fc 0f 00 00 	and    ecx,DWORD PTR [rbx+rsi*4+0xffc]
    4aca:	0f 84 58 01 00 00    	je     4c28 <getBigChunk__stlXHMKRKFIGOvq8t4ynRQ+0x218>
    4ad0:	89 ce                	mov    esi,ecx
    4ad2:	f7 de                	neg    esi
    4ad4:	21 f1                	and    ecx,esi
    4ad6:	81 f9 ff ff 00 00    	cmp    ecx,0xffff
    4adc:	0f 86 ae 02 00 00    	jbe    4d90 <getBigChunk__stlXHMKRKFIGOvq8t4ynRQ+0x380>
    4ae2:	81 f9 ff ff ff 00    	cmp    ecx,0xffffff
    4ae8:	0f 86 52 04 00 00    	jbe    4f40 <getBigChunk__stlXHMKRKFIGOvq8t4ynRQ+0x530>
    4aee:	c1 e9 18             	shr    ecx,0x18
    4af1:	be 18 00 00 00       	mov    esi,0x18
    4af6:	49 0f be 4c 0d 00    	movsx  rcx,BYTE PTR [r13+rcx*1+0x0]
    4afc:	48 01 f1             	add    rcx,rsi
    4aff:	48 89 d6             	mov    rsi,rdx
    4b02:	48 c1 e6 05          	shl    rsi,0x5
    4b06:	48 8d b4 31 0e 02 00 	lea    rsi,[rcx+rsi*1+0x20e]
    4b0d:	00 
    4b0e:	4c 8b 64 f3 08       	mov    r12,QWORD PTR [rbx+rsi*8+0x8]
    4b13:	4d 85 e4             	test   r12,r12
    4b16:	0f 85 9d 01 00 00    	jne    4cb9 <getBigChunk__stlXHMKRKFIGOvq8t4ynRQ+0x2a9>
    4b1c:	48 3d ff ff 07 00    	cmp    rax,0x7ffff
    4b22:	0f 8e d0 03 00 00    	jle    4ef8 <getBigChunk__stlXHMKRKFIGOvq8t4ynRQ+0x4e8>
    4b28:	48 89 ee             	mov    rsi,rbp
    4b2b:	48 89 df             	mov    rdi,rbx
    4b2e:	e8 ed f7 ff ff       	call   4320 <requestOsChunks__stlXHMKRKFIGOvq8t4ynRQ_2>
    4b33:	48 39 68 08          	cmp    QWORD PTR [rax+0x8],rbp
    4b37:	49 89 c4             	mov    r12,rax
    4b3a:	0f 8e c7 01 00 00    	jle    4d07 <getBigChunk__stlXHMKRKFIGOvq8t4ynRQ+0x2f7>
    4b40:	48 89 ea             	mov    rdx,rbp
    4b43:	4c 89 e6             	mov    rsi,r12
    4b46:	48 89 df             	mov    rdi,rbx
    4b49:	e8 62 c9 ff ff       	call   14b0 <splitChunk2__gSNzk4aToVCSTE1opfEv2A>
    4b4e:	48 8b 50 08          	mov    rdx,QWORD PTR [rax+0x8]
    4b52:	81 fa ff ff 00 00    	cmp    edx,0xffff
    4b58:	89 d1                	mov    ecx,edx
    4b5a:	0f 87 40 03 00 00    	ja     4ea0 <getBigChunk__stlXHMKRKFIGOvq8t4ynRQ+0x490>
    4b60:	31 f6                	xor    esi,esi
    4b62:	81 fa ff 00 00 00    	cmp    edx,0xff
    4b68:	0f 87 e2 03 00 00    	ja     4f50 <getBigChunk__stlXHMKRKFIGOvq8t4ynRQ+0x540>
    4b6e:	49 0f be 4c 0d 00    	movsx  rcx,BYTE PTR [r13+rcx*1+0x0]
    4b74:	48 c7 40 18 00 00 00 	mov    QWORD PTR [rax+0x18],0x0
    4b7b:	00 
    4b7c:	48 01 ce             	add    rsi,rcx
    4b7f:	8d 4e fb             	lea    ecx,[rsi-0x5]
    4b82:	48 d3 fa             	sar    rdx,cl
    4b85:	48 8d 4a e0          	lea    rcx,[rdx-0x20]
    4b89:	48 8d 56 fa          	lea    rdx,[rsi-0x6]
    4b8d:	48 89 d7             	mov    rdi,rdx
    4b90:	48 c1 e7 05          	shl    rdi,0x5
    4b94:	48 01 cf             	add    rdi,rcx
    4b97:	48 8d 3c fb          	lea    rdi,[rbx+rdi*8]
    4b9b:	4c 8b 87 78 10 00 00 	mov    r8,QWORD PTR [rdi+0x1078]
    4ba2:	4c 89 40 10          	mov    QWORD PTR [rax+0x10],r8
    4ba6:	4c 8b 87 78 10 00 00 	mov    r8,QWORD PTR [rdi+0x1078]
    4bad:	4d 85 c0             	test   r8,r8
    4bb0:	74 04                	je     4bb6 <getBigChunk__stlXHMKRKFIGOvq8t4ynRQ+0x1a6>
    4bb2:	49 89 40 18          	mov    QWORD PTR [r8+0x18],rax
    4bb6:	48 89 87 78 10 00 00 	mov    QWORD PTR [rdi+0x1078],rax
    4bbd:	b8 01 00 00 00       	mov    eax,0x1
    4bc2:	83 e1 1f             	and    ecx,0x1f
    4bc5:	48 89 c7             	mov    rdi,rax
    4bc8:	48 d3 e7             	shl    rdi,cl
    4bcb:	89 d1                	mov    ecx,edx
    4bcd:	09 bc b3 fc 0f 00 00 	or     DWORD PTR [rbx+rsi*4+0xffc],edi
    4bd4:	83 e1 1f             	and    ecx,0x1f
    4bd7:	48 d3 e0             	shl    rax,cl
    4bda:	09 83 10 10 00 00    	or     DWORD PTR [rbx+0x1010],eax
    4be0:	e9 22 01 00 00       	jmp    4d07 <getBigChunk__stlXHMKRKFIGOvq8t4ynRQ+0x2f7>
    4be5:	0f 1f 00             	nop    DWORD PTR [rax]
    4be8:	81 fd ff ff ff 00    	cmp    ebp,0xffffff
    4bee:	89 ea                	mov    edx,ebp
    4bf0:	0f 86 0a 02 00 00    	jbe    4e00 <getBigChunk__stlXHMKRKFIGOvq8t4ynRQ+0x3f0>
    4bf6:	c1 ea 18             	shr    edx,0x18
    4bf9:	b9 18 00 00 00       	mov    ecx,0x18
    4bfe:	e9 95 fe ff ff       	jmp    4a98 <getBigChunk__stlXHMKRKFIGOvq8t4ynRQ+0x88>
    4c03:	0f 1f 44 00 00       	nop    DWORD PTR [rax+rax*1+0x0]
    4c08:	81 fe ff ff ff 00    	cmp    esi,0xffffff
    4c0e:	89 f0                	mov    eax,esi
    4c10:	0f 86 9a 01 00 00    	jbe    4db0 <getBigChunk__stlXHMKRKFIGOvq8t4ynRQ+0x3a0>
    4c16:	c1 e8 18             	shr    eax,0x18
    4c19:	ba 18 00 00 00       	mov    edx,0x18
    4c1e:	e9 1a fe ff ff       	jmp    4a3d <getBigChunk__stlXHMKRKFIGOvq8t4ynRQ+0x2d>
    4c23:	0f 1f 44 00 00       	nop    DWORD PTR [rax+rax*1+0x0]
    4c28:	8d 4a 01             	lea    ecx,[rdx+0x1]
    4c2b:	48 d3 e7             	shl    rdi,cl
    4c2e:	23 bb 10 10 00 00    	and    edi,DWORD PTR [rbx+0x1010]
    4c34:	89 fa                	mov    edx,edi
    4c36:	f7 da                	neg    edx
    4c38:	21 d7                	and    edi,edx
    4c3a:	81 ff ff ff 00 00    	cmp    edi,0xffff
    4c40:	0f 86 8a 01 00 00    	jbe    4dd0 <getBigChunk__stlXHMKRKFIGOvq8t4ynRQ+0x3c0>
    4c46:	81 ff ff ff ff 00    	cmp    edi,0xffffff
    4c4c:	0f 86 be 02 00 00    	jbe    4f10 <getBigChunk__stlXHMKRKFIGOvq8t4ynRQ+0x500>
    4c52:	c1 ef 18             	shr    edi,0x18
    4c55:	b9 18 00 00 00       	mov    ecx,0x18
    4c5a:	49 0f be 54 3d 00    	movsx  rdx,BYTE PTR [r13+rdi*1+0x0]
    4c60:	48 01 ca             	add    rdx,rcx
    4c63:	48 85 d2             	test   rdx,rdx
    4c66:	0f 8e b0 fe ff ff    	jle    4b1c <getBigChunk__stlXHMKRKFIGOvq8t4ynRQ+0x10c>
    4c6c:	8b 8c 93 14 10 00 00 	mov    ecx,DWORD PTR [rbx+rdx*4+0x1014]
    4c73:	89 ce                	mov    esi,ecx
    4c75:	f7 de                	neg    esi
    4c77:	21 ce                	and    esi,ecx
    4c79:	81 fe ff ff 00 00    	cmp    esi,0xffff
    4c7f:	0f 87 fb 01 00 00    	ja     4e80 <getBigChunk__stlXHMKRKFIGOvq8t4ynRQ+0x470>
    4c85:	31 ff                	xor    edi,edi
    4c87:	81 fe ff 00 00 00    	cmp    esi,0xff
    4c8d:	0f 87 8d 02 00 00    	ja     4f20 <getBigChunk__stlXHMKRKFIGOvq8t4ynRQ+0x510>
    4c93:	49 0f be 4c 35 00    	movsx  rcx,BYTE PTR [r13+rsi*1+0x0]
    4c99:	48 89 d6             	mov    rsi,rdx
    4c9c:	48 c1 e6 05          	shl    rsi,0x5
    4ca0:	48 01 f9             	add    rcx,rdi
    4ca3:	48 8d b4 31 0e 02 00 	lea    rsi,[rcx+rsi*1+0x20e]
    4caa:	00 
    4cab:	4c 8b 64 f3 08       	mov    r12,QWORD PTR [rbx+rsi*8+0x8]
    4cb0:	4d 85 e4             	test   r12,r12
    4cb3:	0f 84 63 fe ff ff    	je     4b1c <getBigChunk__stlXHMKRKFIGOvq8t4ynRQ+0x10c>
    4cb9:	49 8b 44 24 10       	mov    rax,QWORD PTR [r12+0x10]
    4cbe:	48 89 d6             	mov    rsi,rdx
    4cc1:	48 c1 e6 05          	shl    rsi,0x5
    4cc5:	48 8d b4 31 0e 02 00 	lea    rsi,[rcx+rsi*1+0x20e]
    4ccc:	00 
    4ccd:	48 85 c0             	test   rax,rax
    4cd0:	48 89 44 f3 08       	mov    QWORD PTR [rbx+rsi*8+0x8],rax
    4cd5:	0f 84 e5 01 00 00    	je     4ec0 <getBigChunk__stlXHMKRKFIGOvq8t4ynRQ+0x4b0>
    4cdb:	48 c7 40 18 00 00 00 	mov    QWORD PTR [rax+0x18],0x0
    4ce2:	00 
    4ce3:	48 8d 85 ff 0f 00 00 	lea    rax,[rbp+0xfff]
    4cea:	49 3b 44 24 08       	cmp    rax,QWORD PTR [r12+0x8]
    4cef:	49 c7 44 24 18 00 00 	mov    QWORD PTR [r12+0x18],0x0
    4cf6:	00 00 
    4cf8:	49 c7 44 24 10 00 00 	mov    QWORD PTR [r12+0x10],0x0
    4cff:	00 00 
    4d01:	0f 8c 39 fe ff ff    	jl     4b40 <getBigChunk__stlXHMKRKFIGOvq8t4ynRQ+0x130>
    4d07:	4d 89 e5             	mov    r13,r12
    4d0a:	49 c7 04 24 01 00 00 	mov    QWORD PTR [r12],0x1
    4d11:	00 
    4d12:	4d 89 e6             	mov    r14,r12
    4d15:	49 c1 fd 15          	sar    r13,0x15
    4d19:	49 c1 fe 0c          	sar    r14,0xc
    4d1d:	41 0f b6 c5          	movzx  eax,r13b
    4d21:	4c 8d 3c c3          	lea    r15,[rbx+rax*8]
    4d25:	49 8b 87 a8 28 00 00 	mov    rax,QWORD PTR [r15+0x28a8]
    4d2c:	48 85 c0             	test   rax,rax
    4d2f:	75 1b                	jne    4d4c <getBigChunk__stlXHMKRKFIGOvq8t4ynRQ+0x33c>
    4d31:	e9 da 00 00 00       	jmp    4e10 <getBigChunk__stlXHMKRKFIGOvq8t4ynRQ+0x400>
    4d36:	66 2e 0f 1f 84 00 00 	nop    WORD PTR cs:[rax+rax*1+0x0]
    4d3d:	00 00 00 
    4d40:	48 8b 00             	mov    rax,QWORD PTR [rax]
    4d43:	48 85 c0             	test   rax,rax
    4d46:	0f 84 c4 00 00 00    	je     4e10 <getBigChunk__stlXHMKRKFIGOvq8t4ynRQ+0x400>
    4d4c:	4c 3b 68 08          	cmp    r13,QWORD PTR [rax+0x8]
    4d50:	75 ee                	jne    4d40 <getBigChunk__stlXHMKRKFIGOvq8t4ynRQ+0x330>
    4d52:	4c 89 f1             	mov    rcx,r14
    4d55:	ba 01 00 00 00       	mov    edx,0x1
    4d5a:	81 e1 ff 01 00 00    	and    ecx,0x1ff
    4d60:	48 89 ce             	mov    rsi,rcx
    4d63:	48 d3 e2             	shl    rdx,cl
    4d66:	48 c1 fe 06          	sar    rsi,0x6
    4d6a:	48 09 54 f0 10       	or     QWORD PTR [rax+rsi*8+0x10],rdx
    4d6f:	4c 89 e0             	mov    rax,r12
    4d72:	48 29 ab 90 28 00 00 	sub    QWORD PTR [rbx+0x2890],rbp
    4d79:	48 83 c4 18          	add    rsp,0x18
    4d7d:	5b                   	pop    rbx
    4d7e:	5d                   	pop    rbp
    4d7f:	41 5c                	pop    r12
    4d81:	41 5d                	pop    r13
    4d83:	41 5e                	pop    r14
    4d85:	41 5f                	pop    r15
    4d87:	c3                   	ret    
    4d88:	0f 1f 84 00 00 00 00 	nop    DWORD PTR [rax+rax*1+0x0]
    4d8f:	00 
    4d90:	31 f6                	xor    esi,esi
    4d92:	81 f9 ff 00 00 00    	cmp    ecx,0xff
    4d98:	0f 86 58 fd ff ff    	jbe    4af6 <getBigChunk__stlXHMKRKFIGOvq8t4ynRQ+0xe6>
    4d9e:	c1 e9 08             	shr    ecx,0x8
    4da1:	be 08 00 00 00       	mov    esi,0x8
    4da6:	e9 4b fd ff ff       	jmp    4af6 <getBigChunk__stlXHMKRKFIGOvq8t4ynRQ+0xe6>
    4dab:	0f 1f 44 00 00       	nop    DWORD PTR [rax+rax*1+0x0]
    4db0:	c1 e8 10             	shr    eax,0x10
    4db3:	ba 10 00 00 00       	mov    edx,0x10
    4db8:	e9 80 fc ff ff       	jmp    4a3d <getBigChunk__stlXHMKRKFIGOvq8t4ynRQ+0x2d>
    4dbd:	0f 1f 00             	nop    DWORD PTR [rax]
    4dc0:	c1 e8 08             	shr    eax,0x8
    4dc3:	ba 08 00 00 00       	mov    edx,0x8
    4dc8:	e9 70 fc ff ff       	jmp    4a3d <getBigChunk__stlXHMKRKFIGOvq8t4ynRQ+0x2d>
    4dcd:	0f 1f 00             	nop    DWORD PTR [rax]
    4dd0:	31 c9                	xor    ecx,ecx
    4dd2:	81 ff ff 00 00 00    	cmp    edi,0xff
    4dd8:	0f 86 7c fe ff ff    	jbe    4c5a <getBigChunk__stlXHMKRKFIGOvq8t4ynRQ+0x24a>
    4dde:	c1 ef 08             	shr    edi,0x8
    4de1:	b9 08 00 00 00       	mov    ecx,0x8
    4de6:	e9 6f fe ff ff       	jmp    4c5a <getBigChunk__stlXHMKRKFIGOvq8t4ynRQ+0x24a>
    4deb:	0f 1f 44 00 00       	nop    DWORD PTR [rax+rax*1+0x0]
    4df0:	c1 ea 08             	shr    edx,0x8
    4df3:	b9 08 00 00 00       	mov    ecx,0x8
    4df8:	e9 9b fc ff ff       	jmp    4a98 <getBigChunk__stlXHMKRKFIGOvq8t4ynRQ+0x88>
    4dfd:	0f 1f 00             	nop    DWORD PTR [rax]
    4e00:	c1 ea 10             	shr    edx,0x10
    4e03:	b9 10 00 00 00       	mov    ecx,0x10
    4e08:	e9 8b fc ff ff       	jmp    4a98 <getBigChunk__stlXHMKRKFIGOvq8t4ynRQ+0x88>
    4e0d:	0f 1f 00             	nop    DWORD PTR [rax]
    4e10:	4c 8b 93 78 28 00 00 	mov    r10,QWORD PTR [rbx+0x2878]
    4e17:	4d 85 d2             	test   r10,r10
    4e1a:	0f 84 50 01 00 00    	je     4f70 <getBigChunk__stlXHMKRKFIGOvq8t4ynRQ+0x560>
    4e20:	49 8b 12             	mov    rdx,QWORD PTR [r10]
    4e23:	48 83 fa 4f          	cmp    rdx,0x4f
    4e27:	0f 8e 43 01 00 00    	jle    4f70 <getBigChunk__stlXHMKRKFIGOvq8t4ynRQ+0x560>
    4e2d:	48 83 ea 50          	sub    rdx,0x50
    4e31:	49 8b 42 08          	mov    rax,QWORD PTR [r10+0x8]
    4e35:	49 89 12             	mov    QWORD PTR [r10],rdx
    4e38:	48 8b 93 78 28 00 00 	mov    rdx,QWORD PTR [rbx+0x2878]
    4e3f:	66 0f ef c0          	pxor   xmm0,xmm0
    4e43:	4c 01 d0             	add    rax,r10
    4e46:	48 83 42 08 50       	add    QWORD PTR [rdx+0x8],0x50
    4e4b:	0f 11 00             	movups XMMWORD PTR [rax],xmm0
    4e4e:	0f 11 40 10          	movups XMMWORD PTR [rax+0x10],xmm0
    4e52:	0f 11 40 20          	movups XMMWORD PTR [rax+0x20],xmm0
    4e56:	0f 11 40 30          	movups XMMWORD PTR [rax+0x30],xmm0
    4e5a:	0f 11 40 40          	movups XMMWORD PTR [rax+0x40],xmm0
    4e5e:	49 8b 97 a8 28 00 00 	mov    rdx,QWORD PTR [r15+0x28a8]
    4e65:	48 89 10             	mov    QWORD PTR [rax],rdx
    4e68:	49 89 87 a8 28 00 00 	mov    QWORD PTR [r15+0x28a8],rax
    4e6f:	4c 89 68 08          	mov    QWORD PTR [rax+0x8],r13
    4e73:	e9 da fe ff ff       	jmp    4d52 <getBigChunk__stlXHMKRKFIGOvq8t4ynRQ+0x342>
    4e78:	0f 1f 84 00 00 00 00 	nop    DWORD PTR [rax+rax*1+0x0]
    4e7f:	00 
    4e80:	81 fe ff ff ff 00    	cmp    esi,0xffffff
    4e86:	0f 86 a4 00 00 00    	jbe    4f30 <getBigChunk__stlXHMKRKFIGOvq8t4ynRQ+0x520>
    4e8c:	c1 ee 18             	shr    esi,0x18
    4e8f:	bf 18 00 00 00       	mov    edi,0x18
    4e94:	e9 fa fd ff ff       	jmp    4c93 <getBigChunk__stlXHMKRKFIGOvq8t4ynRQ+0x283>
    4e99:	0f 1f 80 00 00 00 00 	nop    DWORD PTR [rax+0x0]
    4ea0:	81 fa ff ff ff 00    	cmp    edx,0xffffff
    4ea6:	89 d1                	mov    ecx,edx
    4ea8:	0f 86 b2 00 00 00    	jbe    4f60 <getBigChunk__stlXHMKRKFIGOvq8t4ynRQ+0x550>
    4eae:	c1 e9 18             	shr    ecx,0x18
    4eb1:	be 18 00 00 00       	mov    esi,0x18
    4eb6:	e9 b3 fc ff ff       	jmp    4b6e <getBigChunk__stlXHMKRKFIGOvq8t4ynRQ+0x15e>
    4ebb:	0f 1f 44 00 00       	nop    DWORD PTR [rax+rax*1+0x0]
    4ec0:	bf 01 00 00 00       	mov    edi,0x1
    4ec5:	83 e1 1f             	and    ecx,0x1f
    4ec8:	48 8d 34 93          	lea    rsi,[rbx+rdx*4]
    4ecc:	48 89 f8             	mov    rax,rdi
    4ecf:	48 d3 e0             	shl    rax,cl
    4ed2:	f7 d0                	not    eax
    4ed4:	21 86 14 10 00 00    	and    DWORD PTR [rsi+0x1014],eax
    4eda:	0f 85 03 fe ff ff    	jne    4ce3 <getBigChunk__stlXHMKRKFIGOvq8t4ynRQ+0x2d3>
    4ee0:	89 d1                	mov    ecx,edx
    4ee2:	83 e1 1f             	and    ecx,0x1f
    4ee5:	48 d3 e7             	shl    rdi,cl
    4ee8:	f7 d7                	not    edi
    4eea:	21 bb 10 10 00 00    	and    DWORD PTR [rbx+0x1010],edi
    4ef0:	e9 ee fd ff ff       	jmp    4ce3 <getBigChunk__stlXHMKRKFIGOvq8t4ynRQ+0x2d3>
    4ef5:	0f 1f 00             	nop    DWORD PTR [rax]
    4ef8:	be 00 00 08 00       	mov    esi,0x80000
    4efd:	48 89 df             	mov    rdi,rbx
    4f00:	e8 1b f4 ff ff       	call   4320 <requestOsChunks__stlXHMKRKFIGOvq8t4ynRQ_2>
    4f05:	49 89 c4             	mov    r12,rax
    4f08:	e9 33 fc ff ff       	jmp    4b40 <getBigChunk__stlXHMKRKFIGOvq8t4ynRQ+0x130>
    4f0d:	0f 1f 00             	nop    DWORD PTR [rax]
    4f10:	c1 ef 10             	shr    edi,0x10
    4f13:	b9 10 00 00 00       	mov    ecx,0x10
    4f18:	e9 3d fd ff ff       	jmp    4c5a <getBigChunk__stlXHMKRKFIGOvq8t4ynRQ+0x24a>
    4f1d:	0f 1f 00             	nop    DWORD PTR [rax]
    4f20:	c1 ee 08             	shr    esi,0x8
    4f23:	bf 08 00 00 00       	mov    edi,0x8
    4f28:	e9 66 fd ff ff       	jmp    4c93 <getBigChunk__stlXHMKRKFIGOvq8t4ynRQ+0x283>
    4f2d:	0f 1f 00             	nop    DWORD PTR [rax]
    4f30:	c1 ee 10             	shr    esi,0x10
    4f33:	bf 10 00 00 00       	mov    edi,0x10
    4f38:	e9 56 fd ff ff       	jmp    4c93 <getBigChunk__stlXHMKRKFIGOvq8t4ynRQ+0x283>
    4f3d:	0f 1f 00             	nop    DWORD PTR [rax]
    4f40:	c1 e9 10             	shr    ecx,0x10
    4f43:	be 10 00 00 00       	mov    esi,0x10
    4f48:	e9 a9 fb ff ff       	jmp    4af6 <getBigChunk__stlXHMKRKFIGOvq8t4ynRQ+0xe6>
    4f4d:	0f 1f 00             	nop    DWORD PTR [rax]
    4f50:	c1 e9 08             	shr    ecx,0x8
    4f53:	be 08 00 00 00       	mov    esi,0x8
    4f58:	e9 11 fc ff ff       	jmp    4b6e <getBigChunk__stlXHMKRKFIGOvq8t4ynRQ+0x15e>
    4f5d:	0f 1f 00             	nop    DWORD PTR [rax]
    4f60:	c1 e9 10             	shr    ecx,0x10
    4f63:	be 10 00 00 00       	mov    esi,0x10
    4f68:	e9 01 fc ff ff       	jmp    4b6e <getBigChunk__stlXHMKRKFIGOvq8t4ynRQ+0x15e>
    4f6d:	0f 1f 00             	nop    DWORD PTR [rax]
    4f70:	45 31 c9             	xor    r9d,r9d
    4f73:	ba 03 00 00 00       	mov    edx,0x3
    4f78:	31 ff                	xor    edi,edi
    4f7a:	41 b8 ff ff ff ff    	mov    r8d,0xffffffff
    4f80:	b9 22 00 00 00       	mov    ecx,0x22
    4f85:	be 00 10 00 00       	mov    esi,0x1000
    4f8a:	4c 89 14 24          	mov    QWORD PTR [rsp],r10
    4f8e:	e8 dd b9 ff ff       	call   970 <mmap@plt>
    4f93:	48 8d 50 ff          	lea    rdx,[rax-0x1]
    4f97:	4c 8b 14 24          	mov    r10,QWORD PTR [rsp]
    4f9b:	48 83 fa fd          	cmp    rdx,0xfffffffffffffffd
    4f9f:	76 13                	jbe    4fb4 <getBigChunk__stlXHMKRKFIGOvq8t4ynRQ+0x5a4>
    4fa1:	48 89 44 24 08       	mov    QWORD PTR [rsp+0x8],rax
    4fa6:	e8 55 c1 ff ff       	call   1100 <raiseOutOfMem__mMRdr4sgmnykA9aWeM9aDZlw>
    4fab:	48 8b 44 24 08       	mov    rax,QWORD PTR [rsp+0x8]
    4fb0:	4c 8b 14 24          	mov    r10,QWORD PTR [rsp]
    4fb4:	48 89 83 78 28 00 00 	mov    QWORD PTR [rbx+0x2878],rax
    4fbb:	48 81 83 80 28 00 00 	add    QWORD PTR [rbx+0x2880],0x1000
    4fc2:	00 10 00 00 
    4fc6:	48 c7 00 e8 0f 00 00 	mov    QWORD PTR [rax],0xfe8
    4fcd:	48 8b 83 78 28 00 00 	mov    rax,QWORD PTR [rbx+0x2878]
    4fd4:	48 c7 40 08 18 00 00 	mov    QWORD PTR [rax+0x8],0x18
    4fdb:	00 
    4fdc:	48 8b 83 78 28 00 00 	mov    rax,QWORD PTR [rbx+0x2878]
    4fe3:	4c 89 50 10          	mov    QWORD PTR [rax+0x10],r10
    4fe7:	4c 8b 93 78 28 00 00 	mov    r10,QWORD PTR [rbx+0x2878]
    4fee:	49 8b 12             	mov    rdx,QWORD PTR [r10]
    4ff1:	e9 37 fe ff ff       	jmp    4e2d <getBigChunk__stlXHMKRKFIGOvq8t4ynRQ+0x41d>
    4ff6:	66 2e 0f 1f 84 00 00 	nop    WORD PTR cs:[rax+rax*1+0x0]
    4ffd:	00 00 00 

0000000000005000 <getSmallChunk__0ixBBlKB5QN59bxrmztRmCw>:
    5000:	41 57                	push   r15
    5002:	41 56                	push   r14
    5004:	41 55                	push   r13
    5006:	41 54                	push   r12
    5008:	55                   	push   rbp
    5009:	53                   	push   rbx
    500a:	48 89 fb             	mov    rbx,rdi
    500d:	48 83 ec 18          	sub    rsp,0x18
    5011:	8b 97 2c 10 00 00    	mov    edx,DWORD PTR [rdi+0x102c]
    5017:	85 d2                	test   edx,edx
    5019:	0f 84 09 01 00 00    	je     5128 <getSmallChunk__0ixBBlKB5QN59bxrmztRmCw+0x128>
    501f:	89 d0                	mov    eax,edx
    5021:	f7 d8                	neg    eax
    5023:	21 d0                	and    eax,edx
    5025:	3d ff ff 00 00       	cmp    eax,0xffff
    502a:	0f 86 70 02 00 00    	jbe    52a0 <getSmallChunk__0ixBBlKB5QN59bxrmztRmCw+0x2a0>
    5030:	3d ff ff ff 00       	cmp    eax,0xffffff
    5035:	0f 86 95 03 00 00    	jbe    53d0 <getSmallChunk__0ixBBlKB5QN59bxrmztRmCw+0x3d0>
    503b:	c1 e8 18             	shr    eax,0x18
    503e:	ba 18 00 00 00       	mov    edx,0x18
    5043:	4c 8d 25 b6 a5 00 00 	lea    r12,[rip+0xa5b6]        # f600 <fsLookupTable__Gn52IZvqY4slyBTOYwGNRQ>
    504a:	49 0f be 0c 04       	movsx  rcx,BYTE PTR [r12+rax*1]
    504f:	48 01 d1             	add    rcx,rdx
    5052:	ba 06 00 00 00       	mov    edx,0x6
    5057:	48 8b ac cb 78 16 00 	mov    rbp,QWORD PTR [rbx+rcx*8+0x1678]
    505e:	00 
    505f:	48 85 ed             	test   rbp,rbp
    5062:	0f 85 4f 01 00 00    	jne    51b7 <getSmallChunk__0ixBBlKB5QN59bxrmztRmCw+0x1b7>
    5068:	be 00 00 08 00       	mov    esi,0x80000
    506d:	48 89 df             	mov    rdi,rbx
    5070:	e8 ab f2 ff ff       	call   4320 <requestOsChunks__stlXHMKRKFIGOvq8t4ynRQ_2>
    5075:	48 89 c5             	mov    rbp,rax
    5078:	ba 00 10 00 00       	mov    edx,0x1000
    507d:	48 89 ee             	mov    rsi,rbp
    5080:	48 89 df             	mov    rdi,rbx
    5083:	e8 28 c4 ff ff       	call   14b0 <splitChunk2__gSNzk4aToVCSTE1opfEv2A>
    5088:	48 8b 50 08          	mov    rdx,QWORD PTR [rax+0x8]
    508c:	81 fa ff ff 00 00    	cmp    edx,0xffff
    5092:	89 d1                	mov    ecx,edx
    5094:	0f 87 e6 02 00 00    	ja     5380 <getSmallChunk__0ixBBlKB5QN59bxrmztRmCw+0x380>
    509a:	31 f6                	xor    esi,esi
    509c:	81 fa ff 00 00 00    	cmp    edx,0xff
    50a2:	76 08                	jbe    50ac <getSmallChunk__0ixBBlKB5QN59bxrmztRmCw+0xac>
    50a4:	c1 e9 08             	shr    ecx,0x8
    50a7:	be 08 00 00 00       	mov    esi,0x8
    50ac:	49 0f be 0c 0c       	movsx  rcx,BYTE PTR [r12+rcx*1]
    50b1:	48 c7 40 18 00 00 00 	mov    QWORD PTR [rax+0x18],0x0
    50b8:	00 
    50b9:	48 01 ce             	add    rsi,rcx
    50bc:	8d 4e fb             	lea    ecx,[rsi-0x5]
    50bf:	48 d3 fa             	sar    rdx,cl
    50c2:	48 8d 4a e0          	lea    rcx,[rdx-0x20]
    50c6:	48 8d 56 fa          	lea    rdx,[rsi-0x6]
    50ca:	48 89 d7             	mov    rdi,rdx
    50cd:	48 c1 e7 05          	shl    rdi,0x5
    50d1:	48 01 cf             	add    rdi,rcx
    50d4:	48 8d 3c fb          	lea    rdi,[rbx+rdi*8]
    50d8:	4c 8b 87 78 10 00 00 	mov    r8,QWORD PTR [rdi+0x1078]
    50df:	4c 89 40 10          	mov    QWORD PTR [rax+0x10],r8
    50e3:	4c 8b 87 78 10 00 00 	mov    r8,QWORD PTR [rdi+0x1078]
    50ea:	4d 85 c0             	test   r8,r8
    50ed:	74 04                	je     50f3 <getSmallChunk__0ixBBlKB5QN59bxrmztRmCw+0xf3>
    50ef:	49 89 40 18          	mov    QWORD PTR [r8+0x18],rax
    50f3:	48 89 87 78 10 00 00 	mov    QWORD PTR [rdi+0x1078],rax
    50fa:	b8 01 00 00 00       	mov    eax,0x1
    50ff:	83 e1 1f             	and    ecx,0x1f
    5102:	48 89 c7             	mov    rdi,rax
    5105:	48 d3 e7             	shl    rdi,cl
    5108:	89 d1                	mov    ecx,edx
    510a:	09 bc b3 fc 0f 00 00 	or     DWORD PTR [rbx+rsi*4+0xffc],edi
    5111:	83 e1 1f             	and    ecx,0x1f
    5114:	48 d3 e0             	shl    rax,cl
    5117:	09 83 10 10 00 00    	or     DWORD PTR [rbx+0x1010],eax
    511d:	e9 dc 00 00 00       	jmp    51fe <getSmallChunk__0ixBBlKB5QN59bxrmztRmCw+0x1fe>
    5122:	66 0f 1f 44 00 00    	nop    WORD PTR [rax+rax*1+0x0]
    5128:	8b 97 10 10 00 00    	mov    edx,DWORD PTR [rdi+0x1010]
    512e:	83 e2 80             	and    edx,0xffffff80
    5131:	89 d0                	mov    eax,edx
    5133:	f7 d8                	neg    eax
    5135:	21 d0                	and    eax,edx
    5137:	3d ff ff 00 00       	cmp    eax,0xffff
    513c:	0f 86 3e 01 00 00    	jbe    5280 <getSmallChunk__0ixBBlKB5QN59bxrmztRmCw+0x280>
    5142:	3d ff ff ff 00       	cmp    eax,0xffffff
    5147:	0f 86 53 02 00 00    	jbe    53a0 <getSmallChunk__0ixBBlKB5QN59bxrmztRmCw+0x3a0>
    514d:	c1 e8 18             	shr    eax,0x18
    5150:	b9 18 00 00 00       	mov    ecx,0x18
    5155:	4c 8d 25 a4 a4 00 00 	lea    r12,[rip+0xa4a4]        # f600 <fsLookupTable__Gn52IZvqY4slyBTOYwGNRQ>
    515c:	49 0f be 14 04       	movsx  rdx,BYTE PTR [r12+rax*1]
    5161:	48 01 ca             	add    rdx,rcx
    5164:	48 85 d2             	test   rdx,rdx
    5167:	0f 8e fb fe ff ff    	jle    5068 <getSmallChunk__0ixBBlKB5QN59bxrmztRmCw+0x68>
    516d:	8b 8c 93 14 10 00 00 	mov    ecx,DWORD PTR [rbx+rdx*4+0x1014]
    5174:	89 c8                	mov    eax,ecx
    5176:	f7 d8                	neg    eax
    5178:	21 c8                	and    eax,ecx
    517a:	3d ff ff 00 00       	cmp    eax,0xffff
    517f:	0f 87 ab 01 00 00    	ja     5330 <getSmallChunk__0ixBBlKB5QN59bxrmztRmCw+0x330>
    5185:	31 f6                	xor    esi,esi
    5187:	3d ff 00 00 00       	cmp    eax,0xff
    518c:	0f 87 2e 02 00 00    	ja     53c0 <getSmallChunk__0ixBBlKB5QN59bxrmztRmCw+0x3c0>
    5192:	49 0f be 0c 04       	movsx  rcx,BYTE PTR [r12+rax*1]
    5197:	48 89 d0             	mov    rax,rdx
    519a:	48 c1 e0 05          	shl    rax,0x5
    519e:	48 01 f1             	add    rcx,rsi
    51a1:	48 8d 84 01 0e 02 00 	lea    rax,[rcx+rax*1+0x20e]
    51a8:	00 
    51a9:	48 8b 6c c3 08       	mov    rbp,QWORD PTR [rbx+rax*8+0x8]
    51ae:	48 85 ed             	test   rbp,rbp
    51b1:	0f 84 b1 fe ff ff    	je     5068 <getSmallChunk__0ixBBlKB5QN59bxrmztRmCw+0x68>
    51b7:	48 8b 45 10          	mov    rax,QWORD PTR [rbp+0x10]
    51bb:	48 89 d6             	mov    rsi,rdx
    51be:	48 c1 e6 05          	shl    rsi,0x5
    51c2:	48 8d b4 31 0e 02 00 	lea    rsi,[rcx+rsi*1+0x20e]
    51c9:	00 
    51ca:	48 85 c0             	test   rax,rax
    51cd:	48 89 44 f3 08       	mov    QWORD PTR [rbx+rsi*8+0x8],rax
    51d2:	0f 84 70 01 00 00    	je     5348 <getSmallChunk__0ixBBlKB5QN59bxrmztRmCw+0x348>
    51d8:	48 c7 40 18 00 00 00 	mov    QWORD PTR [rax+0x18],0x0
    51df:	00 
    51e0:	48 81 7d 08 ff 1f 00 	cmp    QWORD PTR [rbp+0x8],0x1fff
    51e7:	00 
    51e8:	48 c7 45 18 00 00 00 	mov    QWORD PTR [rbp+0x18],0x0
    51ef:	00 
    51f0:	48 c7 45 10 00 00 00 	mov    QWORD PTR [rbp+0x10],0x0
    51f7:	00 
    51f8:	0f 8f 7a fe ff ff    	jg     5078 <getSmallChunk__0ixBBlKB5QN59bxrmztRmCw+0x78>
    51fe:	49 89 ec             	mov    r12,rbp
    5201:	48 c7 45 00 01 00 00 	mov    QWORD PTR [rbp+0x0],0x1
    5208:	00 
    5209:	49 89 ed             	mov    r13,rbp
    520c:	49 c1 fc 15          	sar    r12,0x15
    5210:	49 c1 fd 0c          	sar    r13,0xc
    5214:	41 0f b6 c4          	movzx  eax,r12b
    5218:	4c 8d 34 c3          	lea    r14,[rbx+rax*8]
    521c:	49 8b 86 a8 28 00 00 	mov    rax,QWORD PTR [r14+0x28a8]
    5223:	48 85 c0             	test   rax,rax
    5226:	75 14                	jne    523c <getSmallChunk__0ixBBlKB5QN59bxrmztRmCw+0x23c>
    5228:	e9 93 00 00 00       	jmp    52c0 <getSmallChunk__0ixBBlKB5QN59bxrmztRmCw+0x2c0>
    522d:	0f 1f 00             	nop    DWORD PTR [rax]
    5230:	48 8b 00             	mov    rax,QWORD PTR [rax]
    5233:	48 85 c0             	test   rax,rax
    5236:	0f 84 84 00 00 00    	je     52c0 <getSmallChunk__0ixBBlKB5QN59bxrmztRmCw+0x2c0>
    523c:	4c 3b 60 08          	cmp    r12,QWORD PTR [rax+0x8]
    5240:	75 ee                	jne    5230 <getSmallChunk__0ixBBlKB5QN59bxrmztRmCw+0x230>
    5242:	4c 89 e9             	mov    rcx,r13
    5245:	ba 01 00 00 00       	mov    edx,0x1
    524a:	81 e1 ff 01 00 00    	and    ecx,0x1ff
    5250:	48 89 ce             	mov    rsi,rcx
    5253:	48 d3 e2             	shl    rdx,cl
    5256:	48 c1 fe 06          	sar    rsi,0x6
    525a:	48 09 54 f0 10       	or     QWORD PTR [rax+rsi*8+0x10],rdx
    525f:	48 89 e8             	mov    rax,rbp
    5262:	48 81 ab 90 28 00 00 	sub    QWORD PTR [rbx+0x2890],0x1000
    5269:	00 10 00 00 
    526d:	48 83 c4 18          	add    rsp,0x18
    5271:	5b                   	pop    rbx
    5272:	5d                   	pop    rbp
    5273:	41 5c                	pop    r12
    5275:	41 5d                	pop    r13
    5277:	41 5e                	pop    r14
    5279:	41 5f                	pop    r15
    527b:	c3                   	ret    
    527c:	0f 1f 40 00          	nop    DWORD PTR [rax+0x0]
    5280:	31 c9                	xor    ecx,ecx
    5282:	3d ff 00 00 00       	cmp    eax,0xff
    5287:	0f 86 c8 fe ff ff    	jbe    5155 <getSmallChunk__0ixBBlKB5QN59bxrmztRmCw+0x155>
    528d:	c1 e8 08             	shr    eax,0x8
    5290:	b9 08 00 00 00       	mov    ecx,0x8
    5295:	e9 bb fe ff ff       	jmp    5155 <getSmallChunk__0ixBBlKB5QN59bxrmztRmCw+0x155>
    529a:	66 0f 1f 44 00 00    	nop    WORD PTR [rax+rax*1+0x0]
    52a0:	31 d2                	xor    edx,edx
    52a2:	3d ff 00 00 00       	cmp    eax,0xff
    52a7:	0f 86 96 fd ff ff    	jbe    5043 <getSmallChunk__0ixBBlKB5QN59bxrmztRmCw+0x43>
    52ad:	c1 e8 08             	shr    eax,0x8
    52b0:	ba 08 00 00 00       	mov    edx,0x8
    52b5:	e9 89 fd ff ff       	jmp    5043 <getSmallChunk__0ixBBlKB5QN59bxrmztRmCw+0x43>
    52ba:	66 0f 1f 44 00 00    	nop    WORD PTR [rax+rax*1+0x0]
    52c0:	4c 8b bb 78 28 00 00 	mov    r15,QWORD PTR [rbx+0x2878]
    52c7:	4d 85 ff             	test   r15,r15
    52ca:	0f 84 20 01 00 00    	je     53f0 <getSmallChunk__0ixBBlKB5QN59bxrmztRmCw+0x3f0>
    52d0:	49 8b 17             	mov    rdx,QWORD PTR [r15]
    52d3:	48 83 fa 4f          	cmp    rdx,0x4f
    52d7:	0f 8e 13 01 00 00    	jle    53f0 <getSmallChunk__0ixBBlKB5QN59bxrmztRmCw+0x3f0>
    52dd:	48 83 ea 50          	sub    rdx,0x50
    52e1:	49 8b 47 08          	mov    rax,QWORD PTR [r15+0x8]
    52e5:	49 89 17             	mov    QWORD PTR [r15],rdx
    52e8:	48 8b 93 78 28 00 00 	mov    rdx,QWORD PTR [rbx+0x2878]
    52ef:	66 0f ef c0          	pxor   xmm0,xmm0
    52f3:	4c 01 f8             	add    rax,r15
    52f6:	48 83 42 08 50       	add    QWORD PTR [rdx+0x8],0x50
    52fb:	0f 11 00             	movups XMMWORD PTR [rax],xmm0
    52fe:	0f 11 40 10          	movups XMMWORD PTR [rax+0x10],xmm0
    5302:	0f 11 40 20          	movups XMMWORD PTR [rax+0x20],xmm0
    5306:	0f 11 40 30          	movups XMMWORD PTR [rax+0x30],xmm0
    530a:	0f 11 40 40          	movups XMMWORD PTR [rax+0x40],xmm0
    530e:	49 8b 96 a8 28 00 00 	mov    rdx,QWORD PTR [r14+0x28a8]
    5315:	48 89 10             	mov    QWORD PTR [rax],rdx
    5318:	49 89 86 a8 28 00 00 	mov    QWORD PTR [r14+0x28a8],rax
    531f:	4c 89 60 08          	mov    QWORD PTR [rax+0x8],r12
    5323:	e9 1a ff ff ff       	jmp    5242 <getSmallChunk__0ixBBlKB5QN59bxrmztRmCw+0x242>
    5328:	0f 1f 84 00 00 00 00 	nop    DWORD PTR [rax+rax*1+0x0]
    532f:	00 
    5330:	3d ff ff ff 00       	cmp    eax,0xffffff
    5335:	76 79                	jbe    53b0 <getSmallChunk__0ixBBlKB5QN59bxrmztRmCw+0x3b0>
    5337:	c1 e8 18             	shr    eax,0x18
    533a:	be 18 00 00 00       	mov    esi,0x18
    533f:	e9 4e fe ff ff       	jmp    5192 <getSmallChunk__0ixBBlKB5QN59bxrmztRmCw+0x192>
    5344:	0f 1f 40 00          	nop    DWORD PTR [rax+0x0]
    5348:	bf 01 00 00 00       	mov    edi,0x1
    534d:	83 e1 1f             	and    ecx,0x1f
    5350:	48 8d 34 93          	lea    rsi,[rbx+rdx*4]
    5354:	48 89 f8             	mov    rax,rdi
    5357:	48 d3 e0             	shl    rax,cl
    535a:	f7 d0                	not    eax
    535c:	21 86 14 10 00 00    	and    DWORD PTR [rsi+0x1014],eax
    5362:	0f 85 78 fe ff ff    	jne    51e0 <getSmallChunk__0ixBBlKB5QN59bxrmztRmCw+0x1e0>
    5368:	89 d1                	mov    ecx,edx
    536a:	83 e1 1f             	and    ecx,0x1f
    536d:	48 d3 e7             	shl    rdi,cl
    5370:	f7 d7                	not    edi
    5372:	21 bb 10 10 00 00    	and    DWORD PTR [rbx+0x1010],edi
    5378:	e9 63 fe ff ff       	jmp    51e0 <getSmallChunk__0ixBBlKB5QN59bxrmztRmCw+0x1e0>
    537d:	0f 1f 00             	nop    DWORD PTR [rax]
    5380:	81 fa ff ff ff 00    	cmp    edx,0xffffff
    5386:	89 d1                	mov    ecx,edx
    5388:	76 56                	jbe    53e0 <getSmallChunk__0ixBBlKB5QN59bxrmztRmCw+0x3e0>
    538a:	c1 e9 18             	shr    ecx,0x18
    538d:	be 18 00 00 00       	mov    esi,0x18
    5392:	e9 15 fd ff ff       	jmp    50ac <getSmallChunk__0ixBBlKB5QN59bxrmztRmCw+0xac>
    5397:	66 0f 1f 84 00 00 00 	nop    WORD PTR [rax+rax*1+0x0]
    539e:	00 00 
    53a0:	c1 e8 10             	shr    eax,0x10
    53a3:	b9 10 00 00 00       	mov    ecx,0x10
    53a8:	e9 a8 fd ff ff       	jmp    5155 <getSmallChunk__0ixBBlKB5QN59bxrmztRmCw+0x155>
    53ad:	0f 1f 00             	nop    DWORD PTR [rax]
    53b0:	c1 e8 10             	shr    eax,0x10
    53b3:	be 10 00 00 00       	mov    esi,0x10
    53b8:	e9 d5 fd ff ff       	jmp    5192 <getSmallChunk__0ixBBlKB5QN59bxrmztRmCw+0x192>
    53bd:	0f 1f 00             	nop    DWORD PTR [rax]
    53c0:	c1 e8 08             	shr    eax,0x8
    53c3:	be 08 00 00 00       	mov    esi,0x8
    53c8:	e9 c5 fd ff ff       	jmp    5192 <getSmallChunk__0ixBBlKB5QN59bxrmztRmCw+0x192>
    53cd:	0f 1f 00             	nop    DWORD PTR [rax]
    53d0:	c1 e8 10             	shr    eax,0x10
    53d3:	ba 10 00 00 00       	mov    edx,0x10
    53d8:	e9 66 fc ff ff       	jmp    5043 <getSmallChunk__0ixBBlKB5QN59bxrmztRmCw+0x43>
    53dd:	0f 1f 00             	nop    DWORD PTR [rax]
    53e0:	c1 e9 10             	shr    ecx,0x10
    53e3:	be 10 00 00 00       	mov    esi,0x10
    53e8:	e9 bf fc ff ff       	jmp    50ac <getSmallChunk__0ixBBlKB5QN59bxrmztRmCw+0xac>
    53ed:	0f 1f 00             	nop    DWORD PTR [rax]
    53f0:	45 31 c9             	xor    r9d,r9d
    53f3:	ba 03 00 00 00       	mov    edx,0x3
    53f8:	31 ff                	xor    edi,edi
    53fa:	41 b8 ff ff ff ff    	mov    r8d,0xffffffff
    5400:	b9 22 00 00 00       	mov    ecx,0x22
    5405:	be 00 10 00 00       	mov    esi,0x1000
    540a:	e8 61 b5 ff ff       	call   970 <mmap@plt>
    540f:	48 8d 50 ff          	lea    rdx,[rax-0x1]
    5413:	48 83 fa fd          	cmp    rdx,0xfffffffffffffffd
    5417:	76 0f                	jbe    5428 <getSmallChunk__0ixBBlKB5QN59bxrmztRmCw+0x428>
    5419:	48 89 44 24 08       	mov    QWORD PTR [rsp+0x8],rax
    541e:	e8 dd bc ff ff       	call   1100 <raiseOutOfMem__mMRdr4sgmnykA9aWeM9aDZlw>
    5423:	48 8b 44 24 08       	mov    rax,QWORD PTR [rsp+0x8]
    5428:	48 89 83 78 28 00 00 	mov    QWORD PTR [rbx+0x2878],rax
    542f:	48 81 83 80 28 00 00 	add    QWORD PTR [rbx+0x2880],0x1000
    5436:	00 10 00 00 
    543a:	48 c7 00 e8 0f 00 00 	mov    QWORD PTR [rax],0xfe8
    5441:	48 8b 83 78 28 00 00 	mov    rax,QWORD PTR [rbx+0x2878]
    5448:	48 c7 40 08 18 00 00 	mov    QWORD PTR [rax+0x8],0x18
    544f:	00 
    5450:	48 8b 83 78 28 00 00 	mov    rax,QWORD PTR [rbx+0x2878]
    5457:	4c 89 78 10          	mov    QWORD PTR [rax+0x10],r15
    545b:	4c 8b bb 78 28 00 00 	mov    r15,QWORD PTR [rbx+0x2878]
    5462:	49 8b 17             	mov    rdx,QWORD PTR [r15]
    5465:	e9 73 fe ff ff       	jmp    52dd <getSmallChunk__0ixBBlKB5QN59bxrmztRmCw+0x2dd>
    546a:	66 0f 1f 44 00 00    	nop    WORD PTR [rax+rax*1+0x0]

0000000000005470 <getHugeChunk__stlXHMKRKFIGOvq8t4ynRQ_3>:
    5470:	41 57                	push   r15
    5472:	41 56                	push   r14
    5474:	45 31 c9             	xor    r9d,r9d
    5477:	41 55                	push   r13
    5479:	41 54                	push   r12
    547b:	41 b8 ff ff ff ff    	mov    r8d,0xffffffff
    5481:	55                   	push   rbp
    5482:	53                   	push   rbx
    5483:	49 89 fc             	mov    r12,rdi
    5486:	b9 22 00 00 00       	mov    ecx,0x22
    548b:	31 ff                	xor    edi,edi
    548d:	ba 03 00 00 00       	mov    edx,0x3
    5492:	48 83 ec 18          	sub    rsp,0x18
    5496:	48 89 f5             	mov    rbp,rsi
    5499:	e8 d2 b4 ff ff       	call   970 <mmap@plt>
    549e:	48 89 c3             	mov    rbx,rax
    54a1:	48 83 e8 01          	sub    rax,0x1
    54a5:	48 83 f8 fd          	cmp    rax,0xfffffffffffffffd
    54a9:	76 05                	jbe    54b0 <getHugeChunk__stlXHMKRKFIGOvq8t4ynRQ_3+0x40>
    54ab:	e8 50 bc ff ff       	call   1100 <raiseOutOfMem__mMRdr4sgmnykA9aWeM9aDZlw>
    54b0:	49 01 ac 24 80 28 00 	add    QWORD PTR [r12+0x2880],rbp
    54b7:	00 
    54b8:	48 89 6b 08          	mov    QWORD PTR [rbx+0x8],rbp
    54bc:	48 89 dd             	mov    rbp,rbx
    54bf:	48 c1 fd 15          	sar    rbp,0x15
    54c3:	48 c7 43 10 00 00 00 	mov    QWORD PTR [rbx+0x10],0x0
    54ca:	00 
    54cb:	48 c7 43 18 00 00 00 	mov    QWORD PTR [rbx+0x18],0x0
    54d2:	00 
    54d3:	40 0f b6 c5          	movzx  eax,bpl
    54d7:	48 c7 03 01 00 00 00 	mov    QWORD PTR [rbx],0x1
    54de:	49 89 dd             	mov    r13,rbx
    54e1:	4d 8d 34 c4          	lea    r14,[r12+rax*8]
    54e5:	49 c1 fd 0c          	sar    r13,0xc
    54e9:	49 8b 86 a8 28 00 00 	mov    rax,QWORD PTR [r14+0x28a8]
    54f0:	48 85 c0             	test   rax,rax
    54f3:	75 13                	jne    5508 <getHugeChunk__stlXHMKRKFIGOvq8t4ynRQ_3+0x98>
    54f5:	eb 49                	jmp    5540 <getHugeChunk__stlXHMKRKFIGOvq8t4ynRQ_3+0xd0>
    54f7:	66 0f 1f 84 00 00 00 	nop    WORD PTR [rax+rax*1+0x0]
    54fe:	00 00 
    5500:	48 8b 00             	mov    rax,QWORD PTR [rax]
    5503:	48 85 c0             	test   rax,rax
    5506:	74 38                	je     5540 <getHugeChunk__stlXHMKRKFIGOvq8t4ynRQ_3+0xd0>
    5508:	48 3b 68 08          	cmp    rbp,QWORD PTR [rax+0x8]
    550c:	75 f2                	jne    5500 <getHugeChunk__stlXHMKRKFIGOvq8t4ynRQ_3+0x90>
    550e:	4c 89 e9             	mov    rcx,r13
    5511:	ba 01 00 00 00       	mov    edx,0x1
    5516:	81 e1 ff 01 00 00    	and    ecx,0x1ff
    551c:	48 89 ce             	mov    rsi,rcx
    551f:	48 d3 e2             	shl    rdx,cl
    5522:	48 c1 fe 06          	sar    rsi,0x6
    5526:	48 09 54 f0 10       	or     QWORD PTR [rax+rsi*8+0x10],rdx
    552b:	48 83 c4 18          	add    rsp,0x18
    552f:	48 89 d8             	mov    rax,rbx
    5532:	5b                   	pop    rbx
    5533:	5d                   	pop    rbp
    5534:	41 5c                	pop    r12
    5536:	41 5d                	pop    r13
    5538:	41 5e                	pop    r14
    553a:	41 5f                	pop    r15
    553c:	c3                   	ret    
    553d:	0f 1f 00             	nop    DWORD PTR [rax]
    5540:	4d 8b bc 24 78 28 00 	mov    r15,QWORD PTR [r12+0x2878]
    5547:	00 
    5548:	4d 85 ff             	test   r15,r15
    554b:	74 5b                	je     55a8 <getHugeChunk__stlXHMKRKFIGOvq8t4ynRQ_3+0x138>
    554d:	49 8b 17             	mov    rdx,QWORD PTR [r15]
    5550:	48 83 fa 4f          	cmp    rdx,0x4f
    5554:	7e 52                	jle    55a8 <getHugeChunk__stlXHMKRKFIGOvq8t4ynRQ_3+0x138>
    5556:	48 83 ea 50          	sub    rdx,0x50
    555a:	49 8b 47 08          	mov    rax,QWORD PTR [r15+0x8]
    555e:	49 89 17             	mov    QWORD PTR [r15],rdx
    5561:	49 8b 94 24 78 28 00 	mov    rdx,QWORD PTR [r12+0x2878]
    5568:	00 
    5569:	66 0f ef c0          	pxor   xmm0,xmm0
    556d:	4c 01 f8             	add    rax,r15
    5570:	48 83 42 08 50       	add    QWORD PTR [rdx+0x8],0x50
    5575:	0f 11 00             	movups XMMWORD PTR [rax],xmm0
    5578:	0f 11 40 10          	movups XMMWORD PTR [rax+0x10],xmm0
    557c:	0f 11 40 20          	movups XMMWORD PTR [rax+0x20],xmm0
    5580:	0f 11 40 30          	movups XMMWORD PTR [rax+0x30],xmm0
    5584:	0f 11 40 40          	movups XMMWORD PTR [rax+0x40],xmm0
    5588:	49 8b 96 a8 28 00 00 	mov    rdx,QWORD PTR [r14+0x28a8]
    558f:	48 89 10             	mov    QWORD PTR [rax],rdx
    5592:	49 89 86 a8 28 00 00 	mov    QWORD PTR [r14+0x28a8],rax
    5599:	48 89 68 08          	mov    QWORD PTR [rax+0x8],rbp
    559d:	e9 6c ff ff ff       	jmp    550e <getHugeChunk__stlXHMKRKFIGOvq8t4ynRQ_3+0x9e>
    55a2:	66 0f 1f 44 00 00    	nop    WORD PTR [rax+rax*1+0x0]
    55a8:	45 31 c9             	xor    r9d,r9d
    55ab:	ba 03 00 00 00       	mov    edx,0x3
    55b0:	31 ff                	xor    edi,edi
    55b2:	41 b8 ff ff ff ff    	mov    r8d,0xffffffff
    55b8:	b9 22 00 00 00       	mov    ecx,0x22
    55bd:	be 00 10 00 00       	mov    esi,0x1000
    55c2:	e8 a9 b3 ff ff       	call   970 <mmap@plt>
    55c7:	48 8d 50 ff          	lea    rdx,[rax-0x1]
    55cb:	48 83 fa fd          	cmp    rdx,0xfffffffffffffffd
    55cf:	76 0f                	jbe    55e0 <getHugeChunk__stlXHMKRKFIGOvq8t4ynRQ_3+0x170>
    55d1:	48 89 44 24 08       	mov    QWORD PTR [rsp+0x8],rax
    55d6:	e8 25 bb ff ff       	call   1100 <raiseOutOfMem__mMRdr4sgmnykA9aWeM9aDZlw>
    55db:	48 8b 44 24 08       	mov    rax,QWORD PTR [rsp+0x8]
    55e0:	49 89 84 24 78 28 00 	mov    QWORD PTR [r12+0x2878],rax
    55e7:	00 
    55e8:	49 81 84 24 80 28 00 	add    QWORD PTR [r12+0x2880],0x1000
    55ef:	00 00 10 00 00 
    55f4:	48 c7 00 e8 0f 00 00 	mov    QWORD PTR [rax],0xfe8
    55fb:	49 8b 84 24 78 28 00 	mov    rax,QWORD PTR [r12+0x2878]
    5602:	00 
    5603:	48 c7 40 08 18 00 00 	mov    QWORD PTR [rax+0x8],0x18
    560a:	00 
    560b:	49 8b 84 24 78 28 00 	mov    rax,QWORD PTR [r12+0x2878]
    5612:	00 
    5613:	4c 89 78 10          	mov    QWORD PTR [rax+0x10],r15
    5617:	4d 8b bc 24 78 28 00 	mov    r15,QWORD PTR [r12+0x2878]
    561e:	00 
    561f:	49 8b 17             	mov    rdx,QWORD PTR [r15]
    5622:	e9 2f ff ff ff       	jmp    5556 <getHugeChunk__stlXHMKRKFIGOvq8t4ynRQ_3+0xe6>
    5627:	66 0f 1f 84 00 00 00 	nop    WORD PTR [rax+rax*1+0x0]
    562e:	00 00 

0000000000005630 <allocAvlNode__Du8pyfSfDLyN9aoS2IcBsHg>:
    5630:	41 55                	push   r13
    5632:	41 54                	push   r12
    5634:	49 89 f4             	mov    r12,rsi
    5637:	55                   	push   rbp
    5638:	53                   	push   rbx
    5639:	48 89 d5             	mov    rbp,rdx
    563c:	48 89 fb             	mov    rbx,rdi
    563f:	48 83 ec 18          	sub    rsp,0x18
    5643:	48 8b 87 c0 30 00 00 	mov    rax,QWORD PTR [rdi+0x30c0]
    564a:	48 85 c0             	test   rax,rax
    564d:	74 51                	je     56a0 <allocAvlNode__Du8pyfSfDLyN9aoS2IcBsHg+0x70>
    564f:	48 8b 10             	mov    rdx,QWORD PTR [rax]
    5652:	48 89 97 c0 30 00 00 	mov    QWORD PTR [rdi+0x30c0],rdx
    5659:	4c 89 60 10          	mov    QWORD PTR [rax+0x10],r12
    565d:	48 89 68 18          	mov    QWORD PTR [rax+0x18],rbp
    5661:	48 8d 93 d8 30 00 00 	lea    rdx,[rbx+0x30d8]
    5668:	48 83 bb d8 30 00 00 	cmp    QWORD PTR [rbx+0x30d8],0x0
    566f:	00 
    5670:	75 0e                	jne    5680 <allocAvlNode__Du8pyfSfDLyN9aoS2IcBsHg+0x50>
    5672:	48 89 93 d8 30 00 00 	mov    QWORD PTR [rbx+0x30d8],rdx
    5679:	48 89 93 e0 30 00 00 	mov    QWORD PTR [rbx+0x30e0],rdx
    5680:	48 89 10             	mov    QWORD PTR [rax],rdx
    5683:	48 89 50 08          	mov    QWORD PTR [rax+0x8],rdx
    5687:	48 c7 40 20 01 00 00 	mov    QWORD PTR [rax+0x20],0x1
    568e:	00 
    568f:	48 83 c4 18          	add    rsp,0x18
    5693:	5b                   	pop    rbx
    5694:	5d                   	pop    rbp
    5695:	41 5c                	pop    r12
    5697:	41 5d                	pop    r13
    5699:	c3                   	ret    
    569a:	66 0f 1f 44 00 00    	nop    WORD PTR [rax+rax*1+0x0]
    56a0:	4c 8b af 78 28 00 00 	mov    r13,QWORD PTR [rdi+0x2878]
    56a7:	4d 85 ed             	test   r13,r13
    56aa:	74 44                	je     56f0 <allocAvlNode__Du8pyfSfDLyN9aoS2IcBsHg+0xc0>
    56ac:	49 8b 55 00          	mov    rdx,QWORD PTR [r13+0x0]
    56b0:	48 83 fa 27          	cmp    rdx,0x27
    56b4:	7e 3a                	jle    56f0 <allocAvlNode__Du8pyfSfDLyN9aoS2IcBsHg+0xc0>
    56b6:	49 8b 45 08          	mov    rax,QWORD PTR [r13+0x8]
    56ba:	48 83 ea 28          	sub    rdx,0x28
    56be:	49 89 55 00          	mov    QWORD PTR [r13+0x0],rdx
    56c2:	66 0f ef c0          	pxor   xmm0,xmm0
    56c6:	48 8b 93 78 28 00 00 	mov    rdx,QWORD PTR [rbx+0x2878]
    56cd:	4c 01 e8             	add    rax,r13
    56d0:	48 83 42 08 28       	add    QWORD PTR [rdx+0x8],0x28
    56d5:	48 c7 40 20 00 00 00 	mov    QWORD PTR [rax+0x20],0x0
    56dc:	00 
    56dd:	0f 11 00             	movups XMMWORD PTR [rax],xmm0
    56e0:	0f 11 40 10          	movups XMMWORD PTR [rax+0x10],xmm0
    56e4:	e9 70 ff ff ff       	jmp    5659 <allocAvlNode__Du8pyfSfDLyN9aoS2IcBsHg+0x29>
    56e9:	0f 1f 80 00 00 00 00 	nop    DWORD PTR [rax+0x0]
    56f0:	45 31 c9             	xor    r9d,r9d
    56f3:	ba 03 00 00 00       	mov    edx,0x3
    56f8:	31 ff                	xor    edi,edi
    56fa:	41 b8 ff ff ff ff    	mov    r8d,0xffffffff
    5700:	b9 22 00 00 00       	mov    ecx,0x22
    5705:	be 00 10 00 00       	mov    esi,0x1000
    570a:	e8 61 b2 ff ff       	call   970 <mmap@plt>
    570f:	48 8d 50 ff          	lea    rdx,[rax-0x1]
    5713:	48 83 fa fd          	cmp    rdx,0xfffffffffffffffd
    5717:	77 47                	ja     5760 <allocAvlNode__Du8pyfSfDLyN9aoS2IcBsHg+0x130>
    5719:	48 89 83 78 28 00 00 	mov    QWORD PTR [rbx+0x2878],rax
    5720:	48 81 83 80 28 00 00 	add    QWORD PTR [rbx+0x2880],0x1000
    5727:	00 10 00 00 
    572b:	48 c7 00 e8 0f 00 00 	mov    QWORD PTR [rax],0xfe8
    5732:	48 8b 83 78 28 00 00 	mov    rax,QWORD PTR [rbx+0x2878]
    5739:	48 c7 40 08 18 00 00 	mov    QWORD PTR [rax+0x8],0x18
    5740:	00 
    5741:	48 8b 83 78 28 00 00 	mov    rax,QWORD PTR [rbx+0x2878]
    5748:	4c 89 68 10          	mov    QWORD PTR [rax+0x10],r13
    574c:	4c 8b ab 78 28 00 00 	mov    r13,QWORD PTR [rbx+0x2878]
    5753:	49 8b 55 00          	mov    rdx,QWORD PTR [r13+0x0]
    5757:	e9 5a ff ff ff       	jmp    56b6 <allocAvlNode__Du8pyfSfDLyN9aoS2IcBsHg+0x86>
    575c:	0f 1f 40 00          	nop    DWORD PTR [rax+0x0]
    5760:	48 89 44 24 08       	mov    QWORD PTR [rsp+0x8],rax
    5765:	e8 96 b9 ff ff       	call   1100 <raiseOutOfMem__mMRdr4sgmnykA9aWeM9aDZlw>
    576a:	48 8b 44 24 08       	mov    rax,QWORD PTR [rsp+0x8]
    576f:	eb a8                	jmp    5719 <allocAvlNode__Du8pyfSfDLyN9aoS2IcBsHg+0xe9>
    5771:	0f 1f 44 00 00       	nop    DWORD PTR [rax+rax*1+0x0]
    5776:	66 2e 0f 1f 84 00 00 	nop    WORD PTR cs:[rax+rax*1+0x0]
    577d:	00 00 00 

0000000000005780 <add__3D9aOyz4rDquPZKBlqn0xig>:
    5780:	41 56                	push   r14
    5782:	41 55                	push   r13
    5784:	49 89 cd             	mov    r13,rcx
    5787:	41 54                	push   r12
    5789:	55                   	push   rbp
    578a:	49 89 fc             	mov    r12,rdi
    578d:	53                   	push   rbx
    578e:	48 89 f3             	mov    rbx,rsi
    5791:	48 89 d5             	mov    rbp,rdx
    5794:	48 83 ec 10          	sub    rsp,0x10
    5798:	48 8b 36             	mov    rsi,QWORD PTR [rsi]
    579b:	48 8b 06             	mov    rax,QWORD PTR [rsi]
    579e:	48 39 c6             	cmp    rsi,rax
    57a1:	74 7d                	je     5820 <add__3D9aOyz4rDquPZKBlqn0xig+0xa0>
    57a3:	48 39 56 10          	cmp    QWORD PTR [rsi+0x10],rdx
    57a7:	77 5b                	ja     5804 <add__3D9aOyz4rDquPZKBlqn0xig+0x84>
    57a9:	72 55                	jb     5800 <add__3D9aOyz4rDquPZKBlqn0xig+0x80>
    57ab:	48 8b 56 20          	mov    rdx,QWORD PTR [rsi+0x20]
    57af:	48 39 50 20          	cmp    QWORD PTR [rax+0x20],rdx
    57b3:	75 18                	jne    57cd <add__3D9aOyz4rDquPZKBlqn0xig+0x4d>
    57b5:	48 89 03             	mov    QWORD PTR [rbx],rax
    57b8:	48 8b 40 08          	mov    rax,QWORD PTR [rax+0x8]
    57bc:	48 89 06             	mov    QWORD PTR [rsi],rax
    57bf:	48 8b 03             	mov    rax,QWORD PTR [rbx]
    57c2:	48 89 70 08          	mov    QWORD PTR [rax+0x8],rsi
    57c6:	48 8b 33             	mov    rsi,QWORD PTR [rbx]
    57c9:	48 8b 56 20          	mov    rdx,QWORD PTR [rsi+0x20]
    57cd:	48 8b 46 08          	mov    rax,QWORD PTR [rsi+0x8]
    57d1:	48 8b 48 08          	mov    rcx,QWORD PTR [rax+0x8]
    57d5:	48 39 51 20          	cmp    QWORD PTR [rcx+0x20],rdx
    57d9:	75 18                	jne    57f3 <add__3D9aOyz4rDquPZKBlqn0xig+0x73>
    57db:	48 89 03             	mov    QWORD PTR [rbx],rax
    57de:	48 8b 00             	mov    rax,QWORD PTR [rax]
    57e1:	48 89 46 08          	mov    QWORD PTR [rsi+0x8],rax
    57e5:	48 8b 03             	mov    rax,QWORD PTR [rbx]
    57e8:	48 89 30             	mov    QWORD PTR [rax],rsi
    57eb:	48 8b 03             	mov    rax,QWORD PTR [rbx]
    57ee:	48 83 40 20 01       	add    QWORD PTR [rax+0x20],0x1
    57f3:	48 83 c4 10          	add    rsp,0x10
    57f7:	5b                   	pop    rbx
    57f8:	5d                   	pop    rbp
    57f9:	41 5c                	pop    r12
    57fb:	41 5d                	pop    r13
    57fd:	41 5e                	pop    r14
    57ff:	c3                   	ret    
    5800:	48 83 c6 08          	add    rsi,0x8
    5804:	4c 89 e9             	mov    rcx,r13
    5807:	48 89 ea             	mov    rdx,rbp
    580a:	4c 89 e7             	mov    rdi,r12
    580d:	e8 6e ff ff ff       	call   5780 <add__3D9aOyz4rDquPZKBlqn0xig>
    5812:	48 8b 33             	mov    rsi,QWORD PTR [rbx]
    5815:	48 8b 06             	mov    rax,QWORD PTR [rsi]
    5818:	eb 91                	jmp    57ab <add__3D9aOyz4rDquPZKBlqn0xig+0x2b>
    581a:	66 0f 1f 44 00 00    	nop    WORD PTR [rax+rax*1+0x0]
    5820:	48 8b 87 c0 30 00 00 	mov    rax,QWORD PTR [rdi+0x30c0]
    5827:	48 85 c0             	test   rax,rax
    582a:	74 54                	je     5880 <add__3D9aOyz4rDquPZKBlqn0xig+0x100>
    582c:	48 8b 10             	mov    rdx,QWORD PTR [rax]
    582f:	48 89 97 c0 30 00 00 	mov    QWORD PTR [rdi+0x30c0],rdx
    5836:	48 89 68 10          	mov    QWORD PTR [rax+0x10],rbp
    583a:	4c 89 68 18          	mov    QWORD PTR [rax+0x18],r13
    583e:	49 8d 94 24 d8 30 00 	lea    rdx,[r12+0x30d8]
    5845:	00 
    5846:	49 83 bc 24 d8 30 00 	cmp    QWORD PTR [r12+0x30d8],0x0
    584d:	00 00 
    584f:	75 10                	jne    5861 <add__3D9aOyz4rDquPZKBlqn0xig+0xe1>
    5851:	49 89 94 24 d8 30 00 	mov    QWORD PTR [r12+0x30d8],rdx
    5858:	00 
    5859:	49 89 94 24 e0 30 00 	mov    QWORD PTR [r12+0x30e0],rdx
    5860:	00 
    5861:	48 89 10             	mov    QWORD PTR [rax],rdx
    5864:	48 89 50 08          	mov    QWORD PTR [rax+0x8],rdx
    5868:	48 c7 40 20 01 00 00 	mov    QWORD PTR [rax+0x20],0x1
    586f:	00 
    5870:	48 89 03             	mov    QWORD PTR [rbx],rax
    5873:	48 83 c4 10          	add    rsp,0x10
    5877:	5b                   	pop    rbx
    5878:	5d                   	pop    rbp
    5879:	41 5c                	pop    r12
    587b:	41 5d                	pop    r13
    587d:	41 5e                	pop    r14
    587f:	c3                   	ret    
    5880:	4c 8b b7 78 28 00 00 	mov    r14,QWORD PTR [rdi+0x2878]
    5887:	4d 85 f6             	test   r14,r14
    588a:	74 3c                	je     58c8 <add__3D9aOyz4rDquPZKBlqn0xig+0x148>
    588c:	49 8b 16             	mov    rdx,QWORD PTR [r14]
    588f:	48 83 fa 27          	cmp    rdx,0x27
    5893:	7e 33                	jle    58c8 <add__3D9aOyz4rDquPZKBlqn0xig+0x148>
    5895:	49 8b 46 08          	mov    rax,QWORD PTR [r14+0x8]
    5899:	48 83 ea 28          	sub    rdx,0x28
    589d:	49 89 16             	mov    QWORD PTR [r14],rdx
    58a0:	66 0f ef c0          	pxor   xmm0,xmm0
    58a4:	49 8b 94 24 78 28 00 	mov    rdx,QWORD PTR [r12+0x2878]
    58ab:	00 
    58ac:	4c 01 f0             	add    rax,r14
    58af:	48 83 42 08 28       	add    QWORD PTR [rdx+0x8],0x28
    58b4:	48 c7 40 20 00 00 00 	mov    QWORD PTR [rax+0x20],0x0
    58bb:	00 
    58bc:	0f 11 00             	movups XMMWORD PTR [rax],xmm0
    58bf:	0f 11 40 10          	movups XMMWORD PTR [rax+0x10],xmm0
    58c3:	e9 6e ff ff ff       	jmp    5836 <add__3D9aOyz4rDquPZKBlqn0xig+0xb6>
    58c8:	45 31 c9             	xor    r9d,r9d
    58cb:	ba 03 00 00 00       	mov    edx,0x3
    58d0:	31 ff                	xor    edi,edi
    58d2:	41 b8 ff ff ff ff    	mov    r8d,0xffffffff
    58d8:	b9 22 00 00 00       	mov    ecx,0x22
    58dd:	be 00 10 00 00       	mov    esi,0x1000
    58e2:	e8 89 b0 ff ff       	call   970 <mmap@plt>
    58e7:	48 8d 50 ff          	lea    rdx,[rax-0x1]
    58eb:	48 83 fa fd          	cmp    rdx,0xfffffffffffffffd
    58ef:	76 0f                	jbe    5900 <add__3D9aOyz4rDquPZKBlqn0xig+0x180>
    58f1:	48 89 44 24 08       	mov    QWORD PTR [rsp+0x8],rax
    58f6:	e8 05 b8 ff ff       	call   1100 <raiseOutOfMem__mMRdr4sgmnykA9aWeM9aDZlw>
    58fb:	48 8b 44 24 08       	mov    rax,QWORD PTR [rsp+0x8]
    5900:	49 89 84 24 78 28 00 	mov    QWORD PTR [r12+0x2878],rax
    5907:	00 
    5908:	49 81 84 24 80 28 00 	add    QWORD PTR [r12+0x2880],0x1000
    590f:	00 00 10 00 00 
    5914:	48 c7 00 e8 0f 00 00 	mov    QWORD PTR [rax],0xfe8
    591b:	49 8b 84 24 78 28 00 	mov    rax,QWORD PTR [r12+0x2878]
    5922:	00 
    5923:	48 c7 40 08 18 00 00 	mov    QWORD PTR [rax+0x8],0x18
    592a:	00 
    592b:	49 8b 84 24 78 28 00 	mov    rax,QWORD PTR [r12+0x2878]
    5932:	00 
    5933:	4c 89 70 10          	mov    QWORD PTR [rax+0x10],r14
    5937:	4d 8b b4 24 78 28 00 	mov    r14,QWORD PTR [r12+0x2878]
    593e:	00 
    593f:	49 8b 16             	mov    rdx,QWORD PTR [r14]
    5942:	e9 4e ff ff ff       	jmp    5895 <add__3D9aOyz4rDquPZKBlqn0xig+0x115>
    5947:	66 0f 1f 84 00 00 00 	nop    WORD PTR [rax+rax*1+0x0]
    594e:	00 00 

0000000000005950 <rawAlloc__mE4QEVyMvGRVliDWDngZCQ>:
    5950:	48 8d 46 07          	lea    rax,[rsi+0x7]
    5954:	41 56                	push   r14
    5956:	41 55                	push   r13
    5958:	41 54                	push   r12
    595a:	55                   	push   rbp
    595b:	49 89 c5             	mov    r13,rax
    595e:	53                   	push   rbx
    595f:	48 89 fb             	mov    rbx,rdi
    5962:	49 83 e5 f8          	and    r13,0xfffffffffffffff8
    5966:	48 83 ec 10          	sub    rsp,0x10
    596a:	49 81 fd c8 0f 00 00 	cmp    r13,0xfc8
    5971:	0f 8f 89 00 00 00    	jg     5a00 <rawAlloc__mE4QEVyMvGRVliDWDngZCQ+0xb0>
    5977:	4a 8d 2c 2f          	lea    rbp,[rdi+r13*1]
    597b:	48 8b 45 10          	mov    rax,QWORD PTR [rbp+0x10]
    597f:	48 85 c0             	test   rax,rax
    5982:	0f 84 88 01 00 00    	je     5b10 <rawAlloc__mE4QEVyMvGRVliDWDngZCQ+0x1c0>
    5988:	4c 8b 60 20          	mov    r12,QWORD PTR [rax+0x20]
    598c:	4d 85 e4             	test   r12,r12
    598f:	0f 84 fb 01 00 00    	je     5b90 <rawAlloc__mE4QEVyMvGRVliDWDngZCQ+0x240>
    5995:	49 8b 14 24          	mov    rdx,QWORD PTR [r12]
    5999:	48 89 50 20          	mov    QWORD PTR [rax+0x20],rdx
    599d:	48 8b 50 28          	mov    rdx,QWORD PTR [rax+0x28]
    59a1:	4c 29 ea             	sub    rdx,r13
    59a4:	4c 39 ea             	cmp    rdx,r13
    59a7:	48 89 50 28          	mov    QWORD PTR [rax+0x28],rdx
    59ab:	7d 37                	jge    59e4 <rawAlloc__mE4QEVyMvGRVliDWDngZCQ+0x94>
    59ad:	48 3b 45 10          	cmp    rax,QWORD PTR [rbp+0x10]
    59b1:	48 8b 50 10          	mov    rdx,QWORD PTR [rax+0x10]
    59b5:	0f 84 b6 01 00 00    	je     5b71 <rawAlloc__mE4QEVyMvGRVliDWDngZCQ+0x221>
    59bb:	48 8b 48 18          	mov    rcx,QWORD PTR [rax+0x18]
    59bf:	48 89 51 10          	mov    QWORD PTR [rcx+0x10],rdx
    59c3:	48 8b 50 10          	mov    rdx,QWORD PTR [rax+0x10]
    59c7:	48 85 d2             	test   rdx,rdx
    59ca:	74 08                	je     59d4 <rawAlloc__mE4QEVyMvGRVliDWDngZCQ+0x84>
    59cc:	48 8b 48 18          	mov    rcx,QWORD PTR [rax+0x18]
    59d0:	48 89 4a 18          	mov    QWORD PTR [rdx+0x18],rcx
    59d4:	48 c7 40 10 00 00 00 	mov    QWORD PTR [rax+0x10],0x0
    59db:	00 
    59dc:	48 c7 40 18 00 00 00 	mov    QWORD PTR [rax+0x18],0x0
    59e3:	00 
    59e4:	4c 01 ab 98 28 00 00 	add    QWORD PTR [rbx+0x2898],r13
    59eb:	48 83 c4 10          	add    rsp,0x10
    59ef:	4c 89 e0             	mov    rax,r12
    59f2:	5b                   	pop    rbx
    59f3:	5d                   	pop    rbp
    59f4:	41 5c                	pop    r12
    59f6:	41 5d                	pop    r13
    59f8:	41 5e                	pop    r14
    59fa:	c3                   	ret    
    59fb:	0f 1f 44 00 00       	nop    DWORD PTR [rax+rax*1+0x0]
    5a00:	48 8d 6e 20          	lea    rbp,[rsi+0x20]
    5a04:	48 81 fd 00 00 00 3f 	cmp    rbp,0x3f000000
    5a0b:	48 89 ee             	mov    rsi,rbp
    5a0e:	0f 8e bc 00 00 00    	jle    5ad0 <rawAlloc__mE4QEVyMvGRVliDWDngZCQ+0x180>
    5a14:	e8 57 fa ff ff       	call   5470 <getHugeChunk__stlXHMKRKFIGOvq8t4ynRQ_3>
    5a19:	48 8b b3 a8 30 00 00 	mov    rsi,QWORD PTR [rbx+0x30a8]
    5a20:	49 89 c5             	mov    r13,rax
    5a23:	4d 8d 65 20          	lea    r12,[r13+0x20]
    5a27:	48 85 f6             	test   rsi,rsi
    5a2a:	0f 84 bc 00 00 00    	je     5aec <rawAlloc__mE4QEVyMvGRVliDWDngZCQ+0x19c>
    5a30:	48 8b 06             	mov    rax,QWORD PTR [rsi]
    5a33:	4c 01 e5             	add    rbp,r12
    5a36:	48 39 c6             	cmp    rsi,rax
    5a39:	0f 84 91 01 00 00    	je     5bd0 <rawAlloc__mE4QEVyMvGRVliDWDngZCQ+0x280>
    5a3f:	4c 3b 66 10          	cmp    r12,QWORD PTR [rsi+0x10]
    5a43:	0f 82 63 01 00 00    	jb     5bac <rawAlloc__mE4QEVyMvGRVliDWDngZCQ+0x25c>
    5a49:	0f 87 59 01 00 00    	ja     5ba8 <rawAlloc__mE4QEVyMvGRVliDWDngZCQ+0x258>
    5a4f:	48 8b 56 20          	mov    rdx,QWORD PTR [rsi+0x20]
    5a53:	48 39 50 20          	cmp    QWORD PTR [rax+0x20],rdx
    5a57:	75 24                	jne    5a7d <rawAlloc__mE4QEVyMvGRVliDWDngZCQ+0x12d>
    5a59:	48 89 83 a8 30 00 00 	mov    QWORD PTR [rbx+0x30a8],rax
    5a60:	48 8b 40 08          	mov    rax,QWORD PTR [rax+0x8]
    5a64:	48 89 06             	mov    QWORD PTR [rsi],rax
    5a67:	48 8b 83 a8 30 00 00 	mov    rax,QWORD PTR [rbx+0x30a8]
    5a6e:	48 89 70 08          	mov    QWORD PTR [rax+0x8],rsi
    5a72:	48 8b b3 a8 30 00 00 	mov    rsi,QWORD PTR [rbx+0x30a8]
    5a79:	48 8b 56 20          	mov    rdx,QWORD PTR [rsi+0x20]
    5a7d:	48 8b 46 08          	mov    rax,QWORD PTR [rsi+0x8]
    5a81:	48 8b 48 08          	mov    rcx,QWORD PTR [rax+0x8]
    5a85:	48 39 51 20          	cmp    QWORD PTR [rcx+0x20],rdx
    5a89:	75 24                	jne    5aaf <rawAlloc__mE4QEVyMvGRVliDWDngZCQ+0x15f>
    5a8b:	48 89 83 a8 30 00 00 	mov    QWORD PTR [rbx+0x30a8],rax
    5a92:	48 8b 00             	mov    rax,QWORD PTR [rax]
    5a95:	48 89 46 08          	mov    QWORD PTR [rsi+0x8],rax
    5a99:	48 8b 83 a8 30 00 00 	mov    rax,QWORD PTR [rbx+0x30a8]
    5aa0:	48 89 30             	mov    QWORD PTR [rax],rsi
    5aa3:	48 8b 83 a8 30 00 00 	mov    rax,QWORD PTR [rbx+0x30a8]
    5aaa:	48 83 40 20 01       	add    QWORD PTR [rax+0x20],0x1
    5aaf:	49 8b 45 08          	mov    rax,QWORD PTR [r13+0x8]
    5ab3:	48 01 83 98 28 00 00 	add    QWORD PTR [rbx+0x2898],rax
    5aba:	48 83 c4 10          	add    rsp,0x10
    5abe:	5b                   	pop    rbx
    5abf:	4c 89 e0             	mov    rax,r12
    5ac2:	5d                   	pop    rbp
    5ac3:	41 5c                	pop    r12
    5ac5:	41 5d                	pop    r13
    5ac7:	41 5e                	pop    r14
    5ac9:	c3                   	ret    
    5aca:	66 0f 1f 44 00 00    	nop    WORD PTR [rax+rax*1+0x0]
    5ad0:	e8 3b ef ff ff       	call   4a10 <getBigChunk__stlXHMKRKFIGOvq8t4ynRQ>
    5ad5:	48 8b b3 a8 30 00 00 	mov    rsi,QWORD PTR [rbx+0x30a8]
    5adc:	49 89 c5             	mov    r13,rax
    5adf:	4d 8d 65 20          	lea    r12,[r13+0x20]
    5ae3:	48 85 f6             	test   rsi,rsi
    5ae6:	0f 85 44 ff ff ff    	jne    5a30 <rawAlloc__mE4QEVyMvGRVliDWDngZCQ+0xe0>
    5aec:	48 8b 83 d8 30 00 00 	mov    rax,QWORD PTR [rbx+0x30d8]
    5af3:	48 8d b3 d8 30 00 00 	lea    rsi,[rbx+0x30d8]
    5afa:	48 85 c0             	test   rax,rax
    5afd:	0f 84 2d 01 00 00    	je     5c30 <rawAlloc__mE4QEVyMvGRVliDWDngZCQ+0x2e0>
    5b03:	48 89 b3 a8 30 00 00 	mov    QWORD PTR [rbx+0x30a8],rsi
    5b0a:	e9 24 ff ff ff       	jmp    5a33 <rawAlloc__mE4QEVyMvGRVliDWDngZCQ+0xe3>
    5b0f:	90                   	nop
    5b10:	be 00 10 00 00       	mov    esi,0x1000
    5b15:	e8 f6 ee ff ff       	call   4a10 <getBigChunk__stlXHMKRKFIGOvq8t4ynRQ>
    5b1a:	ba c8 0f 00 00       	mov    edx,0xfc8
    5b1f:	48 c7 40 10 00 00 00 	mov    QWORD PTR [rax+0x10],0x0
    5b26:	00 
    5b27:	48 c7 40 20 00 00 00 	mov    QWORD PTR [rax+0x20],0x0
    5b2e:	00 
    5b2f:	4c 29 ea             	sub    rdx,r13
    5b32:	4c 89 68 08          	mov    QWORD PTR [rax+0x8],r13
    5b36:	4c 89 68 30          	mov    QWORD PTR [rax+0x30],r13
    5b3a:	48 89 50 28          	mov    QWORD PTR [rax+0x28],rdx
    5b3e:	48 c7 40 18 00 00 00 	mov    QWORD PTR [rax+0x18],0x0
    5b45:	00 
    5b46:	48 8b 55 10          	mov    rdx,QWORD PTR [rbp+0x10]
    5b4a:	48 89 50 10          	mov    QWORD PTR [rax+0x10],rdx
    5b4e:	48 8b 55 10          	mov    rdx,QWORD PTR [rbp+0x10]
    5b52:	48 85 d2             	test   rdx,rdx
    5b55:	74 04                	je     5b5b <rawAlloc__mE4QEVyMvGRVliDWDngZCQ+0x20b>
    5b57:	48 89 42 18          	mov    QWORD PTR [rdx+0x18],rax
    5b5b:	48 89 45 10          	mov    QWORD PTR [rbp+0x10],rax
    5b5f:	4c 3b 68 28          	cmp    r13,QWORD PTR [rax+0x28]
    5b63:	4c 8d 60 38          	lea    r12,[rax+0x38]
    5b67:	0f 8e 77 fe ff ff    	jle    59e4 <rawAlloc__mE4QEVyMvGRVliDWDngZCQ+0x94>
    5b6d:	48 8b 50 10          	mov    rdx,QWORD PTR [rax+0x10]
    5b71:	48 85 d2             	test   rdx,rdx
    5b74:	48 89 55 10          	mov    QWORD PTR [rbp+0x10],rdx
    5b78:	0f 84 56 fe ff ff    	je     59d4 <rawAlloc__mE4QEVyMvGRVliDWDngZCQ+0x84>
    5b7e:	48 c7 42 18 00 00 00 	mov    QWORD PTR [rdx+0x18],0x0
    5b85:	00 
    5b86:	e9 49 fe ff ff       	jmp    59d4 <rawAlloc__mE4QEVyMvGRVliDWDngZCQ+0x84>
    5b8b:	0f 1f 44 00 00       	nop    DWORD PTR [rax+rax*1+0x0]
    5b90:	48 8b 50 30          	mov    rdx,QWORD PTR [rax+0x30]
    5b94:	4c 8d 64 10 38       	lea    r12,[rax+rdx*1+0x38]
    5b99:	4c 01 ea             	add    rdx,r13
    5b9c:	48 89 50 30          	mov    QWORD PTR [rax+0x30],rdx
    5ba0:	e9 f8 fd ff ff       	jmp    599d <rawAlloc__mE4QEVyMvGRVliDWDngZCQ+0x4d>
    5ba5:	0f 1f 00             	nop    DWORD PTR [rax]
    5ba8:	48 83 c6 08          	add    rsi,0x8
    5bac:	48 89 e9             	mov    rcx,rbp
    5baf:	4c 89 e2             	mov    rdx,r12
    5bb2:	48 89 df             	mov    rdi,rbx
    5bb5:	e8 c6 fb ff ff       	call   5780 <add__3D9aOyz4rDquPZKBlqn0xig>
    5bba:	48 8b b3 a8 30 00 00 	mov    rsi,QWORD PTR [rbx+0x30a8]
    5bc1:	48 8b 06             	mov    rax,QWORD PTR [rsi]
    5bc4:	e9 86 fe ff ff       	jmp    5a4f <rawAlloc__mE4QEVyMvGRVliDWDngZCQ+0xff>
    5bc9:	0f 1f 80 00 00 00 00 	nop    DWORD PTR [rax+0x0]
    5bd0:	48 8b 83 c0 30 00 00 	mov    rax,QWORD PTR [rbx+0x30c0]
    5bd7:	48 85 c0             	test   rax,rax
    5bda:	74 74                	je     5c50 <rawAlloc__mE4QEVyMvGRVliDWDngZCQ+0x300>
    5bdc:	48 8b 10             	mov    rdx,QWORD PTR [rax]
    5bdf:	48 89 93 c0 30 00 00 	mov    QWORD PTR [rbx+0x30c0],rdx
    5be6:	4c 89 60 10          	mov    QWORD PTR [rax+0x10],r12
    5bea:	48 89 68 18          	mov    QWORD PTR [rax+0x18],rbp
    5bee:	48 8d 93 d8 30 00 00 	lea    rdx,[rbx+0x30d8]
    5bf5:	48 83 bb d8 30 00 00 	cmp    QWORD PTR [rbx+0x30d8],0x0
    5bfc:	00 
    5bfd:	75 0e                	jne    5c0d <rawAlloc__mE4QEVyMvGRVliDWDngZCQ+0x2bd>
    5bff:	48 89 93 d8 30 00 00 	mov    QWORD PTR [rbx+0x30d8],rdx
    5c06:	48 89 93 e0 30 00 00 	mov    QWORD PTR [rbx+0x30e0],rdx
    5c0d:	48 89 10             	mov    QWORD PTR [rax],rdx
    5c10:	48 89 50 08          	mov    QWORD PTR [rax+0x8],rdx
    5c14:	48 c7 40 20 01 00 00 	mov    QWORD PTR [rax+0x20],0x1
    5c1b:	00 
    5c1c:	48 89 83 a8 30 00 00 	mov    QWORD PTR [rbx+0x30a8],rax
    5c23:	e9 87 fe ff ff       	jmp    5aaf <rawAlloc__mE4QEVyMvGRVliDWDngZCQ+0x15f>
    5c28:	0f 1f 84 00 00 00 00 	nop    DWORD PTR [rax+rax*1+0x0]
    5c2f:	00 
    5c30:	48 89 b3 d8 30 00 00 	mov    QWORD PTR [rbx+0x30d8],rsi
    5c37:	48 89 b3 e0 30 00 00 	mov    QWORD PTR [rbx+0x30e0],rsi
    5c3e:	48 89 f0             	mov    rax,rsi
    5c41:	e9 bd fe ff ff       	jmp    5b03 <rawAlloc__mE4QEVyMvGRVliDWDngZCQ+0x1b3>
    5c46:	66 2e 0f 1f 84 00 00 	nop    WORD PTR cs:[rax+rax*1+0x0]
    5c4d:	00 00 00 
    5c50:	4c 8b b3 78 28 00 00 	mov    r14,QWORD PTR [rbx+0x2878]
    5c57:	4d 85 f6             	test   r14,r14
    5c5a:	74 3b                	je     5c97 <rawAlloc__mE4QEVyMvGRVliDWDngZCQ+0x347>
    5c5c:	49 8b 16             	mov    rdx,QWORD PTR [r14]
    5c5f:	48 83 fa 27          	cmp    rdx,0x27
    5c63:	7e 32                	jle    5c97 <rawAlloc__mE4QEVyMvGRVliDWDngZCQ+0x347>
    5c65:	49 8b 46 08          	mov    rax,QWORD PTR [r14+0x8]
    5c69:	48 83 ea 28          	sub    rdx,0x28
    5c6d:	49 89 16             	mov    QWORD PTR [r14],rdx
    5c70:	66 0f ef c0          	pxor   xmm0,xmm0
    5c74:	48 8b 93 78 28 00 00 	mov    rdx,QWORD PTR [rbx+0x2878]
    5c7b:	4c 01 f0             	add    rax,r14
    5c7e:	48 83 42 08 28       	add    QWORD PTR [rdx+0x8],0x28
    5c83:	48 c7 40 20 00 00 00 	mov    QWORD PTR [rax+0x20],0x0
    5c8a:	00 
    5c8b:	0f 11 00             	movups XMMWORD PTR [rax],xmm0
    5c8e:	0f 11 40 10          	movups XMMWORD PTR [rax+0x10],xmm0
    5c92:	e9 4f ff ff ff       	jmp    5be6 <rawAlloc__mE4QEVyMvGRVliDWDngZCQ+0x296>
    5c97:	45 31 c9             	xor    r9d,r9d
    5c9a:	ba 03 00 00 00       	mov    edx,0x3
    5c9f:	31 ff                	xor    edi,edi
    5ca1:	41 b8 ff ff ff ff    	mov    r8d,0xffffffff
    5ca7:	b9 22 00 00 00       	mov    ecx,0x22
    5cac:	be 00 10 00 00       	mov    esi,0x1000
    5cb1:	e8 ba ac ff ff       	call   970 <mmap@plt>
    5cb6:	48 8d 50 ff          	lea    rdx,[rax-0x1]
    5cba:	48 83 fa fd          	cmp    rdx,0xfffffffffffffffd
    5cbe:	76 0f                	jbe    5ccf <rawAlloc__mE4QEVyMvGRVliDWDngZCQ+0x37f>
    5cc0:	48 89 44 24 08       	mov    QWORD PTR [rsp+0x8],rax
    5cc5:	e8 36 b4 ff ff       	call   1100 <raiseOutOfMem__mMRdr4sgmnykA9aWeM9aDZlw>
    5cca:	48 8b 44 24 08       	mov    rax,QWORD PTR [rsp+0x8]
    5ccf:	48 89 83 78 28 00 00 	mov    QWORD PTR [rbx+0x2878],rax
    5cd6:	48 81 83 80 28 00 00 	add    QWORD PTR [rbx+0x2880],0x1000
    5cdd:	00 10 00 00 
    5ce1:	48 c7 00 e8 0f 00 00 	mov    QWORD PTR [rax],0xfe8
    5ce8:	48 8b 83 78 28 00 00 	mov    rax,QWORD PTR [rbx+0x2878]
    5cef:	48 c7 40 08 18 00 00 	mov    QWORD PTR [rax+0x8],0x18
    5cf6:	00 
    5cf7:	48 8b 83 78 28 00 00 	mov    rax,QWORD PTR [rbx+0x2878]
    5cfe:	4c 89 70 10          	mov    QWORD PTR [rax+0x10],r14
    5d02:	4c 8b b3 78 28 00 00 	mov    r14,QWORD PTR [rbx+0x2878]
    5d09:	49 8b 16             	mov    rdx,QWORD PTR [r14]
    5d0c:	e9 54 ff ff ff       	jmp    5c65 <rawAlloc__mE4QEVyMvGRVliDWDngZCQ+0x315>
    5d11:	0f 1f 44 00 00       	nop    DWORD PTR [rax+rax*1+0x0]
    5d16:	66 2e 0f 1f 84 00 00 	nop    WORD PTR cs:[rax+rax*1+0x0]
    5d1d:	00 00 00 

0000000000005d20 <alloc__UxtcZ3QOXKsB7mMchxUf9cg>:
    5d20:	48 8d 46 07          	lea    rax,[rsi+0x7]
    5d24:	41 56                	push   r14
    5d26:	41 55                	push   r13
    5d28:	41 54                	push   r12
    5d2a:	55                   	push   rbp
    5d2b:	49 89 c5             	mov    r13,rax
    5d2e:	53                   	push   rbx
    5d2f:	48 89 fb             	mov    rbx,rdi
    5d32:	49 83 e5 f8          	and    r13,0xfffffffffffffff8
    5d36:	48 83 ec 10          	sub    rsp,0x10
    5d3a:	49 81 fd c8 0f 00 00 	cmp    r13,0xfc8
    5d41:	0f 8f 89 00 00 00    	jg     5dd0 <alloc__UxtcZ3QOXKsB7mMchxUf9cg+0xb0>
    5d47:	4a 8d 2c 2f          	lea    rbp,[rdi+r13*1]
    5d4b:	48 8b 45 10          	mov    rax,QWORD PTR [rbp+0x10]
    5d4f:	48 85 c0             	test   rax,rax
    5d52:	0f 84 88 01 00 00    	je     5ee0 <alloc__UxtcZ3QOXKsB7mMchxUf9cg+0x1c0>
    5d58:	4c 8b 60 20          	mov    r12,QWORD PTR [rax+0x20]
    5d5c:	4d 85 e4             	test   r12,r12
    5d5f:	0f 84 fb 01 00 00    	je     5f60 <alloc__UxtcZ3QOXKsB7mMchxUf9cg+0x240>
    5d65:	49 8b 14 24          	mov    rdx,QWORD PTR [r12]
    5d69:	48 89 50 20          	mov    QWORD PTR [rax+0x20],rdx
    5d6d:	48 8b 50 28          	mov    rdx,QWORD PTR [rax+0x28]
    5d71:	4c 29 ea             	sub    rdx,r13
    5d74:	49 39 d5             	cmp    r13,rdx
    5d77:	48 89 50 28          	mov    QWORD PTR [rax+0x28],rdx
    5d7b:	7e 37                	jle    5db4 <alloc__UxtcZ3QOXKsB7mMchxUf9cg+0x94>
    5d7d:	48 3b 45 10          	cmp    rax,QWORD PTR [rbp+0x10]
    5d81:	48 8b 50 10          	mov    rdx,QWORD PTR [rax+0x10]
    5d85:	0f 84 b6 01 00 00    	je     5f41 <alloc__UxtcZ3QOXKsB7mMchxUf9cg+0x221>
    5d8b:	48 8b 48 18          	mov    rcx,QWORD PTR [rax+0x18]
    5d8f:	48 89 51 10          	mov    QWORD PTR [rcx+0x10],rdx
    5d93:	48 8b 50 10          	mov    rdx,QWORD PTR [rax+0x10]
    5d97:	48 85 d2             	test   rdx,rdx
    5d9a:	74 08                	je     5da4 <alloc__UxtcZ3QOXKsB7mMchxUf9cg+0x84>
    5d9c:	48 8b 48 18          	mov    rcx,QWORD PTR [rax+0x18]
    5da0:	48 89 4a 18          	mov    QWORD PTR [rdx+0x18],rcx
    5da4:	48 c7 40 10 00 00 00 	mov    QWORD PTR [rax+0x10],0x0
    5dab:	00 
    5dac:	48 c7 40 18 00 00 00 	mov    QWORD PTR [rax+0x18],0x0
    5db3:	00 
    5db4:	4c 01 ab 98 28 00 00 	add    QWORD PTR [rbx+0x2898],r13
    5dbb:	48 83 c4 10          	add    rsp,0x10
    5dbf:	4c 89 e0             	mov    rax,r12
    5dc2:	5b                   	pop    rbx
    5dc3:	5d                   	pop    rbp
    5dc4:	41 5c                	pop    r12
    5dc6:	41 5d                	pop    r13
    5dc8:	41 5e                	pop    r14
    5dca:	c3                   	ret    
    5dcb:	0f 1f 44 00 00       	nop    DWORD PTR [rax+rax*1+0x0]
    5dd0:	48 8d 6e 20          	lea    rbp,[rsi+0x20]
    5dd4:	48 81 fd 00 00 00 3f 	cmp    rbp,0x3f000000
    5ddb:	48 89 ee             	mov    rsi,rbp
    5dde:	0f 8e bc 00 00 00    	jle    5ea0 <alloc__UxtcZ3QOXKsB7mMchxUf9cg+0x180>
    5de4:	e8 87 f6 ff ff       	call   5470 <getHugeChunk__stlXHMKRKFIGOvq8t4ynRQ_3>
    5de9:	48 8b b3 a8 30 00 00 	mov    rsi,QWORD PTR [rbx+0x30a8]
    5df0:	49 89 c5             	mov    r13,rax
    5df3:	4d 8d 65 20          	lea    r12,[r13+0x20]
    5df7:	48 85 f6             	test   rsi,rsi
    5dfa:	0f 84 bc 00 00 00    	je     5ebc <alloc__UxtcZ3QOXKsB7mMchxUf9cg+0x19c>
    5e00:	48 8b 06             	mov    rax,QWORD PTR [rsi]
    5e03:	4c 01 e5             	add    rbp,r12
    5e06:	48 39 c6             	cmp    rsi,rax
    5e09:	0f 84 91 01 00 00    	je     5fa0 <alloc__UxtcZ3QOXKsB7mMchxUf9cg+0x280>
    5e0f:	4c 3b 66 10          	cmp    r12,QWORD PTR [rsi+0x10]
    5e13:	0f 82 63 01 00 00    	jb     5f7c <alloc__UxtcZ3QOXKsB7mMchxUf9cg+0x25c>
    5e19:	0f 87 59 01 00 00    	ja     5f78 <alloc__UxtcZ3QOXKsB7mMchxUf9cg+0x258>
    5e1f:	48 8b 56 20          	mov    rdx,QWORD PTR [rsi+0x20]
    5e23:	48 39 50 20          	cmp    QWORD PTR [rax+0x20],rdx
    5e27:	75 24                	jne    5e4d <alloc__UxtcZ3QOXKsB7mMchxUf9cg+0x12d>
    5e29:	48 89 83 a8 30 00 00 	mov    QWORD PTR [rbx+0x30a8],rax
    5e30:	48 8b 40 08          	mov    rax,QWORD PTR [rax+0x8]
    5e34:	48 89 06             	mov    QWORD PTR [rsi],rax
    5e37:	48 8b 83 a8 30 00 00 	mov    rax,QWORD PTR [rbx+0x30a8]
    5e3e:	48 89 70 08          	mov    QWORD PTR [rax+0x8],rsi
    5e42:	48 8b b3 a8 30 00 00 	mov    rsi,QWORD PTR [rbx+0x30a8]
    5e49:	48 8b 56 20          	mov    rdx,QWORD PTR [rsi+0x20]
    5e4d:	48 8b 46 08          	mov    rax,QWORD PTR [rsi+0x8]
    5e51:	48 8b 48 08          	mov    rcx,QWORD PTR [rax+0x8]
    5e55:	48 39 51 20          	cmp    QWORD PTR [rcx+0x20],rdx
    5e59:	75 24                	jne    5e7f <alloc__UxtcZ3QOXKsB7mMchxUf9cg+0x15f>
    5e5b:	48 89 83 a8 30 00 00 	mov    QWORD PTR [rbx+0x30a8],rax
    5e62:	48 8b 00             	mov    rax,QWORD PTR [rax]
    5e65:	48 89 46 08          	mov    QWORD PTR [rsi+0x8],rax
    5e69:	48 8b 83 a8 30 00 00 	mov    rax,QWORD PTR [rbx+0x30a8]
    5e70:	48 89 30             	mov    QWORD PTR [rax],rsi
    5e73:	48 8b 83 a8 30 00 00 	mov    rax,QWORD PTR [rbx+0x30a8]
    5e7a:	48 83 40 20 01       	add    QWORD PTR [rax+0x20],0x1
    5e7f:	49 8b 45 08          	mov    rax,QWORD PTR [r13+0x8]
    5e83:	48 01 83 98 28 00 00 	add    QWORD PTR [rbx+0x2898],rax
    5e8a:	48 83 c4 10          	add    rsp,0x10
    5e8e:	5b                   	pop    rbx
    5e8f:	4c 89 e0             	mov    rax,r12
    5e92:	5d                   	pop    rbp
    5e93:	41 5c                	pop    r12
    5e95:	41 5d                	pop    r13
    5e97:	41 5e                	pop    r14
    5e99:	c3                   	ret    
    5e9a:	66 0f 1f 44 00 00    	nop    WORD PTR [rax+rax*1+0x0]
    5ea0:	e8 6b eb ff ff       	call   4a10 <getBigChunk__stlXHMKRKFIGOvq8t4ynRQ>
    5ea5:	48 8b b3 a8 30 00 00 	mov    rsi,QWORD PTR [rbx+0x30a8]
    5eac:	49 89 c5             	mov    r13,rax
    5eaf:	4d 8d 65 20          	lea    r12,[r13+0x20]
    5eb3:	48 85 f6             	test   rsi,rsi
    5eb6:	0f 85 44 ff ff ff    	jne    5e00 <alloc__UxtcZ3QOXKsB7mMchxUf9cg+0xe0>
    5ebc:	48 8b 83 d8 30 00 00 	mov    rax,QWORD PTR [rbx+0x30d8]
    5ec3:	48 8d b3 d8 30 00 00 	lea    rsi,[rbx+0x30d8]
    5eca:	48 85 c0             	test   rax,rax
    5ecd:	0f 84 2d 01 00 00    	je     6000 <alloc__UxtcZ3QOXKsB7mMchxUf9cg+0x2e0>
    5ed3:	48 89 b3 a8 30 00 00 	mov    QWORD PTR [rbx+0x30a8],rsi
    5eda:	e9 24 ff ff ff       	jmp    5e03 <alloc__UxtcZ3QOXKsB7mMchxUf9cg+0xe3>
    5edf:	90                   	nop
    5ee0:	be 00 10 00 00       	mov    esi,0x1000
    5ee5:	e8 26 eb ff ff       	call   4a10 <getBigChunk__stlXHMKRKFIGOvq8t4ynRQ>
    5eea:	ba c8 0f 00 00       	mov    edx,0xfc8
    5eef:	48 c7 40 10 00 00 00 	mov    QWORD PTR [rax+0x10],0x0
    5ef6:	00 
    5ef7:	48 c7 40 20 00 00 00 	mov    QWORD PTR [rax+0x20],0x0
    5efe:	00 
    5eff:	4c 29 ea             	sub    rdx,r13
    5f02:	4c 89 68 08          	mov    QWORD PTR [rax+0x8],r13
    5f06:	4c 89 68 30          	mov    QWORD PTR [rax+0x30],r13
    5f0a:	48 89 50 28          	mov    QWORD PTR [rax+0x28],rdx
    5f0e:	48 c7 40 18 00 00 00 	mov    QWORD PTR [rax+0x18],0x0
    5f15:	00 
    5f16:	48 8b 55 10          	mov    rdx,QWORD PTR [rbp+0x10]
    5f1a:	48 89 50 10          	mov    QWORD PTR [rax+0x10],rdx
    5f1e:	48 8b 55 10          	mov    rdx,QWORD PTR [rbp+0x10]
    5f22:	48 85 d2             	test   rdx,rdx
    5f25:	74 04                	je     5f2b <alloc__UxtcZ3QOXKsB7mMchxUf9cg+0x20b>
    5f27:	48 89 42 18          	mov    QWORD PTR [rdx+0x18],rax
    5f2b:	48 89 45 10          	mov    QWORD PTR [rbp+0x10],rax
    5f2f:	4c 3b 68 28          	cmp    r13,QWORD PTR [rax+0x28]
    5f33:	4c 8d 60 38          	lea    r12,[rax+0x38]
    5f37:	0f 8e 77 fe ff ff    	jle    5db4 <alloc__UxtcZ3QOXKsB7mMchxUf9cg+0x94>
    5f3d:	48 8b 50 10          	mov    rdx,QWORD PTR [rax+0x10]
    5f41:	48 85 d2             	test   rdx,rdx
    5f44:	48 89 55 10          	mov    QWORD PTR [rbp+0x10],rdx
    5f48:	0f 84 56 fe ff ff    	je     5da4 <alloc__UxtcZ3QOXKsB7mMchxUf9cg+0x84>
    5f4e:	48 c7 42 18 00 00 00 	mov    QWORD PTR [rdx+0x18],0x0
    5f55:	00 
    5f56:	e9 49 fe ff ff       	jmp    5da4 <alloc__UxtcZ3QOXKsB7mMchxUf9cg+0x84>
    5f5b:	0f 1f 44 00 00       	nop    DWORD PTR [rax+rax*1+0x0]
    5f60:	48 8b 50 30          	mov    rdx,QWORD PTR [rax+0x30]
    5f64:	4c 8d 64 10 38       	lea    r12,[rax+rdx*1+0x38]
    5f69:	4c 01 ea             	add    rdx,r13
    5f6c:	48 89 50 30          	mov    QWORD PTR [rax+0x30],rdx
    5f70:	e9 f8 fd ff ff       	jmp    5d6d <alloc__UxtcZ3QOXKsB7mMchxUf9cg+0x4d>
    5f75:	0f 1f 00             	nop    DWORD PTR [rax]
    5f78:	48 83 c6 08          	add    rsi,0x8
    5f7c:	48 89 e9             	mov    rcx,rbp
    5f7f:	4c 89 e2             	mov    rdx,r12
    5f82:	48 89 df             	mov    rdi,rbx
    5f85:	e8 f6 f7 ff ff       	call   5780 <add__3D9aOyz4rDquPZKBlqn0xig>
    5f8a:	48 8b b3 a8 30 00 00 	mov    rsi,QWORD PTR [rbx+0x30a8]
    5f91:	48 8b 06             	mov    rax,QWORD PTR [rsi]
    5f94:	e9 86 fe ff ff       	jmp    5e1f <alloc__UxtcZ3QOXKsB7mMchxUf9cg+0xff>
    5f99:	0f 1f 80 00 00 00 00 	nop    DWORD PTR [rax+0x0]
    5fa0:	48 8b 83 c0 30 00 00 	mov    rax,QWORD PTR [rbx+0x30c0]
    5fa7:	48 85 c0             	test   rax,rax
    5faa:	74 74                	je     6020 <alloc__UxtcZ3QOXKsB7mMchxUf9cg+0x300>
    5fac:	48 8b 10             	mov    rdx,QWORD PTR [rax]
    5faf:	48 89 93 c0 30 00 00 	mov    QWORD PTR [rbx+0x30c0],rdx
    5fb6:	4c 89 60 10          	mov    QWORD PTR [rax+0x10],r12
    5fba:	48 89 68 18          	mov    QWORD PTR [rax+0x18],rbp
    5fbe:	48 8d 93 d8 30 00 00 	lea    rdx,[rbx+0x30d8]
    5fc5:	48 83 bb d8 30 00 00 	cmp    QWORD PTR [rbx+0x30d8],0x0
    5fcc:	00 
    5fcd:	75 0e                	jne    5fdd <alloc__UxtcZ3QOXKsB7mMchxUf9cg+0x2bd>
    5fcf:	48 89 93 d8 30 00 00 	mov    QWORD PTR [rbx+0x30d8],rdx
    5fd6:	48 89 93 e0 30 00 00 	mov    QWORD PTR [rbx+0x30e0],rdx
    5fdd:	48 89 10             	mov    QWORD PTR [rax],rdx
    5fe0:	48 89 50 08          	mov    QWORD PTR [rax+0x8],rdx
    5fe4:	48 c7 40 20 01 00 00 	mov    QWORD PTR [rax+0x20],0x1
    5feb:	00 
    5fec:	48 89 83 a8 30 00 00 	mov    QWORD PTR [rbx+0x30a8],rax
    5ff3:	e9 87 fe ff ff       	jmp    5e7f <alloc__UxtcZ3QOXKsB7mMchxUf9cg+0x15f>
    5ff8:	0f 1f 84 00 00 00 00 	nop    DWORD PTR [rax+rax*1+0x0]
    5fff:	00 
    6000:	48 89 b3 d8 30 00 00 	mov    QWORD PTR [rbx+0x30d8],rsi
    6007:	48 89 b3 e0 30 00 00 	mov    QWORD PTR [rbx+0x30e0],rsi
    600e:	48 89 f0             	mov    rax,rsi
    6011:	e9 bd fe ff ff       	jmp    5ed3 <alloc__UxtcZ3QOXKsB7mMchxUf9cg+0x1b3>
    6016:	66 2e 0f 1f 84 00 00 	nop    WORD PTR cs:[rax+rax*1+0x0]
    601d:	00 00 00 
    6020:	4c 8b b3 78 28 00 00 	mov    r14,QWORD PTR [rbx+0x2878]
    6027:	4d 85 f6             	test   r14,r14
    602a:	74 3b                	je     6067 <alloc__UxtcZ3QOXKsB7mMchxUf9cg+0x347>
    602c:	49 8b 16             	mov    rdx,QWORD PTR [r14]
    602f:	48 83 fa 27          	cmp    rdx,0x27
    6033:	7e 32                	jle    6067 <alloc__UxtcZ3QOXKsB7mMchxUf9cg+0x347>
    6035:	49 8b 46 08          	mov    rax,QWORD PTR [r14+0x8]
    6039:	48 83 ea 28          	sub    rdx,0x28
    603d:	49 89 16             	mov    QWORD PTR [r14],rdx
    6040:	66 0f ef c0          	pxor   xmm0,xmm0
    6044:	48 8b 93 78 28 00 00 	mov    rdx,QWORD PTR [rbx+0x2878]
    604b:	4c 01 f0             	add    rax,r14
    604e:	48 83 42 08 28       	add    QWORD PTR [rdx+0x8],0x28
    6053:	48 c7 40 20 00 00 00 	mov    QWORD PTR [rax+0x20],0x0
    605a:	00 
    605b:	0f 11 00             	movups XMMWORD PTR [rax],xmm0
    605e:	0f 11 40 10          	movups XMMWORD PTR [rax+0x10],xmm0
    6062:	e9 4f ff ff ff       	jmp    5fb6 <alloc__UxtcZ3QOXKsB7mMchxUf9cg+0x296>
    6067:	45 31 c9             	xor    r9d,r9d
    606a:	ba 03 00 00 00       	mov    edx,0x3
    606f:	31 ff                	xor    edi,edi
    6071:	41 b8 ff ff ff ff    	mov    r8d,0xffffffff
    6077:	b9 22 00 00 00       	mov    ecx,0x22
    607c:	be 00 10 00 00       	mov    esi,0x1000
    6081:	e8 ea a8 ff ff       	call   970 <mmap@plt>
    6086:	48 8d 50 ff          	lea    rdx,[rax-0x1]
    608a:	48 83 fa fd          	cmp    rdx,0xfffffffffffffffd
    608e:	76 0f                	jbe    609f <alloc__UxtcZ3QOXKsB7mMchxUf9cg+0x37f>
    6090:	48 89 44 24 08       	mov    QWORD PTR [rsp+0x8],rax
    6095:	e8 66 b0 ff ff       	call   1100 <raiseOutOfMem__mMRdr4sgmnykA9aWeM9aDZlw>
    609a:	48 8b 44 24 08       	mov    rax,QWORD PTR [rsp+0x8]
    609f:	48 89 83 78 28 00 00 	mov    QWORD PTR [rbx+0x2878],rax
    60a6:	48 81 83 80 28 00 00 	add    QWORD PTR [rbx+0x2880],0x1000
    60ad:	00 10 00 00 
    60b1:	48 c7 00 e8 0f 00 00 	mov    QWORD PTR [rax],0xfe8
    60b8:	48 8b 83 78 28 00 00 	mov    rax,QWORD PTR [rbx+0x2878]
    60bf:	48 c7 40 08 18 00 00 	mov    QWORD PTR [rax+0x8],0x18
    60c6:	00 
    60c7:	48 8b 83 78 28 00 00 	mov    rax,QWORD PTR [rbx+0x2878]
    60ce:	4c 89 70 10          	mov    QWORD PTR [rax+0x10],r14
    60d2:	4c 8b b3 78 28 00 00 	mov    r14,QWORD PTR [rbx+0x2878]
    60d9:	49 8b 16             	mov    rdx,QWORD PTR [r14]
    60dc:	e9 54 ff ff ff       	jmp    6035 <alloc__UxtcZ3QOXKsB7mMchxUf9cg+0x315>
    60e1:	0f 1f 44 00 00       	nop    DWORD PTR [rax+rax*1+0x0]
    60e6:	66 2e 0f 1f 84 00 00 	nop    WORD PTR cs:[rax+rax*1+0x0]
    60ed:	00 00 00 

00000000000060f0 <allocImpl__WrVG9abV9chlTLqkiXYLKwUg_2>:
    60f0:	48 8d 47 07          	lea    rax,[rdi+0x7]
    60f4:	41 55                	push   r13
    60f6:	41 54                	push   r12
    60f8:	55                   	push   rbp
    60f9:	53                   	push   rbx
    60fa:	49 89 c4             	mov    r12,rax
    60fd:	49 83 e4 f8          	and    r12,0xfffffffffffffff8
    6101:	48 83 ec 18          	sub    rsp,0x18
    6105:	49 81 fc c8 0f 00 00 	cmp    r12,0xfc8
    610c:	0f 8f 96 00 00 00    	jg     61a8 <allocImpl__WrVG9abV9chlTLqkiXYLKwUg_2+0xb8>
    6112:	48 c1 f8 03          	sar    rax,0x3
    6116:	4c 8d 2d 63 bf 20 00 	lea    r13,[rip+0x20bf63]        # 212080 <allocator__Het9ctRSeaVb4hPekZZNCJQ>
    611d:	48 8d 58 02          	lea    rbx,[rax+0x2]
    6121:	49 8b 44 dd 00       	mov    rax,QWORD PTR [r13+rbx*8+0x0]
    6126:	48 85 c0             	test   rax,rax
    6129:	0f 84 61 01 00 00    	je     6290 <allocImpl__WrVG9abV9chlTLqkiXYLKwUg_2+0x1a0>
    612f:	48 8b 68 20          	mov    rbp,QWORD PTR [rax+0x20]
    6133:	48 85 ed             	test   rbp,rbp
    6136:	0f 84 0c 02 00 00    	je     6348 <allocImpl__WrVG9abV9chlTLqkiXYLKwUg_2+0x258>
    613c:	48 8b 55 00          	mov    rdx,QWORD PTR [rbp+0x0]
    6140:	48 89 50 20          	mov    QWORD PTR [rax+0x20],rdx
    6144:	48 8b 50 28          	mov    rdx,QWORD PTR [rax+0x28]
    6148:	4c 29 e2             	sub    rdx,r12
    614b:	49 39 d4             	cmp    r12,rdx
    614e:	48 89 50 28          	mov    QWORD PTR [rax+0x28],rdx
    6152:	7e 38                	jle    618c <allocImpl__WrVG9abV9chlTLqkiXYLKwUg_2+0x9c>
    6154:	49 3b 44 dd 00       	cmp    rax,QWORD PTR [r13+rbx*8+0x0]
    6159:	48 8b 50 10          	mov    rdx,QWORD PTR [rax+0x10]
    615d:	0f 84 94 01 00 00    	je     62f7 <allocImpl__WrVG9abV9chlTLqkiXYLKwUg_2+0x207>
    6163:	48 8b 48 18          	mov    rcx,QWORD PTR [rax+0x18]
    6167:	48 89 51 10          	mov    QWORD PTR [rcx+0x10],rdx
    616b:	48 8b 50 10          	mov    rdx,QWORD PTR [rax+0x10]
    616f:	48 85 d2             	test   rdx,rdx
    6172:	74 08                	je     617c <allocImpl__WrVG9abV9chlTLqkiXYLKwUg_2+0x8c>
    6174:	48 8b 48 18          	mov    rcx,QWORD PTR [rax+0x18]
    6178:	48 89 4a 18          	mov    QWORD PTR [rdx+0x18],rcx
    617c:	48 c7 40 10 00 00 00 	mov    QWORD PTR [rax+0x10],0x0
    6183:	00 
    6184:	48 c7 40 18 00 00 00 	mov    QWORD PTR [rax+0x18],0x0
    618b:	00 
    618c:	4c 01 25 85 e7 20 00 	add    QWORD PTR [rip+0x20e785],r12        # 214918 <allocator__Het9ctRSeaVb4hPekZZNCJQ+0x2898>
    6193:	48 83 c4 18          	add    rsp,0x18
    6197:	48 89 e8             	mov    rax,rbp
    619a:	5b                   	pop    rbx
    619b:	5d                   	pop    rbp
    619c:	41 5c                	pop    r12
    619e:	41 5d                	pop    r13
    61a0:	c3                   	ret    
    61a1:	0f 1f 80 00 00 00 00 	nop    DWORD PTR [rax+0x0]
    61a8:	48 8d 5f 20          	lea    rbx,[rdi+0x20]
    61ac:	48 8d 3d cd be 20 00 	lea    rdi,[rip+0x20becd]        # 212080 <allocator__Het9ctRSeaVb4hPekZZNCJQ>
    61b3:	48 81 fb 00 00 00 3f 	cmp    rbx,0x3f000000
    61ba:	48 89 de             	mov    rsi,rbx
    61bd:	0f 8e bd 00 00 00    	jle    6280 <allocImpl__WrVG9abV9chlTLqkiXYLKwUg_2+0x190>
    61c3:	e8 a8 f2 ff ff       	call   5470 <getHugeChunk__stlXHMKRKFIGOvq8t4ynRQ_3>
    61c8:	49 89 c4             	mov    r12,rax
    61cb:	48 8b 35 56 ef 20 00 	mov    rsi,QWORD PTR [rip+0x20ef56]        # 215128 <allocator__Het9ctRSeaVb4hPekZZNCJQ+0x30a8>
    61d2:	49 8d 6c 24 20       	lea    rbp,[r12+0x20]
    61d7:	48 85 f6             	test   rsi,rsi
    61da:	0f 84 38 01 00 00    	je     6318 <allocImpl__WrVG9abV9chlTLqkiXYLKwUg_2+0x228>
    61e0:	48 8b 06             	mov    rax,QWORD PTR [rsi]
    61e3:	48 01 eb             	add    rbx,rbp
    61e6:	48 39 c6             	cmp    rsi,rax
    61e9:	0f 84 99 01 00 00    	je     6388 <allocImpl__WrVG9abV9chlTLqkiXYLKwUg_2+0x298>
    61ef:	48 3b 6e 10          	cmp    rbp,QWORD PTR [rsi+0x10]
    61f3:	0f 82 6b 01 00 00    	jb     6364 <allocImpl__WrVG9abV9chlTLqkiXYLKwUg_2+0x274>
    61f9:	0f 87 61 01 00 00    	ja     6360 <allocImpl__WrVG9abV9chlTLqkiXYLKwUg_2+0x270>
    61ff:	48 8b 56 20          	mov    rdx,QWORD PTR [rsi+0x20]
    6203:	48 39 50 20          	cmp    QWORD PTR [rax+0x20],rdx
    6207:	75 24                	jne    622d <allocImpl__WrVG9abV9chlTLqkiXYLKwUg_2+0x13d>
    6209:	48 89 05 18 ef 20 00 	mov    QWORD PTR [rip+0x20ef18],rax        # 215128 <allocator__Het9ctRSeaVb4hPekZZNCJQ+0x30a8>
    6210:	48 8b 40 08          	mov    rax,QWORD PTR [rax+0x8]
    6214:	48 89 06             	mov    QWORD PTR [rsi],rax
    6217:	48 8b 05 0a ef 20 00 	mov    rax,QWORD PTR [rip+0x20ef0a]        # 215128 <allocator__Het9ctRSeaVb4hPekZZNCJQ+0x30a8>
    621e:	48 89 70 08          	mov    QWORD PTR [rax+0x8],rsi
    6222:	48 8b 35 ff ee 20 00 	mov    rsi,QWORD PTR [rip+0x20eeff]        # 215128 <allocator__Het9ctRSeaVb4hPekZZNCJQ+0x30a8>
    6229:	48 8b 56 20          	mov    rdx,QWORD PTR [rsi+0x20]
    622d:	48 8b 46 08          	mov    rax,QWORD PTR [rsi+0x8]
    6231:	48 8b 48 08          	mov    rcx,QWORD PTR [rax+0x8]
    6235:	48 39 51 20          	cmp    QWORD PTR [rcx+0x20],rdx
    6239:	75 24                	jne    625f <allocImpl__WrVG9abV9chlTLqkiXYLKwUg_2+0x16f>
    623b:	48 89 05 e6 ee 20 00 	mov    QWORD PTR [rip+0x20eee6],rax        # 215128 <allocator__Het9ctRSeaVb4hPekZZNCJQ+0x30a8>
    6242:	48 8b 00             	mov    rax,QWORD PTR [rax]
    6245:	48 89 46 08          	mov    QWORD PTR [rsi+0x8],rax
    6249:	48 8b 05 d8 ee 20 00 	mov    rax,QWORD PTR [rip+0x20eed8]        # 215128 <allocator__Het9ctRSeaVb4hPekZZNCJQ+0x30a8>
    6250:	48 89 30             	mov    QWORD PTR [rax],rsi
    6253:	48 8b 05 ce ee 20 00 	mov    rax,QWORD PTR [rip+0x20eece]        # 215128 <allocator__Het9ctRSeaVb4hPekZZNCJQ+0x30a8>
    625a:	48 83 40 20 01       	add    QWORD PTR [rax+0x20],0x1
    625f:	49 8b 44 24 08       	mov    rax,QWORD PTR [r12+0x8]
    6264:	48 01 05 ad e6 20 00 	add    QWORD PTR [rip+0x20e6ad],rax        # 214918 <allocator__Het9ctRSeaVb4hPekZZNCJQ+0x2898>
    626b:	48 83 c4 18          	add    rsp,0x18
    626f:	5b                   	pop    rbx
    6270:	48 89 e8             	mov    rax,rbp
    6273:	5d                   	pop    rbp
    6274:	41 5c                	pop    r12
    6276:	41 5d                	pop    r13
    6278:	c3                   	ret    
    6279:	0f 1f 80 00 00 00 00 	nop    DWORD PTR [rax+0x0]
    6280:	e8 8b e7 ff ff       	call   4a10 <getBigChunk__stlXHMKRKFIGOvq8t4ynRQ>
    6285:	49 89 c4             	mov    r12,rax
    6288:	e9 3e ff ff ff       	jmp    61cb <allocImpl__WrVG9abV9chlTLqkiXYLKwUg_2+0xdb>
    628d:	0f 1f 00             	nop    DWORD PTR [rax]
    6290:	be 00 10 00 00       	mov    esi,0x1000
    6295:	4c 89 ef             	mov    rdi,r13
    6298:	e8 73 e7 ff ff       	call   4a10 <getBigChunk__stlXHMKRKFIGOvq8t4ynRQ>
    629d:	ba c8 0f 00 00       	mov    edx,0xfc8
    62a2:	48 c7 40 10 00 00 00 	mov    QWORD PTR [rax+0x10],0x0
    62a9:	00 
    62aa:	48 c7 40 20 00 00 00 	mov    QWORD PTR [rax+0x20],0x0
    62b1:	00 
    62b2:	4c 29 e2             	sub    rdx,r12
    62b5:	4c 89 60 08          	mov    QWORD PTR [rax+0x8],r12
    62b9:	4c 89 60 30          	mov    QWORD PTR [rax+0x30],r12
    62bd:	48 89 50 28          	mov    QWORD PTR [rax+0x28],rdx
    62c1:	48 c7 40 18 00 00 00 	mov    QWORD PTR [rax+0x18],0x0
    62c8:	00 
    62c9:	49 8b 54 dd 00       	mov    rdx,QWORD PTR [r13+rbx*8+0x0]
    62ce:	48 89 50 10          	mov    QWORD PTR [rax+0x10],rdx
    62d2:	49 8b 54 dd 00       	mov    rdx,QWORD PTR [r13+rbx*8+0x0]
    62d7:	48 85 d2             	test   rdx,rdx
    62da:	74 04                	je     62e0 <allocImpl__WrVG9abV9chlTLqkiXYLKwUg_2+0x1f0>
    62dc:	48 89 42 18          	mov    QWORD PTR [rdx+0x18],rax
    62e0:	49 89 44 dd 00       	mov    QWORD PTR [r13+rbx*8+0x0],rax
    62e5:	4c 3b 60 28          	cmp    r12,QWORD PTR [rax+0x28]
    62e9:	48 8d 68 38          	lea    rbp,[rax+0x38]
    62ed:	0f 8e 99 fe ff ff    	jle    618c <allocImpl__WrVG9abV9chlTLqkiXYLKwUg_2+0x9c>
    62f3:	48 8b 50 10          	mov    rdx,QWORD PTR [rax+0x10]
    62f7:	48 85 d2             	test   rdx,rdx
    62fa:	49 89 54 dd 00       	mov    QWORD PTR [r13+rbx*8+0x0],rdx
    62ff:	0f 84 77 fe ff ff    	je     617c <allocImpl__WrVG9abV9chlTLqkiXYLKwUg_2+0x8c>
    6305:	48 c7 42 18 00 00 00 	mov    QWORD PTR [rdx+0x18],0x0
    630c:	00 
    630d:	e9 6a fe ff ff       	jmp    617c <allocImpl__WrVG9abV9chlTLqkiXYLKwUg_2+0x8c>
    6312:	66 0f 1f 44 00 00    	nop    WORD PTR [rax+rax*1+0x0]
    6318:	48 8b 05 39 ee 20 00 	mov    rax,QWORD PTR [rip+0x20ee39]        # 215158 <allocator__Het9ctRSeaVb4hPekZZNCJQ+0x30d8>
    631f:	48 8d 15 32 ee 20 00 	lea    rdx,[rip+0x20ee32]        # 215158 <allocator__Het9ctRSeaVb4hPekZZNCJQ+0x30d8>
    6326:	48 85 c0             	test   rax,rax
    6329:	0f 84 b1 00 00 00    	je     63e0 <allocImpl__WrVG9abV9chlTLqkiXYLKwUg_2+0x2f0>
    632f:	48 89 15 f2 ed 20 00 	mov    QWORD PTR [rip+0x20edf2],rdx        # 215128 <allocator__Het9ctRSeaVb4hPekZZNCJQ+0x30a8>
    6336:	48 8d 35 1b ee 20 00 	lea    rsi,[rip+0x20ee1b]        # 215158 <allocator__Het9ctRSeaVb4hPekZZNCJQ+0x30d8>
    633d:	e9 a1 fe ff ff       	jmp    61e3 <allocImpl__WrVG9abV9chlTLqkiXYLKwUg_2+0xf3>
    6342:	66 0f 1f 44 00 00    	nop    WORD PTR [rax+rax*1+0x0]
    6348:	48 8b 50 30          	mov    rdx,QWORD PTR [rax+0x30]
    634c:	48 8d 6c 10 38       	lea    rbp,[rax+rdx*1+0x38]
    6351:	4c 01 e2             	add    rdx,r12
    6354:	48 89 50 30          	mov    QWORD PTR [rax+0x30],rdx
    6358:	e9 e7 fd ff ff       	jmp    6144 <allocImpl__WrVG9abV9chlTLqkiXYLKwUg_2+0x54>
    635d:	0f 1f 00             	nop    DWORD PTR [rax]
    6360:	48 83 c6 08          	add    rsi,0x8
    6364:	48 8d 3d 15 bd 20 00 	lea    rdi,[rip+0x20bd15]        # 212080 <allocator__Het9ctRSeaVb4hPekZZNCJQ>
    636b:	48 89 d9             	mov    rcx,rbx
    636e:	48 89 ea             	mov    rdx,rbp
    6371:	e8 0a f4 ff ff       	call   5780 <add__3D9aOyz4rDquPZKBlqn0xig>
    6376:	48 8b 35 ab ed 20 00 	mov    rsi,QWORD PTR [rip+0x20edab]        # 215128 <allocator__Het9ctRSeaVb4hPekZZNCJQ+0x30a8>
    637d:	48 8b 06             	mov    rax,QWORD PTR [rsi]
    6380:	e9 7a fe ff ff       	jmp    61ff <allocImpl__WrVG9abV9chlTLqkiXYLKwUg_2+0x10f>
    6385:	0f 1f 00             	nop    DWORD PTR [rax]
    6388:	48 8b 05 b1 ed 20 00 	mov    rax,QWORD PTR [rip+0x20edb1]        # 215140 <allocator__Het9ctRSeaVb4hPekZZNCJQ+0x30c0>
    638f:	48 85 c0             	test   rax,rax
    6392:	74 6c                	je     6400 <allocImpl__WrVG9abV9chlTLqkiXYLKwUg_2+0x310>
    6394:	48 8b 10             	mov    rdx,QWORD PTR [rax]
    6397:	48 89 15 a2 ed 20 00 	mov    QWORD PTR [rip+0x20eda2],rdx        # 215140 <allocator__Het9ctRSeaVb4hPekZZNCJQ+0x30c0>
    639e:	48 89 68 10          	mov    QWORD PTR [rax+0x10],rbp
    63a2:	48 89 58 18          	mov    QWORD PTR [rax+0x18],rbx
    63a6:	48 8d 15 ab ed 20 00 	lea    rdx,[rip+0x20edab]        # 215158 <allocator__Het9ctRSeaVb4hPekZZNCJQ+0x30d8>
    63ad:	48 83 3d a3 ed 20 00 	cmp    QWORD PTR [rip+0x20eda3],0x0        # 215158 <allocator__Het9ctRSeaVb4hPekZZNCJQ+0x30d8>
    63b4:	00 
    63b5:	75 0e                	jne    63c5 <allocImpl__WrVG9abV9chlTLqkiXYLKwUg_2+0x2d5>
    63b7:	48 89 15 9a ed 20 00 	mov    QWORD PTR [rip+0x20ed9a],rdx        # 215158 <allocator__Het9ctRSeaVb4hPekZZNCJQ+0x30d8>
    63be:	48 89 15 9b ed 20 00 	mov    QWORD PTR [rip+0x20ed9b],rdx        # 215160 <allocator__Het9ctRSeaVb4hPekZZNCJQ+0x30e0>
    63c5:	48 89 10             	mov    QWORD PTR [rax],rdx
    63c8:	48 89 50 08          	mov    QWORD PTR [rax+0x8],rdx
    63cc:	48 c7 40 20 01 00 00 	mov    QWORD PTR [rax+0x20],0x1
    63d3:	00 
    63d4:	48 89 05 4d ed 20 00 	mov    QWORD PTR [rip+0x20ed4d],rax        # 215128 <allocator__Het9ctRSeaVb4hPekZZNCJQ+0x30a8>
    63db:	e9 7f fe ff ff       	jmp    625f <allocImpl__WrVG9abV9chlTLqkiXYLKwUg_2+0x16f>
    63e0:	48 89 15 71 ed 20 00 	mov    QWORD PTR [rip+0x20ed71],rdx        # 215158 <allocator__Het9ctRSeaVb4hPekZZNCJQ+0x30d8>
    63e7:	48 89 15 72 ed 20 00 	mov    QWORD PTR [rip+0x20ed72],rdx        # 215160 <allocator__Het9ctRSeaVb4hPekZZNCJQ+0x30e0>
    63ee:	48 89 d0             	mov    rax,rdx
    63f1:	e9 39 ff ff ff       	jmp    632f <allocImpl__WrVG9abV9chlTLqkiXYLKwUg_2+0x23f>
    63f6:	66 2e 0f 1f 84 00 00 	nop    WORD PTR cs:[rax+rax*1+0x0]
    63fd:	00 00 00 
    6400:	4c 8b 2d f1 e4 20 00 	mov    r13,QWORD PTR [rip+0x20e4f1]        # 2148f8 <allocator__Het9ctRSeaVb4hPekZZNCJQ+0x2878>
    6407:	4d 85 ed             	test   r13,r13
    640a:	74 3d                	je     6449 <allocImpl__WrVG9abV9chlTLqkiXYLKwUg_2+0x359>
    640c:	49 8b 55 00          	mov    rdx,QWORD PTR [r13+0x0]
    6410:	48 83 fa 27          	cmp    rdx,0x27
    6414:	7e 33                	jle    6449 <allocImpl__WrVG9abV9chlTLqkiXYLKwUg_2+0x359>
    6416:	49 8b 45 08          	mov    rax,QWORD PTR [r13+0x8]
    641a:	48 83 ea 28          	sub    rdx,0x28
    641e:	49 89 55 00          	mov    QWORD PTR [r13+0x0],rdx
    6422:	66 0f ef c0          	pxor   xmm0,xmm0
    6426:	48 8b 15 cb e4 20 00 	mov    rdx,QWORD PTR [rip+0x20e4cb]        # 2148f8 <allocator__Het9ctRSeaVb4hPekZZNCJQ+0x2878>
    642d:	4c 01 e8             	add    rax,r13
    6430:	48 83 42 08 28       	add    QWORD PTR [rdx+0x8],0x28
    6435:	48 c7 40 20 00 00 00 	mov    QWORD PTR [rax+0x20],0x0
    643c:	00 
    643d:	0f 11 00             	movups XMMWORD PTR [rax],xmm0
    6440:	0f 11 40 10          	movups XMMWORD PTR [rax+0x10],xmm0
    6444:	e9 55 ff ff ff       	jmp    639e <allocImpl__WrVG9abV9chlTLqkiXYLKwUg_2+0x2ae>
    6449:	45 31 c9             	xor    r9d,r9d
    644c:	ba 03 00 00 00       	mov    edx,0x3
    6451:	31 ff                	xor    edi,edi
    6453:	41 b8 ff ff ff ff    	mov    r8d,0xffffffff
    6459:	b9 22 00 00 00       	mov    ecx,0x22
    645e:	be 00 10 00 00       	mov    esi,0x1000
    6463:	e8 08 a5 ff ff       	call   970 <mmap@plt>
    6468:	48 8d 50 ff          	lea    rdx,[rax-0x1]
    646c:	48 83 fa fd          	cmp    rdx,0xfffffffffffffffd
    6470:	76 0f                	jbe    6481 <allocImpl__WrVG9abV9chlTLqkiXYLKwUg_2+0x391>
    6472:	48 89 44 24 08       	mov    QWORD PTR [rsp+0x8],rax
    6477:	e8 84 ac ff ff       	call   1100 <raiseOutOfMem__mMRdr4sgmnykA9aWeM9aDZlw>
    647c:	48 8b 44 24 08       	mov    rax,QWORD PTR [rsp+0x8]
    6481:	48 89 05 70 e4 20 00 	mov    QWORD PTR [rip+0x20e470],rax        # 2148f8 <allocator__Het9ctRSeaVb4hPekZZNCJQ+0x2878>
    6488:	48 81 05 6d e4 20 00 	add    QWORD PTR [rip+0x20e46d],0x1000        # 214900 <allocator__Het9ctRSeaVb4hPekZZNCJQ+0x2880>
    648f:	00 10 00 00 
    6493:	48 c7 00 e8 0f 00 00 	mov    QWORD PTR [rax],0xfe8
    649a:	48 8b 05 57 e4 20 00 	mov    rax,QWORD PTR [rip+0x20e457]        # 2148f8 <allocator__Het9ctRSeaVb4hPekZZNCJQ+0x2878>
    64a1:	48 c7 40 08 18 00 00 	mov    QWORD PTR [rax+0x8],0x18
    64a8:	00 
    64a9:	48 8b 05 48 e4 20 00 	mov    rax,QWORD PTR [rip+0x20e448]        # 2148f8 <allocator__Het9ctRSeaVb4hPekZZNCJQ+0x2878>
    64b0:	4c 89 68 10          	mov    QWORD PTR [rax+0x10],r13
    64b4:	4c 8b 2d 3d e4 20 00 	mov    r13,QWORD PTR [rip+0x20e43d]        # 2148f8 <allocator__Het9ctRSeaVb4hPekZZNCJQ+0x2878>
    64bb:	49 8b 55 00          	mov    rdx,QWORD PTR [r13+0x0]
    64bf:	e9 52 ff ff ff       	jmp    6416 <allocImpl__WrVG9abV9chlTLqkiXYLKwUg_2+0x326>
    64c4:	66 90                	xchg   ax,ax
    64c6:	66 2e 0f 1f 84 00 00 	nop    WORD PTR cs:[rax+rax*1+0x0]
    64cd:	00 00 00 

00000000000064d0 <allocSharedImpl>:
    64d0:	48 8d 47 07          	lea    rax,[rdi+0x7]
    64d4:	41 55                	push   r13
    64d6:	41 54                	push   r12
    64d8:	55                   	push   rbp
    64d9:	53                   	push   rbx
    64da:	49 89 c4             	mov    r12,rax
    64dd:	49 83 e4 f8          	and    r12,0xfffffffffffffff8
    64e1:	48 83 ec 18          	sub    rsp,0x18
    64e5:	49 81 fc c8 0f 00 00 	cmp    r12,0xfc8
    64ec:	0f 8f 96 00 00 00    	jg     6588 <allocSharedImpl+0xb8>
    64f2:	48 c1 f8 03          	sar    rax,0x3
    64f6:	4c 8d 2d 83 bb 20 00 	lea    r13,[rip+0x20bb83]        # 212080 <allocator__Het9ctRSeaVb4hPekZZNCJQ>
    64fd:	48 8d 58 02          	lea    rbx,[rax+0x2]
    6501:	49 8b 44 dd 00       	mov    rax,QWORD PTR [r13+rbx*8+0x0]
    6506:	48 85 c0             	test   rax,rax
    6509:	0f 84 61 01 00 00    	je     6670 <allocSharedImpl+0x1a0>
    650f:	48 8b 68 20          	mov    rbp,QWORD PTR [rax+0x20]
    6513:	48 85 ed             	test   rbp,rbp
    6516:	0f 84 0c 02 00 00    	je     6728 <allocSharedImpl+0x258>
    651c:	48 8b 55 00          	mov    rdx,QWORD PTR [rbp+0x0]
    6520:	48 89 50 20          	mov    QWORD PTR [rax+0x20],rdx
    6524:	48 8b 50 28          	mov    rdx,QWORD PTR [rax+0x28]
    6528:	4c 29 e2             	sub    rdx,r12
    652b:	49 39 d4             	cmp    r12,rdx
    652e:	48 89 50 28          	mov    QWORD PTR [rax+0x28],rdx
    6532:	7e 38                	jle    656c <allocSharedImpl+0x9c>
    6534:	49 3b 44 dd 00       	cmp    rax,QWORD PTR [r13+rbx*8+0x0]
    6539:	48 8b 50 10          	mov    rdx,QWORD PTR [rax+0x10]
    653d:	0f 84 94 01 00 00    	je     66d7 <allocSharedImpl+0x207>
    6543:	48 8b 48 18          	mov    rcx,QWORD PTR [rax+0x18]
    6547:	48 89 51 10          	mov    QWORD PTR [rcx+0x10],rdx
    654b:	48 8b 50 10          	mov    rdx,QWORD PTR [rax+0x10]
    654f:	48 85 d2             	test   rdx,rdx
    6552:	74 08                	je     655c <allocSharedImpl+0x8c>
    6554:	48 8b 48 18          	mov    rcx,QWORD PTR [rax+0x18]
    6558:	48 89 4a 18          	mov    QWORD PTR [rdx+0x18],rcx
    655c:	48 c7 40 10 00 00 00 	mov    QWORD PTR [rax+0x10],0x0
    6563:	00 
    6564:	48 c7 40 18 00 00 00 	mov    QWORD PTR [rax+0x18],0x0
    656b:	00 
    656c:	4c 01 25 a5 e3 20 00 	add    QWORD PTR [rip+0x20e3a5],r12        # 214918 <allocator__Het9ctRSeaVb4hPekZZNCJQ+0x2898>
    6573:	48 83 c4 18          	add    rsp,0x18
    6577:	48 89 e8             	mov    rax,rbp
    657a:	5b                   	pop    rbx
    657b:	5d                   	pop    rbp
    657c:	41 5c                	pop    r12
    657e:	41 5d                	pop    r13
    6580:	c3                   	ret    
    6581:	0f 1f 80 00 00 00 00 	nop    DWORD PTR [rax+0x0]
    6588:	48 8d 5f 20          	lea    rbx,[rdi+0x20]
    658c:	48 8d 3d ed ba 20 00 	lea    rdi,[rip+0x20baed]        # 212080 <allocator__Het9ctRSeaVb4hPekZZNCJQ>
    6593:	48 81 fb 00 00 00 3f 	cmp    rbx,0x3f000000
    659a:	48 89 de             	mov    rsi,rbx
    659d:	0f 8e bd 00 00 00    	jle    6660 <allocSharedImpl+0x190>
    65a3:	e8 c8 ee ff ff       	call   5470 <getHugeChunk__stlXHMKRKFIGOvq8t4ynRQ_3>
    65a8:	49 89 c4             	mov    r12,rax
    65ab:	48 8b 35 76 eb 20 00 	mov    rsi,QWORD PTR [rip+0x20eb76]        # 215128 <allocator__Het9ctRSeaVb4hPekZZNCJQ+0x30a8>
    65b2:	49 8d 6c 24 20       	lea    rbp,[r12+0x20]
    65b7:	48 85 f6             	test   rsi,rsi
    65ba:	0f 84 38 01 00 00    	je     66f8 <allocSharedImpl+0x228>
    65c0:	48 8b 06             	mov    rax,QWORD PTR [rsi]
    65c3:	48 01 eb             	add    rbx,rbp
    65c6:	48 39 c6             	cmp    rsi,rax
    65c9:	0f 84 99 01 00 00    	je     6768 <allocSharedImpl+0x298>
    65cf:	48 3b 6e 10          	cmp    rbp,QWORD PTR [rsi+0x10]
    65d3:	0f 82 6b 01 00 00    	jb     6744 <allocSharedImpl+0x274>
    65d9:	0f 87 61 01 00 00    	ja     6740 <allocSharedImpl+0x270>
    65df:	48 8b 56 20          	mov    rdx,QWORD PTR [rsi+0x20]
    65e3:	48 39 50 20          	cmp    QWORD PTR [rax+0x20],rdx
    65e7:	75 24                	jne    660d <allocSharedImpl+0x13d>
    65e9:	48 89 05 38 eb 20 00 	mov    QWORD PTR [rip+0x20eb38],rax        # 215128 <allocator__Het9ctRSeaVb4hPekZZNCJQ+0x30a8>
    65f0:	48 8b 40 08          	mov    rax,QWORD PTR [rax+0x8]
    65f4:	48 89 06             	mov    QWORD PTR [rsi],rax
    65f7:	48 8b 05 2a eb 20 00 	mov    rax,QWORD PTR [rip+0x20eb2a]        # 215128 <allocator__Het9ctRSeaVb4hPekZZNCJQ+0x30a8>
    65fe:	48 89 70 08          	mov    QWORD PTR [rax+0x8],rsi
    6602:	48 8b 35 1f eb 20 00 	mov    rsi,QWORD PTR [rip+0x20eb1f]        # 215128 <allocator__Het9ctRSeaVb4hPekZZNCJQ+0x30a8>
    6609:	48 8b 56 20          	mov    rdx,QWORD PTR [rsi+0x20]
    660d:	48 8b 46 08          	mov    rax,QWORD PTR [rsi+0x8]
    6611:	48 8b 48 08          	mov    rcx,QWORD PTR [rax+0x8]
    6615:	48 39 51 20          	cmp    QWORD PTR [rcx+0x20],rdx
    6619:	75 24                	jne    663f <allocSharedImpl+0x16f>
    661b:	48 89 05 06 eb 20 00 	mov    QWORD PTR [rip+0x20eb06],rax        # 215128 <allocator__Het9ctRSeaVb4hPekZZNCJQ+0x30a8>
    6622:	48 8b 00             	mov    rax,QWORD PTR [rax]
    6625:	48 89 46 08          	mov    QWORD PTR [rsi+0x8],rax
    6629:	48 8b 05 f8 ea 20 00 	mov    rax,QWORD PTR [rip+0x20eaf8]        # 215128 <allocator__Het9ctRSeaVb4hPekZZNCJQ+0x30a8>
    6630:	48 89 30             	mov    QWORD PTR [rax],rsi
    6633:	48 8b 05 ee ea 20 00 	mov    rax,QWORD PTR [rip+0x20eaee]        # 215128 <allocator__Het9ctRSeaVb4hPekZZNCJQ+0x30a8>
    663a:	48 83 40 20 01       	add    QWORD PTR [rax+0x20],0x1
    663f:	49 8b 44 24 08       	mov    rax,QWORD PTR [r12+0x8]
    6644:	48 01 05 cd e2 20 00 	add    QWORD PTR [rip+0x20e2cd],rax        # 214918 <allocator__Het9ctRSeaVb4hPekZZNCJQ+0x2898>
    664b:	48 83 c4 18          	add    rsp,0x18
    664f:	5b                   	pop    rbx
    6650:	48 89 e8             	mov    rax,rbp
    6653:	5d                   	pop    rbp
    6654:	41 5c                	pop    r12
    6656:	41 5d                	pop    r13
    6658:	c3                   	ret    
    6659:	0f 1f 80 00 00 00 00 	nop    DWORD PTR [rax+0x0]
    6660:	e8 ab e3 ff ff       	call   4a10 <getBigChunk__stlXHMKRKFIGOvq8t4ynRQ>
    6665:	49 89 c4             	mov    r12,rax
    6668:	e9 3e ff ff ff       	jmp    65ab <allocSharedImpl+0xdb>
    666d:	0f 1f 00             	nop    DWORD PTR [rax]
    6670:	be 00 10 00 00       	mov    esi,0x1000
    6675:	4c 89 ef             	mov    rdi,r13
    6678:	e8 93 e3 ff ff       	call   4a10 <getBigChunk__stlXHMKRKFIGOvq8t4ynRQ>
    667d:	ba c8 0f 00 00       	mov    edx,0xfc8
    6682:	48 c7 40 10 00 00 00 	mov    QWORD PTR [rax+0x10],0x0
    6689:	00 
    668a:	48 c7 40 20 00 00 00 	mov    QWORD PTR [rax+0x20],0x0
    6691:	00 
    6692:	4c 29 e2             	sub    rdx,r12
    6695:	4c 89 60 08          	mov    QWORD PTR [rax+0x8],r12
    6699:	4c 89 60 30          	mov    QWORD PTR [rax+0x30],r12
    669d:	48 89 50 28          	mov    QWORD PTR [rax+0x28],rdx
    66a1:	48 c7 40 18 00 00 00 	mov    QWORD PTR [rax+0x18],0x0
    66a8:	00 
    66a9:	49 8b 54 dd 00       	mov    rdx,QWORD PTR [r13+rbx*8+0x0]
    66ae:	48 89 50 10          	mov    QWORD PTR [rax+0x10],rdx
    66b2:	49 8b 54 dd 00       	mov    rdx,QWORD PTR [r13+rbx*8+0x0]
    66b7:	48 85 d2             	test   rdx,rdx
    66ba:	74 04                	je     66c0 <allocSharedImpl+0x1f0>
    66bc:	48 89 42 18          	mov    QWORD PTR [rdx+0x18],rax
    66c0:	49 89 44 dd 00       	mov    QWORD PTR [r13+rbx*8+0x0],rax
    66c5:	4c 3b 60 28          	cmp    r12,QWORD PTR [rax+0x28]
    66c9:	48 8d 68 38          	lea    rbp,[rax+0x38]
    66cd:	0f 8e 99 fe ff ff    	jle    656c <allocSharedImpl+0x9c>
    66d3:	48 8b 50 10          	mov    rdx,QWORD PTR [rax+0x10]
    66d7:	48 85 d2             	test   rdx,rdx
    66da:	49 89 54 dd 00       	mov    QWORD PTR [r13+rbx*8+0x0],rdx
    66df:	0f 84 77 fe ff ff    	je     655c <allocSharedImpl+0x8c>
    66e5:	48 c7 42 18 00 00 00 	mov    QWORD PTR [rdx+0x18],0x0
    66ec:	00 
    66ed:	e9 6a fe ff ff       	jmp    655c <allocSharedImpl+0x8c>
    66f2:	66 0f 1f 44 00 00    	nop    WORD PTR [rax+rax*1+0x0]
    66f8:	48 8b 05 59 ea 20 00 	mov    rax,QWORD PTR [rip+0x20ea59]        # 215158 <allocator__Het9ctRSeaVb4hPekZZNCJQ+0x30d8>
    66ff:	48 8d 15 52 ea 20 00 	lea    rdx,[rip+0x20ea52]        # 215158 <allocator__Het9ctRSeaVb4hPekZZNCJQ+0x30d8>
    6706:	48 85 c0             	test   rax,rax
    6709:	0f 84 b1 00 00 00    	je     67c0 <allocSharedImpl+0x2f0>
    670f:	48 89 15 12 ea 20 00 	mov    QWORD PTR [rip+0x20ea12],rdx        # 215128 <allocator__Het9ctRSeaVb4hPekZZNCJQ+0x30a8>
    6716:	48 8d 35 3b ea 20 00 	lea    rsi,[rip+0x20ea3b]        # 215158 <allocator__Het9ctRSeaVb4hPekZZNCJQ+0x30d8>
    671d:	e9 a1 fe ff ff       	jmp    65c3 <allocSharedImpl+0xf3>
    6722:	66 0f 1f 44 00 00    	nop    WORD PTR [rax+rax*1+0x0]
    6728:	48 8b 50 30          	mov    rdx,QWORD PTR [rax+0x30]
    672c:	48 8d 6c 10 38       	lea    rbp,[rax+rdx*1+0x38]
    6731:	4c 01 e2             	add    rdx,r12
    6734:	48 89 50 30          	mov    QWORD PTR [rax+0x30],rdx
    6738:	e9 e7 fd ff ff       	jmp    6524 <allocSharedImpl+0x54>
    673d:	0f 1f 00             	nop    DWORD PTR [rax]
    6740:	48 83 c6 08          	add    rsi,0x8
    6744:	48 8d 3d 35 b9 20 00 	lea    rdi,[rip+0x20b935]        # 212080 <allocator__Het9ctRSeaVb4hPekZZNCJQ>
    674b:	48 89 d9             	mov    rcx,rbx
    674e:	48 89 ea             	mov    rdx,rbp
    6751:	e8 2a f0 ff ff       	call   5780 <add__3D9aOyz4rDquPZKBlqn0xig>
    6756:	48 8b 35 cb e9 20 00 	mov    rsi,QWORD PTR [rip+0x20e9cb]        # 215128 <allocator__Het9ctRSeaVb4hPekZZNCJQ+0x30a8>
    675d:	48 8b 06             	mov    rax,QWORD PTR [rsi]
    6760:	e9 7a fe ff ff       	jmp    65df <allocSharedImpl+0x10f>
    6765:	0f 1f 00             	nop    DWORD PTR [rax]
    6768:	48 8b 05 d1 e9 20 00 	mov    rax,QWORD PTR [rip+0x20e9d1]        # 215140 <allocator__Het9ctRSeaVb4hPekZZNCJQ+0x30c0>
    676f:	48 85 c0             	test   rax,rax
    6772:	74 6c                	je     67e0 <allocSharedImpl+0x310>
    6774:	48 8b 10             	mov    rdx,QWORD PTR [rax]
    6777:	48 89 15 c2 e9 20 00 	mov    QWORD PTR [rip+0x20e9c2],rdx        # 215140 <allocator__Het9ctRSeaVb4hPekZZNCJQ+0x30c0>
    677e:	48 89 68 10          	mov    QWORD PTR [rax+0x10],rbp
    6782:	48 89 58 18          	mov    QWORD PTR [rax+0x18],rbx
    6786:	48 8d 15 cb e9 20 00 	lea    rdx,[rip+0x20e9cb]        # 215158 <allocator__Het9ctRSeaVb4hPekZZNCJQ+0x30d8>
    678d:	48 83 3d c3 e9 20 00 	cmp    QWORD PTR [rip+0x20e9c3],0x0        # 215158 <allocator__Het9ctRSeaVb4hPekZZNCJQ+0x30d8>
    6794:	00 
    6795:	75 0e                	jne    67a5 <allocSharedImpl+0x2d5>
    6797:	48 89 15 ba e9 20 00 	mov    QWORD PTR [rip+0x20e9ba],rdx        # 215158 <allocator__Het9ctRSeaVb4hPekZZNCJQ+0x30d8>
    679e:	48 89 15 bb e9 20 00 	mov    QWORD PTR [rip+0x20e9bb],rdx        # 215160 <allocator__Het9ctRSeaVb4hPekZZNCJQ+0x30e0>
    67a5:	48 89 10             	mov    QWORD PTR [rax],rdx
    67a8:	48 89 50 08          	mov    QWORD PTR [rax+0x8],rdx
    67ac:	48 c7 40 20 01 00 00 	mov    QWORD PTR [rax+0x20],0x1
    67b3:	00 
    67b4:	48 89 05 6d e9 20 00 	mov    QWORD PTR [rip+0x20e96d],rax        # 215128 <allocator__Het9ctRSeaVb4hPekZZNCJQ+0x30a8>
    67bb:	e9 7f fe ff ff       	jmp    663f <allocSharedImpl+0x16f>
    67c0:	48 89 15 91 e9 20 00 	mov    QWORD PTR [rip+0x20e991],rdx        # 215158 <allocator__Het9ctRSeaVb4hPekZZNCJQ+0x30d8>
    67c7:	48 89 15 92 e9 20 00 	mov    QWORD PTR [rip+0x20e992],rdx        # 215160 <allocator__Het9ctRSeaVb4hPekZZNCJQ+0x30e0>
    67ce:	48 89 d0             	mov    rax,rdx
    67d1:	e9 39 ff ff ff       	jmp    670f <allocSharedImpl+0x23f>
    67d6:	66 2e 0f 1f 84 00 00 	nop    WORD PTR cs:[rax+rax*1+0x0]
    67dd:	00 00 00 
    67e0:	4c 8b 2d 11 e1 20 00 	mov    r13,QWORD PTR [rip+0x20e111]        # 2148f8 <allocator__Het9ctRSeaVb4hPekZZNCJQ+0x2878>
    67e7:	4d 85 ed             	test   r13,r13
    67ea:	74 3d                	je     6829 <allocSharedImpl+0x359>
    67ec:	49 8b 55 00          	mov    rdx,QWORD PTR [r13+0x0]
    67f0:	48 83 fa 27          	cmp    rdx,0x27
    67f4:	7e 33                	jle    6829 <allocSharedImpl+0x359>
    67f6:	49 8b 45 08          	mov    rax,QWORD PTR [r13+0x8]
    67fa:	48 83 ea 28          	sub    rdx,0x28
    67fe:	49 89 55 00          	mov    QWORD PTR [r13+0x0],rdx
    6802:	66 0f ef c0          	pxor   xmm0,xmm0
    6806:	48 8b 15 eb e0 20 00 	mov    rdx,QWORD PTR [rip+0x20e0eb]        # 2148f8 <allocator__Het9ctRSeaVb4hPekZZNCJQ+0x2878>
    680d:	4c 01 e8             	add    rax,r13
    6810:	48 83 42 08 28       	add    QWORD PTR [rdx+0x8],0x28
    6815:	48 c7 40 20 00 00 00 	mov    QWORD PTR [rax+0x20],0x0
    681c:	00 
    681d:	0f 11 00             	movups XMMWORD PTR [rax],xmm0
    6820:	0f 11 40 10          	movups XMMWORD PTR [rax+0x10],xmm0
    6824:	e9 55 ff ff ff       	jmp    677e <allocSharedImpl+0x2ae>
    6829:	45 31 c9             	xor    r9d,r9d
    682c:	ba 03 00 00 00       	mov    edx,0x3
    6831:	31 ff                	xor    edi,edi
    6833:	41 b8 ff ff ff ff    	mov    r8d,0xffffffff
    6839:	b9 22 00 00 00       	mov    ecx,0x22
    683e:	be 00 10 00 00       	mov    esi,0x1000
    6843:	e8 28 a1 ff ff       	call   970 <mmap@plt>
    6848:	48 8d 50 ff          	lea    rdx,[rax-0x1]
    684c:	48 83 fa fd          	cmp    rdx,0xfffffffffffffffd
    6850:	76 0f                	jbe    6861 <allocSharedImpl+0x391>
    6852:	48 89 44 24 08       	mov    QWORD PTR [rsp+0x8],rax
    6857:	e8 a4 a8 ff ff       	call   1100 <raiseOutOfMem__mMRdr4sgmnykA9aWeM9aDZlw>
    685c:	48 8b 44 24 08       	mov    rax,QWORD PTR [rsp+0x8]
    6861:	48 89 05 90 e0 20 00 	mov    QWORD PTR [rip+0x20e090],rax        # 2148f8 <allocator__Het9ctRSeaVb4hPekZZNCJQ+0x2878>
    6868:	48 81 05 8d e0 20 00 	add    QWORD PTR [rip+0x20e08d],0x1000        # 214900 <allocator__Het9ctRSeaVb4hPekZZNCJQ+0x2880>
    686f:	00 10 00 00 
    6873:	48 c7 00 e8 0f 00 00 	mov    QWORD PTR [rax],0xfe8
    687a:	48 8b 05 77 e0 20 00 	mov    rax,QWORD PTR [rip+0x20e077]        # 2148f8 <allocator__Het9ctRSeaVb4hPekZZNCJQ+0x2878>
    6881:	48 c7 40 08 18 00 00 	mov    QWORD PTR [rax+0x8],0x18
    6888:	00 
    6889:	48 8b 05 68 e0 20 00 	mov    rax,QWORD PTR [rip+0x20e068]        # 2148f8 <allocator__Het9ctRSeaVb4hPekZZNCJQ+0x2878>
    6890:	4c 89 68 10          	mov    QWORD PTR [rax+0x10],r13
    6894:	4c 8b 2d 5d e0 20 00 	mov    r13,QWORD PTR [rip+0x20e05d]        # 2148f8 <allocator__Het9ctRSeaVb4hPekZZNCJQ+0x2878>
    689b:	49 8b 55 00          	mov    rdx,QWORD PTR [r13+0x0]
    689f:	e9 52 ff ff ff       	jmp    67f6 <allocSharedImpl+0x326>
    68a4:	66 90                	xchg   ax,ax
    68a6:	66 2e 0f 1f 84 00 00 	nop    WORD PTR cs:[rax+rax*1+0x0]
    68ad:	00 00 00 

00000000000068b0 <allocShared0Impl__WrVG9abV9chlTLqkiXYLKwUg>:
    68b0:	48 8d 47 07          	lea    rax,[rdi+0x7]
    68b4:	41 56                	push   r14
    68b6:	41 55                	push   r13
    68b8:	41 54                	push   r12
    68ba:	55                   	push   rbp
    68bb:	49 89 fd             	mov    r13,rdi
    68be:	53                   	push   rbx
    68bf:	49 89 c4             	mov    r12,rax
    68c2:	49 83 e4 f8          	and    r12,0xfffffffffffffff8
    68c6:	48 83 ec 10          	sub    rsp,0x10
    68ca:	49 81 fc c8 0f 00 00 	cmp    r12,0xfc8
    68d1:	0f 8f 89 00 00 00    	jg     6960 <allocShared0Impl__WrVG9abV9chlTLqkiXYLKwUg+0xb0>
    68d7:	48 c1 f8 03          	sar    rax,0x3
    68db:	4c 8d 35 9e b7 20 00 	lea    r14,[rip+0x20b79e]        # 212080 <allocator__Het9ctRSeaVb4hPekZZNCJQ>
    68e2:	48 8d 58 02          	lea    rbx,[rax+0x2]
    68e6:	49 8b 04 de          	mov    rax,QWORD PTR [r14+rbx*8]
    68ea:	48 85 c0             	test   rax,rax
    68ed:	0f 84 5d 01 00 00    	je     6a50 <allocShared0Impl__WrVG9abV9chlTLqkiXYLKwUg+0x1a0>
    68f3:	48 8b 68 20          	mov    rbp,QWORD PTR [rax+0x20]
    68f7:	48 85 ed             	test   rbp,rbp
    68fa:	0f 84 00 02 00 00    	je     6b00 <allocShared0Impl__WrVG9abV9chlTLqkiXYLKwUg+0x250>
    6900:	48 8b 55 00          	mov    rdx,QWORD PTR [rbp+0x0]
    6904:	48 89 50 20          	mov    QWORD PTR [rax+0x20],rdx
    6908:	48 8b 50 28          	mov    rdx,QWORD PTR [rax+0x28]
    690c:	4c 29 e2             	sub    rdx,r12
    690f:	49 39 d4             	cmp    r12,rdx
    6912:	48 89 50 28          	mov    QWORD PTR [rax+0x28],rdx
    6916:	7e 37                	jle    694f <allocShared0Impl__WrVG9abV9chlTLqkiXYLKwUg+0x9f>
    6918:	49 3b 04 de          	cmp    rax,QWORD PTR [r14+rbx*8]
    691c:	48 8b 50 10          	mov    rdx,QWORD PTR [rax+0x10]
    6920:	0f 84 8e 01 00 00    	je     6ab4 <allocShared0Impl__WrVG9abV9chlTLqkiXYLKwUg+0x204>
    6926:	48 8b 48 18          	mov    rcx,QWORD PTR [rax+0x18]
    692a:	48 89 51 10          	mov    QWORD PTR [rcx+0x10],rdx
    692e:	48 8b 50 10          	mov    rdx,QWORD PTR [rax+0x10]
    6932:	48 85 d2             	test   rdx,rdx
    6935:	74 08                	je     693f <allocShared0Impl__WrVG9abV9chlTLqkiXYLKwUg+0x8f>
    6937:	48 8b 48 18          	mov    rcx,QWORD PTR [rax+0x18]
    693b:	48 89 4a 18          	mov    QWORD PTR [rdx+0x18],rcx
    693f:	48 c7 40 10 00 00 00 	mov    QWORD PTR [rax+0x10],0x0
    6946:	00 
    6947:	48 c7 40 18 00 00 00 	mov    QWORD PTR [rax+0x18],0x0
    694e:	00 
    694f:	4c 01 25 c2 df 20 00 	add    QWORD PTR [rip+0x20dfc2],r12        # 214918 <allocator__Het9ctRSeaVb4hPekZZNCJQ+0x2898>
    6956:	e9 c8 00 00 00       	jmp    6a23 <allocShared0Impl__WrVG9abV9chlTLqkiXYLKwUg+0x173>
    695b:	0f 1f 44 00 00       	nop    DWORD PTR [rax+rax*1+0x0]
    6960:	48 8d 5f 20          	lea    rbx,[rdi+0x20]
    6964:	48 8d 3d 15 b7 20 00 	lea    rdi,[rip+0x20b715]        # 212080 <allocator__Het9ctRSeaVb4hPekZZNCJQ>
    696b:	48 81 fb 00 00 00 3f 	cmp    rbx,0x3f000000
    6972:	48 89 de             	mov    rsi,rbx
    6975:	0f 8e c5 00 00 00    	jle    6a40 <allocShared0Impl__WrVG9abV9chlTLqkiXYLKwUg+0x190>
    697b:	e8 f0 ea ff ff       	call   5470 <getHugeChunk__stlXHMKRKFIGOvq8t4ynRQ_3>
    6980:	49 89 c4             	mov    r12,rax
    6983:	48 8b 35 9e e7 20 00 	mov    rsi,QWORD PTR [rip+0x20e79e]        # 215128 <allocator__Het9ctRSeaVb4hPekZZNCJQ+0x30a8>
    698a:	49 8d 6c 24 20       	lea    rbp,[r12+0x20]
    698f:	48 85 f6             	test   rsi,rsi
    6992:	0f 84 38 01 00 00    	je     6ad0 <allocShared0Impl__WrVG9abV9chlTLqkiXYLKwUg+0x220>
    6998:	48 8b 06             	mov    rax,QWORD PTR [rsi]
    699b:	48 01 eb             	add    rbx,rbp
    699e:	48 39 c6             	cmp    rsi,rax
    69a1:	0f 84 99 01 00 00    	je     6b40 <allocShared0Impl__WrVG9abV9chlTLqkiXYLKwUg+0x290>
    69a7:	48 3b 6e 10          	cmp    rbp,QWORD PTR [rsi+0x10]
    69ab:	0f 82 6b 01 00 00    	jb     6b1c <allocShared0Impl__WrVG9abV9chlTLqkiXYLKwUg+0x26c>
    69b1:	0f 87 61 01 00 00    	ja     6b18 <allocShared0Impl__WrVG9abV9chlTLqkiXYLKwUg+0x268>
    69b7:	48 8b 56 20          	mov    rdx,QWORD PTR [rsi+0x20]
    69bb:	48 39 50 20          	cmp    QWORD PTR [rax+0x20],rdx
    69bf:	75 24                	jne    69e5 <allocShared0Impl__WrVG9abV9chlTLqkiXYLKwUg+0x135>
    69c1:	48 89 05 60 e7 20 00 	mov    QWORD PTR [rip+0x20e760],rax        # 215128 <allocator__Het9ctRSeaVb4hPekZZNCJQ+0x30a8>
    69c8:	48 8b 40 08          	mov    rax,QWORD PTR [rax+0x8]
    69cc:	48 89 06             	mov    QWORD PTR [rsi],rax
    69cf:	48 8b 05 52 e7 20 00 	mov    rax,QWORD PTR [rip+0x20e752]        # 215128 <allocator__Het9ctRSeaVb4hPekZZNCJQ+0x30a8>
    69d6:	48 89 70 08          	mov    QWORD PTR [rax+0x8],rsi
    69da:	48 8b 35 47 e7 20 00 	mov    rsi,QWORD PTR [rip+0x20e747]        # 215128 <allocator__Het9ctRSeaVb4hPekZZNCJQ+0x30a8>
    69e1:	48 8b 56 20          	mov    rdx,QWORD PTR [rsi+0x20]
    69e5:	48 8b 46 08          	mov    rax,QWORD PTR [rsi+0x8]
    69e9:	48 8b 48 08          	mov    rcx,QWORD PTR [rax+0x8]
    69ed:	48 39 51 20          	cmp    QWORD PTR [rcx+0x20],rdx
    69f1:	75 24                	jne    6a17 <allocShared0Impl__WrVG9abV9chlTLqkiXYLKwUg+0x167>
    69f3:	48 89 05 2e e7 20 00 	mov    QWORD PTR [rip+0x20e72e],rax        # 215128 <allocator__Het9ctRSeaVb4hPekZZNCJQ+0x30a8>
    69fa:	48 8b 00             	mov    rax,QWORD PTR [rax]
    69fd:	48 89 46 08          	mov    QWORD PTR [rsi+0x8],rax
    6a01:	48 8b 05 20 e7 20 00 	mov    rax,QWORD PTR [rip+0x20e720]        # 215128 <allocator__Het9ctRSeaVb4hPekZZNCJQ+0x30a8>
    6a08:	48 89 30             	mov    QWORD PTR [rax],rsi
    6a0b:	48 8b 05 16 e7 20 00 	mov    rax,QWORD PTR [rip+0x20e716]        # 215128 <allocator__Het9ctRSeaVb4hPekZZNCJQ+0x30a8>
    6a12:	48 83 40 20 01       	add    QWORD PTR [rax+0x20],0x1
    6a17:	49 8b 44 24 08       	mov    rax,QWORD PTR [r12+0x8]
    6a1c:	48 01 05 f5 de 20 00 	add    QWORD PTR [rip+0x20def5],rax        # 214918 <allocator__Het9ctRSeaVb4hPekZZNCJQ+0x2898>
    6a23:	4c 89 ea             	mov    rdx,r13
    6a26:	48 89 ef             	mov    rdi,rbp
    6a29:	31 f6                	xor    esi,esi
    6a2b:	e8 50 9f ff ff       	call   980 <memset@plt>
    6a30:	48 83 c4 10          	add    rsp,0x10
    6a34:	5b                   	pop    rbx
    6a35:	5d                   	pop    rbp
    6a36:	41 5c                	pop    r12
    6a38:	41 5d                	pop    r13
    6a3a:	41 5e                	pop    r14
    6a3c:	c3                   	ret    
    6a3d:	0f 1f 00             	nop    DWORD PTR [rax]
    6a40:	e8 cb df ff ff       	call   4a10 <getBigChunk__stlXHMKRKFIGOvq8t4ynRQ>
    6a45:	49 89 c4             	mov    r12,rax
    6a48:	e9 36 ff ff ff       	jmp    6983 <allocShared0Impl__WrVG9abV9chlTLqkiXYLKwUg+0xd3>
    6a4d:	0f 1f 00             	nop    DWORD PTR [rax]
    6a50:	be 00 10 00 00       	mov    esi,0x1000
    6a55:	4c 89 f7             	mov    rdi,r14
    6a58:	e8 b3 df ff ff       	call   4a10 <getBigChunk__stlXHMKRKFIGOvq8t4ynRQ>
    6a5d:	ba c8 0f 00 00       	mov    edx,0xfc8
    6a62:	48 c7 40 10 00 00 00 	mov    QWORD PTR [rax+0x10],0x0
    6a69:	00 
    6a6a:	48 c7 40 20 00 00 00 	mov    QWORD PTR [rax+0x20],0x0
    6a71:	00 
    6a72:	4c 29 e2             	sub    rdx,r12
    6a75:	4c 89 60 08          	mov    QWORD PTR [rax+0x8],r12
    6a79:	4c 89 60 30          	mov    QWORD PTR [rax+0x30],r12
    6a7d:	48 89 50 28          	mov    QWORD PTR [rax+0x28],rdx
    6a81:	48 c7 40 18 00 00 00 	mov    QWORD PTR [rax+0x18],0x0
    6a88:	00 
    6a89:	49 8b 14 de          	mov    rdx,QWORD PTR [r14+rbx*8]
    6a8d:	48 89 50 10          	mov    QWORD PTR [rax+0x10],rdx
    6a91:	49 8b 14 de          	mov    rdx,QWORD PTR [r14+rbx*8]
    6a95:	48 85 d2             	test   rdx,rdx
    6a98:	74 04                	je     6a9e <allocShared0Impl__WrVG9abV9chlTLqkiXYLKwUg+0x1ee>
    6a9a:	48 89 42 18          	mov    QWORD PTR [rdx+0x18],rax
    6a9e:	49 89 04 de          	mov    QWORD PTR [r14+rbx*8],rax
    6aa2:	4c 3b 60 28          	cmp    r12,QWORD PTR [rax+0x28]
    6aa6:	48 8d 68 38          	lea    rbp,[rax+0x38]
    6aaa:	0f 8e 9f fe ff ff    	jle    694f <allocShared0Impl__WrVG9abV9chlTLqkiXYLKwUg+0x9f>
    6ab0:	48 8b 50 10          	mov    rdx,QWORD PTR [rax+0x10]
    6ab4:	48 85 d2             	test   rdx,rdx
    6ab7:	49 89 14 de          	mov    QWORD PTR [r14+rbx*8],rdx
    6abb:	0f 84 7e fe ff ff    	je     693f <allocShared0Impl__WrVG9abV9chlTLqkiXYLKwUg+0x8f>
    6ac1:	48 c7 42 18 00 00 00 	mov    QWORD PTR [rdx+0x18],0x0
    6ac8:	00 
    6ac9:	e9 71 fe ff ff       	jmp    693f <allocShared0Impl__WrVG9abV9chlTLqkiXYLKwUg+0x8f>
    6ace:	66 90                	xchg   ax,ax
    6ad0:	48 8b 05 81 e6 20 00 	mov    rax,QWORD PTR [rip+0x20e681]        # 215158 <allocator__Het9ctRSeaVb4hPekZZNCJQ+0x30d8>
    6ad7:	48 8d 15 7a e6 20 00 	lea    rdx,[rip+0x20e67a]        # 215158 <allocator__Het9ctRSeaVb4hPekZZNCJQ+0x30d8>
    6ade:	48 85 c0             	test   rax,rax
    6ae1:	0f 84 b9 00 00 00    	je     6ba0 <allocShared0Impl__WrVG9abV9chlTLqkiXYLKwUg+0x2f0>
    6ae7:	48 89 15 3a e6 20 00 	mov    QWORD PTR [rip+0x20e63a],rdx        # 215128 <allocator__Het9ctRSeaVb4hPekZZNCJQ+0x30a8>
    6aee:	48 8d 35 63 e6 20 00 	lea    rsi,[rip+0x20e663]        # 215158 <allocator__Het9ctRSeaVb4hPekZZNCJQ+0x30d8>
    6af5:	e9 a1 fe ff ff       	jmp    699b <allocShared0Impl__WrVG9abV9chlTLqkiXYLKwUg+0xeb>
    6afa:	66 0f 1f 44 00 00    	nop    WORD PTR [rax+rax*1+0x0]
    6b00:	48 8b 50 30          	mov    rdx,QWORD PTR [rax+0x30]
    6b04:	48 8d 6c 10 38       	lea    rbp,[rax+rdx*1+0x38]
    6b09:	4c 01 e2             	add    rdx,r12
    6b0c:	48 89 50 30          	mov    QWORD PTR [rax+0x30],rdx
    6b10:	e9 f3 fd ff ff       	jmp    6908 <allocShared0Impl__WrVG9abV9chlTLqkiXYLKwUg+0x58>
    6b15:	0f 1f 00             	nop    DWORD PTR [rax]
    6b18:	48 83 c6 08          	add    rsi,0x8
    6b1c:	48 8d 3d 5d b5 20 00 	lea    rdi,[rip+0x20b55d]        # 212080 <allocator__Het9ctRSeaVb4hPekZZNCJQ>
    6b23:	48 89 d9             	mov    rcx,rbx
    6b26:	48 89 ea             	mov    rdx,rbp
    6b29:	e8 52 ec ff ff       	call   5780 <add__3D9aOyz4rDquPZKBlqn0xig>
    6b2e:	48 8b 35 f3 e5 20 00 	mov    rsi,QWORD PTR [rip+0x20e5f3]        # 215128 <allocator__Het9ctRSeaVb4hPekZZNCJQ+0x30a8>
    6b35:	48 8b 06             	mov    rax,QWORD PTR [rsi]
    6b38:	e9 7a fe ff ff       	jmp    69b7 <allocShared0Impl__WrVG9abV9chlTLqkiXYLKwUg+0x107>
    6b3d:	0f 1f 00             	nop    DWORD PTR [rax]
    6b40:	48 8b 05 f9 e5 20 00 	mov    rax,QWORD PTR [rip+0x20e5f9]        # 215140 <allocator__Het9ctRSeaVb4hPekZZNCJQ+0x30c0>
    6b47:	48 85 c0             	test   rax,rax
    6b4a:	74 74                	je     6bc0 <allocShared0Impl__WrVG9abV9chlTLqkiXYLKwUg+0x310>
    6b4c:	48 8b 10             	mov    rdx,QWORD PTR [rax]
    6b4f:	48 89 15 ea e5 20 00 	mov    QWORD PTR [rip+0x20e5ea],rdx        # 215140 <allocator__Het9ctRSeaVb4hPekZZNCJQ+0x30c0>
    6b56:	48 89 68 10          	mov    QWORD PTR [rax+0x10],rbp
    6b5a:	48 89 58 18          	mov    QWORD PTR [rax+0x18],rbx
    6b5e:	48 8d 15 f3 e5 20 00 	lea    rdx,[rip+0x20e5f3]        # 215158 <allocator__Het9ctRSeaVb4hPekZZNCJQ+0x30d8>
    6b65:	48 83 3d eb e5 20 00 	cmp    QWORD PTR [rip+0x20e5eb],0x0        # 215158 <allocator__Het9ctRSeaVb4hPekZZNCJQ+0x30d8>
    6b6c:	00 
    6b6d:	75 0e                	jne    6b7d <allocShared0Impl__WrVG9abV9chlTLqkiXYLKwUg+0x2cd>
    6b6f:	48 89 15 e2 e5 20 00 	mov    QWORD PTR [rip+0x20e5e2],rdx        # 215158 <allocator__Het9ctRSeaVb4hPekZZNCJQ+0x30d8>
    6b76:	48 89 15 e3 e5 20 00 	mov    QWORD PTR [rip+0x20e5e3],rdx        # 215160 <allocator__Het9ctRSeaVb4hPekZZNCJQ+0x30e0>
    6b7d:	48 89 10             	mov    QWORD PTR [rax],rdx
    6b80:	48 89 50 08          	mov    QWORD PTR [rax+0x8],rdx
    6b84:	48 c7 40 20 01 00 00 	mov    QWORD PTR [rax+0x20],0x1
    6b8b:	00 
    6b8c:	48 89 05 95 e5 20 00 	mov    QWORD PTR [rip+0x20e595],rax        # 215128 <allocator__Het9ctRSeaVb4hPekZZNCJQ+0x30a8>
    6b93:	e9 7f fe ff ff       	jmp    6a17 <allocShared0Impl__WrVG9abV9chlTLqkiXYLKwUg+0x167>
    6b98:	0f 1f 84 00 00 00 00 	nop    DWORD PTR [rax+rax*1+0x0]
    6b9f:	00 
    6ba0:	48 89 15 b1 e5 20 00 	mov    QWORD PTR [rip+0x20e5b1],rdx        # 215158 <allocator__Het9ctRSeaVb4hPekZZNCJQ+0x30d8>
    6ba7:	48 89 15 b2 e5 20 00 	mov    QWORD PTR [rip+0x20e5b2],rdx        # 215160 <allocator__Het9ctRSeaVb4hPekZZNCJQ+0x30e0>
    6bae:	48 89 d0             	mov    rax,rdx
    6bb1:	e9 31 ff ff ff       	jmp    6ae7 <allocShared0Impl__WrVG9abV9chlTLqkiXYLKwUg+0x237>
    6bb6:	66 2e 0f 1f 84 00 00 	nop    WORD PTR cs:[rax+rax*1+0x0]
    6bbd:	00 00 00 
    6bc0:	4c 8b 35 31 dd 20 00 	mov    r14,QWORD PTR [rip+0x20dd31]        # 2148f8 <allocator__Het9ctRSeaVb4hPekZZNCJQ+0x2878>
    6bc7:	4d 85 f6             	test   r14,r14
    6bca:	74 3b                	je     6c07 <allocShared0Impl__WrVG9abV9chlTLqkiXYLKwUg+0x357>
    6bcc:	49 8b 16             	mov    rdx,QWORD PTR [r14]
    6bcf:	48 83 fa 27          	cmp    rdx,0x27
    6bd3:	7e 32                	jle    6c07 <allocShared0Impl__WrVG9abV9chlTLqkiXYLKwUg+0x357>
    6bd5:	49 8b 46 08          	mov    rax,QWORD PTR [r14+0x8]
    6bd9:	48 83 ea 28          	sub    rdx,0x28
    6bdd:	49 89 16             	mov    QWORD PTR [r14],rdx
    6be0:	66 0f ef c0          	pxor   xmm0,xmm0
    6be4:	48 8b 15 0d dd 20 00 	mov    rdx,QWORD PTR [rip+0x20dd0d]        # 2148f8 <allocator__Het9ctRSeaVb4hPekZZNCJQ+0x2878>
    6beb:	4c 01 f0             	add    rax,r14
    6bee:	48 83 42 08 28       	add    QWORD PTR [rdx+0x8],0x28
    6bf3:	48 c7 40 20 00 00 00 	mov    QWORD PTR [rax+0x20],0x0
    6bfa:	00 
    6bfb:	0f 11 00             	movups XMMWORD PTR [rax],xmm0
    6bfe:	0f 11 40 10          	movups XMMWORD PTR [rax+0x10],xmm0
    6c02:	e9 4f ff ff ff       	jmp    6b56 <allocShared0Impl__WrVG9abV9chlTLqkiXYLKwUg+0x2a6>
    6c07:	45 31 c9             	xor    r9d,r9d
    6c0a:	ba 03 00 00 00       	mov    edx,0x3
    6c0f:	31 ff                	xor    edi,edi
    6c11:	41 b8 ff ff ff ff    	mov    r8d,0xffffffff
    6c17:	b9 22 00 00 00       	mov    ecx,0x22
    6c1c:	be 00 10 00 00       	mov    esi,0x1000
    6c21:	e8 4a 9d ff ff       	call   970 <mmap@plt>
    6c26:	48 8d 50 ff          	lea    rdx,[rax-0x1]
    6c2a:	48 83 fa fd          	cmp    rdx,0xfffffffffffffffd
    6c2e:	76 0f                	jbe    6c3f <allocShared0Impl__WrVG9abV9chlTLqkiXYLKwUg+0x38f>
    6c30:	48 89 44 24 08       	mov    QWORD PTR [rsp+0x8],rax
    6c35:	e8 c6 a4 ff ff       	call   1100 <raiseOutOfMem__mMRdr4sgmnykA9aWeM9aDZlw>
    6c3a:	48 8b 44 24 08       	mov    rax,QWORD PTR [rsp+0x8]
    6c3f:	48 89 05 b2 dc 20 00 	mov    QWORD PTR [rip+0x20dcb2],rax        # 2148f8 <allocator__Het9ctRSeaVb4hPekZZNCJQ+0x2878>
    6c46:	48 81 05 af dc 20 00 	add    QWORD PTR [rip+0x20dcaf],0x1000        # 214900 <allocator__Het9ctRSeaVb4hPekZZNCJQ+0x2880>
    6c4d:	00 10 00 00 
    6c51:	48 c7 00 e8 0f 00 00 	mov    QWORD PTR [rax],0xfe8
    6c58:	48 8b 05 99 dc 20 00 	mov    rax,QWORD PTR [rip+0x20dc99]        # 2148f8 <allocator__Het9ctRSeaVb4hPekZZNCJQ+0x2878>
    6c5f:	48 c7 40 08 18 00 00 	mov    QWORD PTR [rax+0x8],0x18
    6c66:	00 
    6c67:	48 8b 05 8a dc 20 00 	mov    rax,QWORD PTR [rip+0x20dc8a]        # 2148f8 <allocator__Het9ctRSeaVb4hPekZZNCJQ+0x2878>
    6c6e:	4c 89 70 10          	mov    QWORD PTR [rax+0x10],r14
    6c72:	4c 8b 35 7f dc 20 00 	mov    r14,QWORD PTR [rip+0x20dc7f]        # 2148f8 <allocator__Het9ctRSeaVb4hPekZZNCJQ+0x2878>
    6c79:	49 8b 16             	mov    rdx,QWORD PTR [r14]
    6c7c:	e9 54 ff ff ff       	jmp    6bd5 <allocShared0Impl__WrVG9abV9chlTLqkiXYLKwUg+0x325>
    6c81:	0f 1f 44 00 00       	nop    DWORD PTR [rax+rax*1+0x0]
    6c86:	66 2e 0f 1f 84 00 00 	nop    WORD PTR cs:[rax+rax*1+0x0]
    6c8d:	00 00 00 

0000000000006c90 <ptrSize__mPQLi3yY72iSZXf7wVw4pQ>:
    6c90:	48 81 e7 00 f0 ff ff 	and    rdi,0xfffffffffffff000
    6c97:	48 8b 47 08          	mov    rax,QWORD PTR [rdi+0x8]
    6c9b:	48 8d 50 e0          	lea    rdx,[rax-0x20]
    6c9f:	48 3d c8 0f 00 00    	cmp    rax,0xfc8
    6ca5:	48 0f 4f c2          	cmovg  rax,rdx
    6ca9:	c3                   	ret    
    6caa:	66 0f 1f 44 00 00    	nop    WORD PTR [rax+rax*1+0x0]

0000000000006cb0 <realloc__U4oQ7I4r9bKBW1B0iizjtRg>:
    6cb0:	41 57                	push   r15
    6cb2:	41 56                	push   r14
    6cb4:	41 55                	push   r13
    6cb6:	41 54                	push   r12
    6cb8:	49 89 f4             	mov    r12,rsi
    6cbb:	55                   	push   rbp
    6cbc:	53                   	push   rbx
    6cbd:	48 89 fb             	mov    rbx,rdi
    6cc0:	48 83 ec 18          	sub    rsp,0x18
    6cc4:	48 85 d2             	test   rdx,rdx
    6cc7:	7f 27                	jg     6cf0 <realloc__U4oQ7I4r9bKBW1B0iizjtRg+0x40>
    6cc9:	45 31 ed             	xor    r13d,r13d
    6ccc:	48 85 f6             	test   rsi,rsi
    6ccf:	74 05                	je     6cd6 <realloc__U4oQ7I4r9bKBW1B0iizjtRg+0x26>
    6cd1:	e8 aa b4 ff ff       	call   2180 <rawDealloc__K7uQ6aTKvW6OnOV8EMoNNQ>
    6cd6:	48 83 c4 18          	add    rsp,0x18
    6cda:	4c 89 e8             	mov    rax,r13
    6cdd:	5b                   	pop    rbx
    6cde:	5d                   	pop    rbp
    6cdf:	41 5c                	pop    r12
    6ce1:	41 5d                	pop    r13
    6ce3:	41 5e                	pop    r14
    6ce5:	41 5f                	pop    r15
    6ce7:	c3                   	ret    
    6ce8:	0f 1f 84 00 00 00 00 	nop    DWORD PTR [rax+rax*1+0x0]
    6cef:	00 
    6cf0:	48 8d 42 07          	lea    rax,[rdx+0x7]
    6cf4:	48 89 d5             	mov    rbp,rdx
    6cf7:	49 89 c7             	mov    r15,rax
    6cfa:	49 83 e7 f8          	and    r15,0xfffffffffffffff8
    6cfe:	49 81 ff c8 0f 00 00 	cmp    r15,0xfc8
    6d05:	0f 8f 15 01 00 00    	jg     6e20 <realloc__U4oQ7I4r9bKBW1B0iizjtRg+0x170>
    6d0b:	4e 8d 34 3f          	lea    r14,[rdi+r15*1]
    6d0f:	49 8b 46 10          	mov    rax,QWORD PTR [r14+0x10]
    6d13:	48 85 c0             	test   rax,rax
    6d16:	0f 84 34 05 00 00    	je     7250 <realloc__U4oQ7I4r9bKBW1B0iizjtRg+0x5a0>
    6d1c:	4c 8b 68 20          	mov    r13,QWORD PTR [rax+0x20]
    6d20:	4d 85 ed             	test   r13,r13
    6d23:	0f 84 9f 04 00 00    	je     71c8 <realloc__U4oQ7I4r9bKBW1B0iizjtRg+0x518>
    6d29:	49 8b 55 00          	mov    rdx,QWORD PTR [r13+0x0]
    6d2d:	48 89 50 20          	mov    QWORD PTR [rax+0x20],rdx
    6d31:	48 8b 50 28          	mov    rdx,QWORD PTR [rax+0x28]
    6d35:	4c 29 fa             	sub    rdx,r15
    6d38:	49 39 d7             	cmp    r15,rdx
    6d3b:	48 89 50 28          	mov    QWORD PTR [rax+0x28],rdx
    6d3f:	7e 37                	jle    6d78 <realloc__U4oQ7I4r9bKBW1B0iizjtRg+0xc8>
    6d41:	49 3b 46 10          	cmp    rax,QWORD PTR [r14+0x10]
    6d45:	48 8b 50 10          	mov    rdx,QWORD PTR [rax+0x10]
    6d49:	0f 84 62 05 00 00    	je     72b1 <realloc__U4oQ7I4r9bKBW1B0iizjtRg+0x601>
    6d4f:	48 8b 48 18          	mov    rcx,QWORD PTR [rax+0x18]
    6d53:	48 89 51 10          	mov    QWORD PTR [rcx+0x10],rdx
    6d57:	48 8b 50 10          	mov    rdx,QWORD PTR [rax+0x10]
    6d5b:	48 85 d2             	test   rdx,rdx
    6d5e:	74 08                	je     6d68 <realloc__U4oQ7I4r9bKBW1B0iizjtRg+0xb8>
    6d60:	48 8b 48 18          	mov    rcx,QWORD PTR [rax+0x18]
    6d64:	48 89 4a 18          	mov    QWORD PTR [rdx+0x18],rcx
    6d68:	48 c7 40 10 00 00 00 	mov    QWORD PTR [rax+0x10],0x0
    6d6f:	00 
    6d70:	48 c7 40 18 00 00 00 	mov    QWORD PTR [rax+0x18],0x0
    6d77:	00 
    6d78:	4c 01 bb 98 28 00 00 	add    QWORD PTR [rbx+0x2898],r15
    6d7f:	4d 85 e4             	test   r12,r12
    6d82:	0f 84 4e ff ff ff    	je     6cd6 <realloc__U4oQ7I4r9bKBW1B0iizjtRg+0x26>
    6d88:	4d 89 e6             	mov    r14,r12
    6d8b:	4c 89 e6             	mov    rsi,r12
    6d8e:	4c 89 ef             	mov    rdi,r13
    6d91:	49 81 e6 00 f0 ff ff 	and    r14,0xfffffffffffff000
    6d98:	49 8b 56 08          	mov    rdx,QWORD PTR [r14+0x8]
    6d9c:	48 8d 42 e0          	lea    rax,[rdx-0x20]
    6da0:	48 81 fa c8 0f 00 00 	cmp    rdx,0xfc8
    6da7:	48 0f 4f d0          	cmovg  rdx,rax
    6dab:	48 39 d5             	cmp    rbp,rdx
    6dae:	48 0f 4e d5          	cmovle rdx,rbp
    6db2:	e8 09 9c ff ff       	call   9c0 <memcpy@plt>
    6db7:	49 8b 46 08          	mov    rax,QWORD PTR [r14+0x8]
    6dbb:	48 29 83 98 28 00 00 	sub    QWORD PTR [rbx+0x2898],rax
    6dc2:	48 3d c8 0f 00 00    	cmp    rax,0xfc8
    6dc8:	0f 8f 22 01 00 00    	jg     6ef0 <realloc__U4oQ7I4r9bKBW1B0iizjtRg+0x240>
    6dce:	49 8b 56 20          	mov    rdx,QWORD PTR [r14+0x20]
    6dd2:	49 89 14 24          	mov    QWORD PTR [r12],rdx
    6dd6:	49 8b 56 28          	mov    rdx,QWORD PTR [r14+0x28]
    6dda:	4d 89 66 20          	mov    QWORD PTR [r14+0x20],r12
    6dde:	48 39 d0             	cmp    rax,rdx
    6de1:	0f 8e c9 02 00 00    	jle    70b0 <realloc__U4oQ7I4r9bKBW1B0iizjtRg+0x400>
    6de7:	48 8d 50 07          	lea    rdx,[rax+0x7]
    6deb:	48 85 c0             	test   rax,rax
    6dee:	48 0f 49 d0          	cmovns rdx,rax
    6df2:	48 83 e2 f8          	and    rdx,0xfffffffffffffff8
    6df6:	48 01 d3             	add    rbx,rdx
    6df9:	48 8b 53 10          	mov    rdx,QWORD PTR [rbx+0x10]
    6dfd:	49 89 56 10          	mov    QWORD PTR [r14+0x10],rdx
    6e01:	48 8b 53 10          	mov    rdx,QWORD PTR [rbx+0x10]
    6e05:	48 85 d2             	test   rdx,rdx
    6e08:	74 04                	je     6e0e <realloc__U4oQ7I4r9bKBW1B0iizjtRg+0x15e>
    6e0a:	4c 89 72 18          	mov    QWORD PTR [rdx+0x18],r14
    6e0e:	4c 89 73 10          	mov    QWORD PTR [rbx+0x10],r14
    6e12:	49 01 46 28          	add    QWORD PTR [r14+0x28],rax
    6e16:	e9 bb fe ff ff       	jmp    6cd6 <realloc__U4oQ7I4r9bKBW1B0iizjtRg+0x26>
    6e1b:	0f 1f 44 00 00       	nop    DWORD PTR [rax+rax*1+0x0]
    6e20:	4c 8d 72 20          	lea    r14,[rdx+0x20]
    6e24:	49 81 fe 00 00 00 3f 	cmp    r14,0x3f000000
    6e2b:	4c 89 f6             	mov    rsi,r14
    6e2e:	0f 8e ac 00 00 00    	jle    6ee0 <realloc__U4oQ7I4r9bKBW1B0iizjtRg+0x230>
    6e34:	e8 37 e6 ff ff       	call   5470 <getHugeChunk__stlXHMKRKFIGOvq8t4ynRQ_3>
    6e39:	49 89 c7             	mov    r15,rax
    6e3c:	48 8b b3 a8 30 00 00 	mov    rsi,QWORD PTR [rbx+0x30a8]
    6e43:	4d 8d 6f 20          	lea    r13,[r15+0x20]
    6e47:	48 85 f6             	test   rsi,rsi
    6e4a:	0f 84 50 03 00 00    	je     71a0 <realloc__U4oQ7I4r9bKBW1B0iizjtRg+0x4f0>
    6e50:	48 8b 06             	mov    rax,QWORD PTR [rsi]
    6e53:	4d 01 ee             	add    r14,r13
    6e56:	48 39 c6             	cmp    rsi,rax
    6e59:	0f 84 31 05 00 00    	je     7390 <realloc__U4oQ7I4r9bKBW1B0iizjtRg+0x6e0>
    6e5f:	4c 3b 6e 10          	cmp    r13,QWORD PTR [rsi+0x10]
    6e63:	0f 82 ab 03 00 00    	jb     7214 <realloc__U4oQ7I4r9bKBW1B0iizjtRg+0x564>
    6e69:	0f 87 a1 03 00 00    	ja     7210 <realloc__U4oQ7I4r9bKBW1B0iizjtRg+0x560>
    6e6f:	48 8b 56 20          	mov    rdx,QWORD PTR [rsi+0x20]
    6e73:	48 39 50 20          	cmp    QWORD PTR [rax+0x20],rdx
    6e77:	75 24                	jne    6e9d <realloc__U4oQ7I4r9bKBW1B0iizjtRg+0x1ed>
    6e79:	48 89 83 a8 30 00 00 	mov    QWORD PTR [rbx+0x30a8],rax
    6e80:	48 8b 40 08          	mov    rax,QWORD PTR [rax+0x8]
    6e84:	48 89 06             	mov    QWORD PTR [rsi],rax
    6e87:	48 8b 83 a8 30 00 00 	mov    rax,QWORD PTR [rbx+0x30a8]
    6e8e:	48 89 70 08          	mov    QWORD PTR [rax+0x8],rsi
    6e92:	48 8b b3 a8 30 00 00 	mov    rsi,QWORD PTR [rbx+0x30a8]
    6e99:	48 8b 56 20          	mov    rdx,QWORD PTR [rsi+0x20]
    6e9d:	48 8b 46 08          	mov    rax,QWORD PTR [rsi+0x8]
    6ea1:	48 8b 48 08          	mov    rcx,QWORD PTR [rax+0x8]
    6ea5:	48 39 51 20          	cmp    QWORD PTR [rcx+0x20],rdx
    6ea9:	75 24                	jne    6ecf <realloc__U4oQ7I4r9bKBW1B0iizjtRg+0x21f>
    6eab:	48 89 83 a8 30 00 00 	mov    QWORD PTR [rbx+0x30a8],rax
    6eb2:	48 8b 00             	mov    rax,QWORD PTR [rax]
    6eb5:	48 89 46 08          	mov    QWORD PTR [rsi+0x8],rax
    6eb9:	48 8b 83 a8 30 00 00 	mov    rax,QWORD PTR [rbx+0x30a8]
    6ec0:	48 89 30             	mov    QWORD PTR [rax],rsi
    6ec3:	48 8b 83 a8 30 00 00 	mov    rax,QWORD PTR [rbx+0x30a8]
    6eca:	48 83 40 20 01       	add    QWORD PTR [rax+0x20],0x1
    6ecf:	49 8b 47 08          	mov    rax,QWORD PTR [r15+0x8]
    6ed3:	48 01 83 98 28 00 00 	add    QWORD PTR [rbx+0x2898],rax
    6eda:	e9 a0 fe ff ff       	jmp    6d7f <realloc__U4oQ7I4r9bKBW1B0iizjtRg+0xcf>
    6edf:	90                   	nop
    6ee0:	e8 2b db ff ff       	call   4a10 <getBigChunk__stlXHMKRKFIGOvq8t4ynRQ>
    6ee5:	49 89 c7             	mov    r15,rax
    6ee8:	e9 4f ff ff ff       	jmp    6e3c <realloc__U4oQ7I4r9bKBW1B0iizjtRg+0x18c>
    6eed:	0f 1f 00             	nop    DWORD PTR [rax]
    6ef0:	48 83 bb d8 30 00 00 	cmp    QWORD PTR [rbx+0x30d8],0x0
    6ef7:	00 
    6ef8:	4c 8d 83 d8 30 00 00 	lea    r8,[rbx+0x30d8]
    6eff:	0f 84 33 03 00 00    	je     7238 <realloc__U4oQ7I4r9bKBW1B0iizjtRg+0x588>
    6f05:	48 8b b3 a8 30 00 00 	mov    rsi,QWORD PTR [rbx+0x30a8]
    6f0c:	4c 89 83 b0 30 00 00 	mov    QWORD PTR [rbx+0x30b0],r8
    6f13:	48 3b 36             	cmp    rsi,QWORD PTR [rsi]
    6f16:	0f 84 6c 01 00 00    	je     7088 <realloc__U4oQ7I4r9bKBW1B0iizjtRg+0x3d8>
    6f1c:	4d 8d 4e 20          	lea    r9,[r14+0x20]
    6f20:	48 89 b3 b8 30 00 00 	mov    QWORD PTR [rbx+0x30b8],rsi
    6f27:	4c 3b 4e 10          	cmp    r9,QWORD PTR [rsi+0x10]
    6f2b:	72 0b                	jb     6f38 <realloc__U4oQ7I4r9bKBW1B0iizjtRg+0x288>
    6f2d:	48 89 b3 b0 30 00 00 	mov    QWORD PTR [rbx+0x30b0],rsi
    6f34:	48 83 c6 08          	add    rsi,0x8
    6f38:	4c 89 ca             	mov    rdx,r9
    6f3b:	48 89 df             	mov    rdi,rbx
    6f3e:	e8 8d af ff ff       	call   1ed0 <del__Io5JDKCS5u26IEWw0J53hQ>
    6f43:	48 8b 83 a8 30 00 00 	mov    rax,QWORD PTR [rbx+0x30a8]
    6f4a:	48 3b 83 b8 30 00 00 	cmp    rax,QWORD PTR [rbx+0x30b8]
    6f51:	0f 84 a9 03 00 00    	je     7300 <realloc__U4oQ7I4r9bKBW1B0iizjtRg+0x650>
    6f57:	48 8b 48 20          	mov    rcx,QWORD PTR [rax+0x20]
    6f5b:	48 8d 51 ff          	lea    rdx,[rcx-0x1]
    6f5f:	48 8b 08             	mov    rcx,QWORD PTR [rax]
    6f62:	48 39 51 20          	cmp    QWORD PTR [rcx+0x20],rdx
    6f66:	0f 8d 64 03 00 00    	jge    72d0 <realloc__U4oQ7I4r9bKBW1B0iizjtRg+0x620>
    6f6c:	48 89 50 20          	mov    QWORD PTR [rax+0x20],rdx
    6f70:	48 8b 83 a8 30 00 00 	mov    rax,QWORD PTR [rbx+0x30a8]
    6f77:	48 8b 48 08          	mov    rcx,QWORD PTR [rax+0x8]
    6f7b:	48 8b 50 20          	mov    rdx,QWORD PTR [rax+0x20]
    6f7f:	48 3b 51 20          	cmp    rdx,QWORD PTR [rcx+0x20]
    6f83:	7d 0f                	jge    6f94 <realloc__U4oQ7I4r9bKBW1B0iizjtRg+0x2e4>
    6f85:	48 89 51 20          	mov    QWORD PTR [rcx+0x20],rdx
    6f89:	48 8b 83 a8 30 00 00 	mov    rax,QWORD PTR [rbx+0x30a8]
    6f90:	48 8b 50 20          	mov    rdx,QWORD PTR [rax+0x20]
    6f94:	48 8b 08             	mov    rcx,QWORD PTR [rax]
    6f97:	48 39 51 20          	cmp    QWORD PTR [rcx+0x20],rdx
    6f9b:	75 20                	jne    6fbd <realloc__U4oQ7I4r9bKBW1B0iizjtRg+0x30d>
    6f9d:	48 89 8b a8 30 00 00 	mov    QWORD PTR [rbx+0x30a8],rcx
    6fa4:	48 8b 51 08          	mov    rdx,QWORD PTR [rcx+0x8]
    6fa8:	48 89 10             	mov    QWORD PTR [rax],rdx
    6fab:	48 8b 93 a8 30 00 00 	mov    rdx,QWORD PTR [rbx+0x30a8]
    6fb2:	48 89 42 08          	mov    QWORD PTR [rdx+0x8],rax
    6fb6:	48 8b 83 a8 30 00 00 	mov    rax,QWORD PTR [rbx+0x30a8]
    6fbd:	48 8b 50 08          	mov    rdx,QWORD PTR [rax+0x8]
    6fc1:	48 8b 0a             	mov    rcx,QWORD PTR [rdx]
    6fc4:	48 8b 7a 20          	mov    rdi,QWORD PTR [rdx+0x20]
    6fc8:	48 39 79 20          	cmp    QWORD PTR [rcx+0x20],rdi
    6fcc:	75 1e                	jne    6fec <realloc__U4oQ7I4r9bKBW1B0iizjtRg+0x33c>
    6fce:	48 89 48 08          	mov    QWORD PTR [rax+0x8],rcx
    6fd2:	48 8b 49 08          	mov    rcx,QWORD PTR [rcx+0x8]
    6fd6:	48 89 0a             	mov    QWORD PTR [rdx],rcx
    6fd9:	48 8b 40 08          	mov    rax,QWORD PTR [rax+0x8]
    6fdd:	48 89 50 08          	mov    QWORD PTR [rax+0x8],rdx
    6fe1:	48 8b 83 a8 30 00 00 	mov    rax,QWORD PTR [rbx+0x30a8]
    6fe8:	48 8b 50 08          	mov    rdx,QWORD PTR [rax+0x8]
    6fec:	48 8b 4a 08          	mov    rcx,QWORD PTR [rdx+0x8]
    6ff0:	48 8b 39             	mov    rdi,QWORD PTR [rcx]
    6ff3:	48 8b 71 20          	mov    rsi,QWORD PTR [rcx+0x20]
    6ff7:	48 39 77 20          	cmp    QWORD PTR [rdi+0x20],rsi
    6ffb:	75 26                	jne    7023 <realloc__U4oQ7I4r9bKBW1B0iizjtRg+0x373>
    6ffd:	48 89 7a 08          	mov    QWORD PTR [rdx+0x8],rdi
    7001:	48 8b 47 08          	mov    rax,QWORD PTR [rdi+0x8]
    7005:	48 89 01             	mov    QWORD PTR [rcx],rax
    7008:	48 8b 42 08          	mov    rax,QWORD PTR [rdx+0x8]
    700c:	48 89 48 08          	mov    QWORD PTR [rax+0x8],rcx
    7010:	48 8b 83 a8 30 00 00 	mov    rax,QWORD PTR [rbx+0x30a8]
    7017:	48 8b 50 08          	mov    rdx,QWORD PTR [rax+0x8]
    701b:	48 8b 4a 08          	mov    rcx,QWORD PTR [rdx+0x8]
    701f:	48 8b 71 20          	mov    rsi,QWORD PTR [rcx+0x20]
    7023:	48 39 70 20          	cmp    QWORD PTR [rax+0x20],rsi
    7027:	75 33                	jne    705c <realloc__U4oQ7I4r9bKBW1B0iizjtRg+0x3ac>
    7029:	48 89 93 a8 30 00 00 	mov    QWORD PTR [rbx+0x30a8],rdx
    7030:	48 8b 12             	mov    rdx,QWORD PTR [rdx]
    7033:	48 89 50 08          	mov    QWORD PTR [rax+0x8],rdx
    7037:	48 8b 93 a8 30 00 00 	mov    rdx,QWORD PTR [rbx+0x30a8]
    703e:	48 89 02             	mov    QWORD PTR [rdx],rax
    7041:	48 8b 83 a8 30 00 00 	mov    rax,QWORD PTR [rbx+0x30a8]
    7048:	48 83 40 20 01       	add    QWORD PTR [rax+0x20],0x1
    704d:	48 8b 83 a8 30 00 00 	mov    rax,QWORD PTR [rbx+0x30a8]
    7054:	48 8b 50 08          	mov    rdx,QWORD PTR [rax+0x8]
    7058:	48 8b 4a 08          	mov    rcx,QWORD PTR [rdx+0x8]
    705c:	48 8b 71 08          	mov    rsi,QWORD PTR [rcx+0x8]
    7060:	48 8b 7a 20          	mov    rdi,QWORD PTR [rdx+0x20]
    7064:	48 39 7e 20          	cmp    QWORD PTR [rsi+0x20],rdi
    7068:	75 1e                	jne    7088 <realloc__U4oQ7I4r9bKBW1B0iizjtRg+0x3d8>
    706a:	48 89 48 08          	mov    QWORD PTR [rax+0x8],rcx
    706e:	48 8b 09             	mov    rcx,QWORD PTR [rcx]
    7071:	48 89 4a 08          	mov    QWORD PTR [rdx+0x8],rcx
    7075:	48 8b 48 08          	mov    rcx,QWORD PTR [rax+0x8]
    7079:	48 89 11             	mov    QWORD PTR [rcx],rdx
    707c:	48 8b 40 08          	mov    rax,QWORD PTR [rax+0x8]
    7080:	48 83 40 20 01       	add    QWORD PTR [rax+0x20],0x1
    7085:	0f 1f 00             	nop    DWORD PTR [rax]
    7088:	49 8b 76 08          	mov    rsi,QWORD PTR [r14+0x8]
    708c:	48 81 fe 00 00 00 3f 	cmp    rsi,0x3f000000
    7093:	0f 8f 8f 00 00 00    	jg     7128 <realloc__U4oQ7I4r9bKBW1B0iizjtRg+0x478>
    7099:	4c 89 f6             	mov    rsi,r14
    709c:	48 89 df             	mov    rdi,rbx
    709f:	e8 dc a6 ff ff       	call   1780 <freeBigChunk__IPvsryqksLyNxxag3IQr2g>
    70a4:	e9 2d fc ff ff       	jmp    6cd6 <realloc__U4oQ7I4r9bKBW1B0iizjtRg+0x26>
    70a9:	0f 1f 80 00 00 00 00 	nop    DWORD PTR [rax+0x0]
    70b0:	48 01 c2             	add    rdx,rax
    70b3:	48 81 fa c8 0f 00 00 	cmp    rdx,0xfc8
    70ba:	49 89 56 28          	mov    QWORD PTR [r14+0x28],rdx
    70be:	0f 85 12 fc ff ff    	jne    6cd6 <realloc__U4oQ7I4r9bKBW1B0iizjtRg+0x26>
    70c4:	48 8d 50 07          	lea    rdx,[rax+0x7]
    70c8:	48 85 c0             	test   rax,rax
    70cb:	48 0f 48 c2          	cmovs  rax,rdx
    70cf:	49 8b 56 10          	mov    rdx,QWORD PTR [r14+0x10]
    70d3:	48 83 e0 f8          	and    rax,0xfffffffffffffff8
    70d7:	48 01 d8             	add    rax,rbx
    70da:	4c 3b 70 10          	cmp    r14,QWORD PTR [rax+0x10]
    70de:	0f 84 04 03 00 00    	je     73e8 <realloc__U4oQ7I4r9bKBW1B0iizjtRg+0x738>
    70e4:	49 8b 46 18          	mov    rax,QWORD PTR [r14+0x18]
    70e8:	48 89 50 10          	mov    QWORD PTR [rax+0x10],rdx
    70ec:	49 8b 46 10          	mov    rax,QWORD PTR [r14+0x10]
    70f0:	48 85 c0             	test   rax,rax
    70f3:	74 08                	je     70fd <realloc__U4oQ7I4r9bKBW1B0iizjtRg+0x44d>
    70f5:	49 8b 56 18          	mov    rdx,QWORD PTR [r14+0x18]
    70f9:	48 89 50 18          	mov    QWORD PTR [rax+0x18],rdx
    70fd:	49 c7 46 10 00 00 00 	mov    QWORD PTR [r14+0x10],0x0
    7104:	00 
    7105:	49 c7 46 18 00 00 00 	mov    QWORD PTR [r14+0x18],0x0
    710c:	00 
    710d:	4c 89 f6             	mov    rsi,r14
    7110:	49 c7 46 08 00 10 00 	mov    QWORD PTR [r14+0x8],0x1000
    7117:	00 
    7118:	48 89 df             	mov    rdi,rbx
    711b:	e8 60 a6 ff ff       	call   1780 <freeBigChunk__IPvsryqksLyNxxag3IQr2g>
    7120:	e9 b1 fb ff ff       	jmp    6cd6 <realloc__U4oQ7I4r9bKBW1B0iizjtRg+0x26>
    7125:	0f 1f 00             	nop    DWORD PTR [rax]
    7128:	4c 89 f2             	mov    rdx,r14
    712b:	48 c1 fa 15          	sar    rdx,0x15
    712f:	0f b6 c2             	movzx  eax,dl
    7132:	48 8b 84 c3 a8 28 00 	mov    rax,QWORD PTR [rbx+rax*8+0x28a8]
    7139:	00 
    713a:	48 85 c0             	test   rax,rax
    713d:	74 23                	je     7162 <realloc__U4oQ7I4r9bKBW1B0iizjtRg+0x4b2>
    713f:	48 39 50 08          	cmp    QWORD PTR [rax+0x8],rdx
    7143:	75 15                	jne    715a <realloc__U4oQ7I4r9bKBW1B0iizjtRg+0x4aa>
    7145:	e9 96 00 00 00       	jmp    71e0 <realloc__U4oQ7I4r9bKBW1B0iizjtRg+0x530>
    714a:	66 0f 1f 44 00 00    	nop    WORD PTR [rax+rax*1+0x0]
    7150:	48 3b 50 08          	cmp    rdx,QWORD PTR [rax+0x8]
    7154:	0f 84 86 00 00 00    	je     71e0 <realloc__U4oQ7I4r9bKBW1B0iizjtRg+0x530>
    715a:	48 8b 00             	mov    rax,QWORD PTR [rax]
    715d:	48 85 c0             	test   rax,rax
    7160:	75 ee                	jne    7150 <realloc__U4oQ7I4r9bKBW1B0iizjtRg+0x4a0>
    7162:	48 8b 83 80 28 00 00 	mov    rax,QWORD PTR [rbx+0x2880]
    7169:	48 39 83 88 28 00 00 	cmp    QWORD PTR [rbx+0x2888],rax
    7170:	4c 89 f7             	mov    rdi,r14
    7173:	48 89 c2             	mov    rdx,rax
    7176:	48 0f 4d 93 88 28 00 	cmovge rdx,QWORD PTR [rbx+0x2888]
    717d:	00 
    717e:	48 29 f0             	sub    rax,rsi
    7181:	48 89 83 80 28 00 00 	mov    QWORD PTR [rbx+0x2880],rax
    7188:	48 89 93 88 28 00 00 	mov    QWORD PTR [rbx+0x2888],rdx
    718f:	e8 4c 98 ff ff       	call   9e0 <munmap@plt>
    7194:	e9 3d fb ff ff       	jmp    6cd6 <realloc__U4oQ7I4r9bKBW1B0iizjtRg+0x26>
    7199:	0f 1f 80 00 00 00 00 	nop    DWORD PTR [rax+0x0]
    71a0:	48 8b 83 d8 30 00 00 	mov    rax,QWORD PTR [rbx+0x30d8]
    71a7:	48 8d b3 d8 30 00 00 	lea    rsi,[rbx+0x30d8]
    71ae:	48 85 c0             	test   rax,rax
    71b1:	0f 84 31 01 00 00    	je     72e8 <realloc__U4oQ7I4r9bKBW1B0iizjtRg+0x638>
    71b7:	48 89 b3 a8 30 00 00 	mov    QWORD PTR [rbx+0x30a8],rsi
    71be:	e9 90 fc ff ff       	jmp    6e53 <realloc__U4oQ7I4r9bKBW1B0iizjtRg+0x1a3>
    71c3:	0f 1f 44 00 00       	nop    DWORD PTR [rax+rax*1+0x0]
    71c8:	48 8b 50 30          	mov    rdx,QWORD PTR [rax+0x30]
    71cc:	4c 8d 6c 10 38       	lea    r13,[rax+rdx*1+0x38]
    71d1:	4c 01 fa             	add    rdx,r15
    71d4:	48 89 50 30          	mov    QWORD PTR [rax+0x30],rdx
    71d8:	e9 54 fb ff ff       	jmp    6d31 <realloc__U4oQ7I4r9bKBW1B0iizjtRg+0x81>
    71dd:	0f 1f 00             	nop    DWORD PTR [rax]
    71e0:	4c 89 f1             	mov    rcx,r14
    71e3:	ba 01 00 00 00       	mov    edx,0x1
    71e8:	48 c1 f9 0c          	sar    rcx,0xc
    71ec:	81 e1 ff 01 00 00    	and    ecx,0x1ff
    71f2:	48 89 cf             	mov    rdi,rcx
    71f5:	48 d3 e2             	shl    rdx,cl
    71f8:	48 c1 ff 06          	sar    rdi,0x6
    71fc:	48 f7 d2             	not    rdx
    71ff:	48 21 54 f8 10       	and    QWORD PTR [rax+rdi*8+0x10],rdx
    7204:	e9 59 ff ff ff       	jmp    7162 <realloc__U4oQ7I4r9bKBW1B0iizjtRg+0x4b2>
    7209:	0f 1f 80 00 00 00 00 	nop    DWORD PTR [rax+0x0]
    7210:	48 83 c6 08          	add    rsi,0x8
    7214:	4c 89 f1             	mov    rcx,r14
    7217:	4c 89 ea             	mov    rdx,r13
    721a:	48 89 df             	mov    rdi,rbx
    721d:	e8 5e e5 ff ff       	call   5780 <add__3D9aOyz4rDquPZKBlqn0xig>
    7222:	48 8b b3 a8 30 00 00 	mov    rsi,QWORD PTR [rbx+0x30a8]
    7229:	48 8b 06             	mov    rax,QWORD PTR [rsi]
    722c:	e9 3e fc ff ff       	jmp    6e6f <realloc__U4oQ7I4r9bKBW1B0iizjtRg+0x1bf>
    7231:	0f 1f 80 00 00 00 00 	nop    DWORD PTR [rax+0x0]
    7238:	4c 89 83 d8 30 00 00 	mov    QWORD PTR [rbx+0x30d8],r8
    723f:	4c 89 83 e0 30 00 00 	mov    QWORD PTR [rbx+0x30e0],r8
    7246:	e9 ba fc ff ff       	jmp    6f05 <realloc__U4oQ7I4r9bKBW1B0iizjtRg+0x255>
    724b:	0f 1f 44 00 00       	nop    DWORD PTR [rax+rax*1+0x0]
    7250:	be 00 10 00 00       	mov    esi,0x1000
    7255:	e8 b6 d7 ff ff       	call   4a10 <getBigChunk__stlXHMKRKFIGOvq8t4ynRQ>
    725a:	ba c8 0f 00 00       	mov    edx,0xfc8
    725f:	48 c7 40 10 00 00 00 	mov    QWORD PTR [rax+0x10],0x0
    7266:	00 
    7267:	48 c7 40 20 00 00 00 	mov    QWORD PTR [rax+0x20],0x0
    726e:	00 
    726f:	4c 29 fa             	sub    rdx,r15
    7272:	4c 89 78 08          	mov    QWORD PTR [rax+0x8],r15
    7276:	4c 89 78 30          	mov    QWORD PTR [rax+0x30],r15
    727a:	48 89 50 28          	mov    QWORD PTR [rax+0x28],rdx
    727e:	48 c7 40 18 00 00 00 	mov    QWORD PTR [rax+0x18],0x0
    7285:	00 
    7286:	49 8b 56 10          	mov    rdx,QWORD PTR [r14+0x10]
    728a:	48 89 50 10          	mov    QWORD PTR [rax+0x10],rdx
    728e:	49 8b 56 10          	mov    rdx,QWORD PTR [r14+0x10]
    7292:	48 85 d2             	test   rdx,rdx
    7295:	74 04                	je     729b <realloc__U4oQ7I4r9bKBW1B0iizjtRg+0x5eb>
    7297:	48 89 42 18          	mov    QWORD PTR [rdx+0x18],rax
    729b:	49 89 46 10          	mov    QWORD PTR [r14+0x10],rax
    729f:	4c 3b 78 28          	cmp    r15,QWORD PTR [rax+0x28]
    72a3:	4c 8d 68 38          	lea    r13,[rax+0x38]
    72a7:	0f 8e cb fa ff ff    	jle    6d78 <realloc__U4oQ7I4r9bKBW1B0iizjtRg+0xc8>
    72ad:	48 8b 50 10          	mov    rdx,QWORD PTR [rax+0x10]
    72b1:	48 85 d2             	test   rdx,rdx
    72b4:	49 89 56 10          	mov    QWORD PTR [r14+0x10],rdx
    72b8:	0f 84 aa fa ff ff    	je     6d68 <realloc__U4oQ7I4r9bKBW1B0iizjtRg+0xb8>
    72be:	48 c7 42 18 00 00 00 	mov    QWORD PTR [rdx+0x18],0x0
    72c5:	00 
    72c6:	e9 9d fa ff ff       	jmp    6d68 <realloc__U4oQ7I4r9bKBW1B0iizjtRg+0xb8>
    72cb:	0f 1f 44 00 00       	nop    DWORD PTR [rax+rax*1+0x0]
    72d0:	48 8b 48 08          	mov    rcx,QWORD PTR [rax+0x8]
    72d4:	48 3b 51 20          	cmp    rdx,QWORD PTR [rcx+0x20]
    72d8:	0f 8e aa fd ff ff    	jle    7088 <realloc__U4oQ7I4r9bKBW1B0iizjtRg+0x3d8>
    72de:	e9 89 fc ff ff       	jmp    6f6c <realloc__U4oQ7I4r9bKBW1B0iizjtRg+0x2bc>
    72e3:	0f 1f 44 00 00       	nop    DWORD PTR [rax+rax*1+0x0]
    72e8:	48 89 b3 d8 30 00 00 	mov    QWORD PTR [rbx+0x30d8],rsi
    72ef:	48 89 b3 e0 30 00 00 	mov    QWORD PTR [rbx+0x30e0],rsi
    72f6:	48 89 f0             	mov    rax,rsi
    72f9:	e9 b9 fe ff ff       	jmp    71b7 <realloc__U4oQ7I4r9bKBW1B0iizjtRg+0x507>
    72fe:	66 90                	xchg   ax,ax
    7300:	48 8b 93 b0 30 00 00 	mov    rdx,QWORD PTR [rbx+0x30b0]
    7307:	48 3b 12             	cmp    rdx,QWORD PTR [rdx]
    730a:	0f 84 47 fc ff ff    	je     6f57 <realloc__U4oQ7I4r9bKBW1B0iizjtRg+0x2a7>
    7310:	4c 3b 4a 10          	cmp    r9,QWORD PTR [rdx+0x10]
    7314:	0f 85 3d fc ff ff    	jne    6f57 <realloc__U4oQ7I4r9bKBW1B0iizjtRg+0x2a7>
    731a:	48 8b 40 10          	mov    rax,QWORD PTR [rax+0x10]
    731e:	48 89 42 10          	mov    QWORD PTR [rdx+0x10],rax
    7322:	48 8b 93 a8 30 00 00 	mov    rdx,QWORD PTR [rbx+0x30a8]
    7329:	48 8b 83 b0 30 00 00 	mov    rax,QWORD PTR [rbx+0x30b0]
    7330:	48 8b 52 18          	mov    rdx,QWORD PTR [rdx+0x18]
    7334:	48 89 50 18          	mov    QWORD PTR [rax+0x18],rdx
    7338:	48 83 bb d8 30 00 00 	cmp    QWORD PTR [rbx+0x30d8],0x0
    733f:	00 
    7340:	75 0e                	jne    7350 <realloc__U4oQ7I4r9bKBW1B0iizjtRg+0x6a0>
    7342:	4c 89 83 d8 30 00 00 	mov    QWORD PTR [rbx+0x30d8],r8
    7349:	4c 89 83 e0 30 00 00 	mov    QWORD PTR [rbx+0x30e0],r8
    7350:	48 8b 83 a8 30 00 00 	mov    rax,QWORD PTR [rbx+0x30a8]
    7357:	4c 89 83 b0 30 00 00 	mov    QWORD PTR [rbx+0x30b0],r8
    735e:	48 8b 93 c0 30 00 00 	mov    rdx,QWORD PTR [rbx+0x30c0]
    7365:	48 8b 40 08          	mov    rax,QWORD PTR [rax+0x8]
    7369:	48 89 83 a8 30 00 00 	mov    QWORD PTR [rbx+0x30a8],rax
    7370:	48 8b 83 b8 30 00 00 	mov    rax,QWORD PTR [rbx+0x30b8]
    7377:	48 89 10             	mov    QWORD PTR [rax],rdx
    737a:	48 89 83 c0 30 00 00 	mov    QWORD PTR [rbx+0x30c0],rax
    7381:	e9 02 fd ff ff       	jmp    7088 <realloc__U4oQ7I4r9bKBW1B0iizjtRg+0x3d8>
    7386:	66 2e 0f 1f 84 00 00 	nop    WORD PTR cs:[rax+rax*1+0x0]
    738d:	00 00 00 
    7390:	48 8b 83 c0 30 00 00 	mov    rax,QWORD PTR [rbx+0x30c0]
    7397:	48 85 c0             	test   rax,rax
    739a:	74 66                	je     7402 <realloc__U4oQ7I4r9bKBW1B0iizjtRg+0x752>
    739c:	48 8b 10             	mov    rdx,QWORD PTR [rax]
    739f:	48 89 93 c0 30 00 00 	mov    QWORD PTR [rbx+0x30c0],rdx
    73a6:	4c 89 68 10          	mov    QWORD PTR [rax+0x10],r13
    73aa:	4c 89 70 18          	mov    QWORD PTR [rax+0x18],r14
    73ae:	48 8d 93 d8 30 00 00 	lea    rdx,[rbx+0x30d8]
    73b5:	48 83 bb d8 30 00 00 	cmp    QWORD PTR [rbx+0x30d8],0x0
    73bc:	00 
    73bd:	75 0e                	jne    73cd <realloc__U4oQ7I4r9bKBW1B0iizjtRg+0x71d>
    73bf:	48 89 93 d8 30 00 00 	mov    QWORD PTR [rbx+0x30d8],rdx
    73c6:	48 89 93 e0 30 00 00 	mov    QWORD PTR [rbx+0x30e0],rdx
    73cd:	48 89 10             	mov    QWORD PTR [rax],rdx
    73d0:	48 89 50 08          	mov    QWORD PTR [rax+0x8],rdx
    73d4:	48 c7 40 20 01 00 00 	mov    QWORD PTR [rax+0x20],0x1
    73db:	00 
    73dc:	48 89 83 a8 30 00 00 	mov    QWORD PTR [rbx+0x30a8],rax
    73e3:	e9 e7 fa ff ff       	jmp    6ecf <realloc__U4oQ7I4r9bKBW1B0iizjtRg+0x21f>
    73e8:	48 85 d2             	test   rdx,rdx
    73eb:	48 89 50 10          	mov    QWORD PTR [rax+0x10],rdx
    73ef:	0f 84 08 fd ff ff    	je     70fd <realloc__U4oQ7I4r9bKBW1B0iizjtRg+0x44d>
    73f5:	48 c7 42 18 00 00 00 	mov    QWORD PTR [rdx+0x18],0x0
    73fc:	00 
    73fd:	e9 fb fc ff ff       	jmp    70fd <realloc__U4oQ7I4r9bKBW1B0iizjtRg+0x44d>
    7402:	4c 8b 93 78 28 00 00 	mov    r10,QWORD PTR [rbx+0x2878]
    7409:	4d 85 d2             	test   r10,r10
    740c:	74 3b                	je     7449 <realloc__U4oQ7I4r9bKBW1B0iizjtRg+0x799>
    740e:	49 8b 12             	mov    rdx,QWORD PTR [r10]
    7411:	48 83 fa 27          	cmp    rdx,0x27
    7415:	7e 32                	jle    7449 <realloc__U4oQ7I4r9bKBW1B0iizjtRg+0x799>
    7417:	49 8b 42 08          	mov    rax,QWORD PTR [r10+0x8]
    741b:	48 83 ea 28          	sub    rdx,0x28
    741f:	49 89 12             	mov    QWORD PTR [r10],rdx
    7422:	66 0f ef c0          	pxor   xmm0,xmm0
    7426:	48 8b 93 78 28 00 00 	mov    rdx,QWORD PTR [rbx+0x2878]
    742d:	4c 01 d0             	add    rax,r10
    7430:	48 83 42 08 28       	add    QWORD PTR [rdx+0x8],0x28
    7435:	48 c7 40 20 00 00 00 	mov    QWORD PTR [rax+0x20],0x0
    743c:	00 
    743d:	0f 11 00             	movups XMMWORD PTR [rax],xmm0
    7440:	0f 11 40 10          	movups XMMWORD PTR [rax+0x10],xmm0
    7444:	e9 5d ff ff ff       	jmp    73a6 <realloc__U4oQ7I4r9bKBW1B0iizjtRg+0x6f6>
    7449:	45 31 c9             	xor    r9d,r9d
    744c:	ba 03 00 00 00       	mov    edx,0x3
    7451:	31 ff                	xor    edi,edi
    7453:	41 b8 ff ff ff ff    	mov    r8d,0xffffffff
    7459:	b9 22 00 00 00       	mov    ecx,0x22
    745e:	be 00 10 00 00       	mov    esi,0x1000
    7463:	4c 89 14 24          	mov    QWORD PTR [rsp],r10
    7467:	e8 04 95 ff ff       	call   970 <mmap@plt>
    746c:	48 8d 50 ff          	lea    rdx,[rax-0x1]
    7470:	4c 8b 14 24          	mov    r10,QWORD PTR [rsp]
    7474:	48 83 fa fd          	cmp    rdx,0xfffffffffffffffd
    7478:	76 13                	jbe    748d <realloc__U4oQ7I4r9bKBW1B0iizjtRg+0x7dd>
    747a:	48 89 44 24 08       	mov    QWORD PTR [rsp+0x8],rax
    747f:	e8 7c 9c ff ff       	call   1100 <raiseOutOfMem__mMRdr4sgmnykA9aWeM9aDZlw>
    7484:	48 8b 44 24 08       	mov    rax,QWORD PTR [rsp+0x8]
    7489:	4c 8b 14 24          	mov    r10,QWORD PTR [rsp]
    748d:	48 89 83 78 28 00 00 	mov    QWORD PTR [rbx+0x2878],rax
    7494:	48 81 83 80 28 00 00 	add    QWORD PTR [rbx+0x2880],0x1000
    749b:	00 10 00 00 
    749f:	48 c7 00 e8 0f 00 00 	mov    QWORD PTR [rax],0xfe8
    74a6:	48 8b 83 78 28 00 00 	mov    rax,QWORD PTR [rbx+0x2878]
    74ad:	48 c7 40 08 18 00 00 	mov    QWORD PTR [rax+0x8],0x18
    74b4:	00 
    74b5:	48 8b 83 78 28 00 00 	mov    rax,QWORD PTR [rbx+0x2878]
    74bc:	4c 89 50 10          	mov    QWORD PTR [rax+0x10],r10
    74c0:	4c 8b 93 78 28 00 00 	mov    r10,QWORD PTR [rbx+0x2878]
    74c7:	49 8b 12             	mov    rdx,QWORD PTR [r10]
    74ca:	e9 48 ff ff ff       	jmp    7417 <realloc__U4oQ7I4r9bKBW1B0iizjtRg+0x767>
    74cf:	90                   	nop

00000000000074d0 <realloc0Impl__IgIebrdwXvKFCSjUIwm6Dg_2>:
    74d0:	41 57                	push   r15
    74d2:	41 56                	push   r14
    74d4:	41 55                	push   r13
    74d6:	41 54                	push   r12
    74d8:	49 89 fd             	mov    r13,rdi
    74db:	55                   	push   rbp
    74dc:	53                   	push   rbx
    74dd:	49 89 f4             	mov    r12,rsi
    74e0:	48 89 d3             	mov    rbx,rdx
    74e3:	48 83 ec 18          	sub    rsp,0x18
    74e7:	48 85 d2             	test   rdx,rdx
    74ea:	7f 44                	jg     7530 <realloc0Impl__IgIebrdwXvKFCSjUIwm6Dg_2+0x60>
    74ec:	31 ed                	xor    ebp,ebp
    74ee:	48 85 ff             	test   rdi,rdi
    74f1:	74 0f                	je     7502 <realloc0Impl__IgIebrdwXvKFCSjUIwm6Dg_2+0x32>
    74f3:	48 89 fe             	mov    rsi,rdi
    74f6:	48 8d 3d 83 ab 20 00 	lea    rdi,[rip+0x20ab83]        # 212080 <allocator__Het9ctRSeaVb4hPekZZNCJQ>
    74fd:	e8 7e ac ff ff       	call   2180 <rawDealloc__K7uQ6aTKvW6OnOV8EMoNNQ>
    7502:	4c 39 e3             	cmp    rbx,r12
    7505:	7e 12                	jle    7519 <realloc0Impl__IgIebrdwXvKFCSjUIwm6Dg_2+0x49>
    7507:	4c 29 e3             	sub    rbx,r12
    750a:	4a 8d 7c 25 00       	lea    rdi,[rbp+r12*1+0x0]
    750f:	31 f6                	xor    esi,esi
    7511:	48 89 da             	mov    rdx,rbx
    7514:	e8 67 94 ff ff       	call   980 <memset@plt>
    7519:	48 83 c4 18          	add    rsp,0x18
    751d:	48 89 e8             	mov    rax,rbp
    7520:	5b                   	pop    rbx
    7521:	5d                   	pop    rbp
    7522:	41 5c                	pop    r12
    7524:	41 5d                	pop    r13
    7526:	41 5e                	pop    r14
    7528:	41 5f                	pop    r15
    752a:	c3                   	ret    
    752b:	0f 1f 44 00 00       	nop    DWORD PTR [rax+rax*1+0x0]
    7530:	48 8d 42 07          	lea    rax,[rdx+0x7]
    7534:	49 89 c7             	mov    r15,rax
    7537:	49 83 e7 f8          	and    r15,0xfffffffffffffff8
    753b:	49 81 ff c8 0f 00 00 	cmp    r15,0xfc8
    7542:	0f 8f 28 01 00 00    	jg     7670 <realloc0Impl__IgIebrdwXvKFCSjUIwm6Dg_2+0x1a0>
    7548:	48 c1 f8 03          	sar    rax,0x3
    754c:	48 8d 0d 2d ab 20 00 	lea    rcx,[rip+0x20ab2d]        # 212080 <allocator__Het9ctRSeaVb4hPekZZNCJQ>
    7553:	4c 8d 70 02          	lea    r14,[rax+0x2]
    7557:	4a 8b 04 f1          	mov    rax,QWORD PTR [rcx+r14*8]
    755b:	48 85 c0             	test   rax,rax
    755e:	0f 84 74 05 00 00    	je     7ad8 <realloc0Impl__IgIebrdwXvKFCSjUIwm6Dg_2+0x608>
    7564:	48 8b 68 20          	mov    rbp,QWORD PTR [rax+0x20]
    7568:	48 85 ed             	test   rbp,rbp
    756b:	0f 84 df 04 00 00    	je     7a50 <realloc0Impl__IgIebrdwXvKFCSjUIwm6Dg_2+0x580>
    7571:	48 8b 55 00          	mov    rdx,QWORD PTR [rbp+0x0]
    7575:	48 89 50 20          	mov    QWORD PTR [rax+0x20],rdx
    7579:	48 8b 50 28          	mov    rdx,QWORD PTR [rax+0x28]
    757d:	4c 29 fa             	sub    rdx,r15
    7580:	49 39 d7             	cmp    r15,rdx
    7583:	48 89 50 28          	mov    QWORD PTR [rax+0x28],rdx
    7587:	7e 37                	jle    75c0 <realloc0Impl__IgIebrdwXvKFCSjUIwm6Dg_2+0xf0>
    7589:	4a 3b 04 f1          	cmp    rax,QWORD PTR [rcx+r14*8]
    758d:	48 8b 50 10          	mov    rdx,QWORD PTR [rax+0x10]
    7591:	0f 84 ad 05 00 00    	je     7b44 <realloc0Impl__IgIebrdwXvKFCSjUIwm6Dg_2+0x674>
    7597:	48 8b 48 18          	mov    rcx,QWORD PTR [rax+0x18]
    759b:	48 89 51 10          	mov    QWORD PTR [rcx+0x10],rdx
    759f:	48 8b 50 10          	mov    rdx,QWORD PTR [rax+0x10]
    75a3:	48 85 d2             	test   rdx,rdx
    75a6:	74 08                	je     75b0 <realloc0Impl__IgIebrdwXvKFCSjUIwm6Dg_2+0xe0>
    75a8:	48 8b 48 18          	mov    rcx,QWORD PTR [rax+0x18]
    75ac:	48 89 4a 18          	mov    QWORD PTR [rdx+0x18],rcx
    75b0:	48 c7 40 10 00 00 00 	mov    QWORD PTR [rax+0x10],0x0
    75b7:	00 
    75b8:	48 c7 40 18 00 00 00 	mov    QWORD PTR [rax+0x18],0x0
    75bf:	00 
    75c0:	4c 01 3d 51 d3 20 00 	add    QWORD PTR [rip+0x20d351],r15        # 214918 <allocator__Het9ctRSeaVb4hPekZZNCJQ+0x2898>
    75c7:	4d 85 ed             	test   r13,r13
    75ca:	0f 84 32 ff ff ff    	je     7502 <realloc0Impl__IgIebrdwXvKFCSjUIwm6Dg_2+0x32>
    75d0:	4d 89 ee             	mov    r14,r13
    75d3:	4c 89 ee             	mov    rsi,r13
    75d6:	48 89 ef             	mov    rdi,rbp
    75d9:	49 81 e6 00 f0 ff ff 	and    r14,0xfffffffffffff000
    75e0:	49 8b 56 08          	mov    rdx,QWORD PTR [r14+0x8]
    75e4:	48 8d 42 e0          	lea    rax,[rdx-0x20]
    75e8:	48 81 fa c8 0f 00 00 	cmp    rdx,0xfc8
    75ef:	48 0f 4f d0          	cmovg  rdx,rax
    75f3:	48 39 d3             	cmp    rbx,rdx
    75f6:	48 0f 4e d3          	cmovle rdx,rbx
    75fa:	e8 c1 93 ff ff       	call   9c0 <memcpy@plt>
    75ff:	49 8b 46 08          	mov    rax,QWORD PTR [r14+0x8]
    7603:	48 3d c8 0f 00 00    	cmp    rax,0xfc8
    7609:	0f 8f 41 01 00 00    	jg     7750 <realloc0Impl__IgIebrdwXvKFCSjUIwm6Dg_2+0x280>
    760f:	48 29 05 02 d3 20 00 	sub    QWORD PTR [rip+0x20d302],rax        # 214918 <allocator__Het9ctRSeaVb4hPekZZNCJQ+0x2898>
    7616:	48 8d 0d 63 aa 20 00 	lea    rcx,[rip+0x20aa63]        # 212080 <allocator__Het9ctRSeaVb4hPekZZNCJQ>
    761d:	49 8b 56 20          	mov    rdx,QWORD PTR [r14+0x20]
    7621:	49 89 55 00          	mov    QWORD PTR [r13+0x0],rdx
    7625:	49 8b 56 28          	mov    rdx,QWORD PTR [r14+0x28]
    7629:	4d 89 6e 20          	mov    QWORD PTR [r14+0x20],r13
    762d:	48 39 d0             	cmp    rax,rdx
    7630:	0f 8e f2 02 00 00    	jle    7928 <realloc0Impl__IgIebrdwXvKFCSjUIwm6Dg_2+0x458>
    7636:	48 8d 50 07          	lea    rdx,[rax+0x7]
    763a:	48 85 c0             	test   rax,rax
    763d:	48 0f 49 d0          	cmovns rdx,rax
    7641:	48 c1 fa 03          	sar    rdx,0x3
    7645:	48 83 c2 02          	add    rdx,0x2
    7649:	48 8b 34 d1          	mov    rsi,QWORD PTR [rcx+rdx*8]
    764d:	49 89 76 10          	mov    QWORD PTR [r14+0x10],rsi
    7651:	48 8b 34 d1          	mov    rsi,QWORD PTR [rcx+rdx*8]
    7655:	48 85 f6             	test   rsi,rsi
    7658:	74 04                	je     765e <realloc0Impl__IgIebrdwXvKFCSjUIwm6Dg_2+0x18e>
    765a:	4c 89 76 18          	mov    QWORD PTR [rsi+0x18],r14
    765e:	4c 89 34 d1          	mov    QWORD PTR [rcx+rdx*8],r14
    7662:	49 01 46 28          	add    QWORD PTR [r14+0x28],rax
    7666:	e9 97 fe ff ff       	jmp    7502 <realloc0Impl__IgIebrdwXvKFCSjUIwm6Dg_2+0x32>
    766b:	0f 1f 44 00 00       	nop    DWORD PTR [rax+rax*1+0x0]
    7670:	4c 8d 72 20          	lea    r14,[rdx+0x20]
    7674:	48 8d 3d 05 aa 20 00 	lea    rdi,[rip+0x20aa05]        # 212080 <allocator__Het9ctRSeaVb4hPekZZNCJQ>
    767b:	49 81 fe 00 00 00 3f 	cmp    r14,0x3f000000
    7682:	4c 89 f6             	mov    rsi,r14
    7685:	0f 8e b5 00 00 00    	jle    7740 <realloc0Impl__IgIebrdwXvKFCSjUIwm6Dg_2+0x270>
    768b:	e8 e0 dd ff ff       	call   5470 <getHugeChunk__stlXHMKRKFIGOvq8t4ynRQ_3>
    7690:	49 89 c7             	mov    r15,rax
    7693:	48 8b 35 8e da 20 00 	mov    rsi,QWORD PTR [rip+0x20da8e]        # 215128 <allocator__Het9ctRSeaVb4hPekZZNCJQ+0x30a8>
    769a:	49 8d 6f 20          	lea    rbp,[r15+0x20]
    769e:	48 85 f6             	test   rsi,rsi
    76a1:	0f 84 79 03 00 00    	je     7a20 <realloc0Impl__IgIebrdwXvKFCSjUIwm6Dg_2+0x550>
    76a7:	48 8b 06             	mov    rax,QWORD PTR [rsi]
    76aa:	49 01 ee             	add    r14,rbp
    76ad:	48 39 c6             	cmp    rsi,rax
    76b0:	0f 84 6a 05 00 00    	je     7c20 <realloc0Impl__IgIebrdwXvKFCSjUIwm6Dg_2+0x750>
    76b6:	48 3b 6e 10          	cmp    rbp,QWORD PTR [rsi+0x10]
    76ba:	0f 82 dc 03 00 00    	jb     7a9c <realloc0Impl__IgIebrdwXvKFCSjUIwm6Dg_2+0x5cc>
    76c0:	0f 87 d2 03 00 00    	ja     7a98 <realloc0Impl__IgIebrdwXvKFCSjUIwm6Dg_2+0x5c8>
    76c6:	48 8b 56 20          	mov    rdx,QWORD PTR [rsi+0x20]
    76ca:	48 39 50 20          	cmp    QWORD PTR [rax+0x20],rdx
    76ce:	75 24                	jne    76f4 <realloc0Impl__IgIebrdwXvKFCSjUIwm6Dg_2+0x224>
    76d0:	48 89 05 51 da 20 00 	mov    QWORD PTR [rip+0x20da51],rax        # 215128 <allocator__Het9ctRSeaVb4hPekZZNCJQ+0x30a8>
    76d7:	48 8b 40 08          	mov    rax,QWORD PTR [rax+0x8]
    76db:	48 89 06             	mov    QWORD PTR [rsi],rax
    76de:	48 8b 05 43 da 20 00 	mov    rax,QWORD PTR [rip+0x20da43]        # 215128 <allocator__Het9ctRSeaVb4hPekZZNCJQ+0x30a8>
    76e5:	48 89 70 08          	mov    QWORD PTR [rax+0x8],rsi
    76e9:	48 8b 35 38 da 20 00 	mov    rsi,QWORD PTR [rip+0x20da38]        # 215128 <allocator__Het9ctRSeaVb4hPekZZNCJQ+0x30a8>
    76f0:	48 8b 56 20          	mov    rdx,QWORD PTR [rsi+0x20]
    76f4:	48 8b 46 08          	mov    rax,QWORD PTR [rsi+0x8]
    76f8:	48 8b 48 08          	mov    rcx,QWORD PTR [rax+0x8]
    76fc:	48 39 51 20          	cmp    QWORD PTR [rcx+0x20],rdx
    7700:	75 24                	jne    7726 <realloc0Impl__IgIebrdwXvKFCSjUIwm6Dg_2+0x256>
    7702:	48 89 05 1f da 20 00 	mov    QWORD PTR [rip+0x20da1f],rax        # 215128 <allocator__Het9ctRSeaVb4hPekZZNCJQ+0x30a8>
    7709:	48 8b 00             	mov    rax,QWORD PTR [rax]
    770c:	48 89 46 08          	mov    QWORD PTR [rsi+0x8],rax
    7710:	48 8b 05 11 da 20 00 	mov    rax,QWORD PTR [rip+0x20da11]        # 215128 <allocator__Het9ctRSeaVb4hPekZZNCJQ+0x30a8>
    7717:	48 89 30             	mov    QWORD PTR [rax],rsi
    771a:	48 8b 05 07 da 20 00 	mov    rax,QWORD PTR [rip+0x20da07]        # 215128 <allocator__Het9ctRSeaVb4hPekZZNCJQ+0x30a8>
    7721:	48 83 40 20 01       	add    QWORD PTR [rax+0x20],0x1
    7726:	49 8b 47 08          	mov    rax,QWORD PTR [r15+0x8]
    772a:	48 01 05 e7 d1 20 00 	add    QWORD PTR [rip+0x20d1e7],rax        # 214918 <allocator__Het9ctRSeaVb4hPekZZNCJQ+0x2898>
    7731:	e9 91 fe ff ff       	jmp    75c7 <realloc0Impl__IgIebrdwXvKFCSjUIwm6Dg_2+0xf7>
    7736:	66 2e 0f 1f 84 00 00 	nop    WORD PTR cs:[rax+rax*1+0x0]
    773d:	00 00 00 
    7740:	e8 cb d2 ff ff       	call   4a10 <getBigChunk__stlXHMKRKFIGOvq8t4ynRQ>
    7745:	49 89 c7             	mov    r15,rax
    7748:	e9 46 ff ff ff       	jmp    7693 <realloc0Impl__IgIebrdwXvKFCSjUIwm6Dg_2+0x1c3>
    774d:	0f 1f 00             	nop    DWORD PTR [rax]
    7750:	48 29 05 c1 d1 20 00 	sub    QWORD PTR [rip+0x20d1c1],rax        # 214918 <allocator__Het9ctRSeaVb4hPekZZNCJQ+0x2898>
    7757:	48 83 3d f9 d9 20 00 	cmp    QWORD PTR [rip+0x20d9f9],0x0        # 215158 <allocator__Het9ctRSeaVb4hPekZZNCJQ+0x30d8>
    775e:	00 
    775f:	4c 8d 05 f2 d9 20 00 	lea    r8,[rip+0x20d9f2]        # 215158 <allocator__Het9ctRSeaVb4hPekZZNCJQ+0x30d8>
    7766:	0f 84 54 03 00 00    	je     7ac0 <realloc0Impl__IgIebrdwXvKFCSjUIwm6Dg_2+0x5f0>
    776c:	48 8b 35 b5 d9 20 00 	mov    rsi,QWORD PTR [rip+0x20d9b5]        # 215128 <allocator__Het9ctRSeaVb4hPekZZNCJQ+0x30a8>
    7773:	4c 89 05 b6 d9 20 00 	mov    QWORD PTR [rip+0x20d9b6],r8        # 215130 <allocator__Het9ctRSeaVb4hPekZZNCJQ+0x30b0>
    777a:	48 8d 0d ff a8 20 00 	lea    rcx,[rip+0x20a8ff]        # 212080 <allocator__Het9ctRSeaVb4hPekZZNCJQ>
    7781:	48 3b 36             	cmp    rsi,QWORD PTR [rsi]
    7784:	0f 84 76 01 00 00    	je     7900 <realloc0Impl__IgIebrdwXvKFCSjUIwm6Dg_2+0x430>
    778a:	4d 8d 4e 20          	lea    r9,[r14+0x20]
    778e:	48 89 35 a3 d9 20 00 	mov    QWORD PTR [rip+0x20d9a3],rsi        # 215138 <allocator__Het9ctRSeaVb4hPekZZNCJQ+0x30b8>
    7795:	4c 3b 4e 10          	cmp    r9,QWORD PTR [rsi+0x10]
    7799:	72 0b                	jb     77a6 <realloc0Impl__IgIebrdwXvKFCSjUIwm6Dg_2+0x2d6>
    779b:	48 89 35 8e d9 20 00 	mov    QWORD PTR [rip+0x20d98e],rsi        # 215130 <allocator__Het9ctRSeaVb4hPekZZNCJQ+0x30b0>
    77a2:	48 83 c6 08          	add    rsi,0x8
    77a6:	48 89 cf             	mov    rdi,rcx
    77a9:	4c 89 ca             	mov    rdx,r9
    77ac:	48 89 0c 24          	mov    QWORD PTR [rsp],rcx
    77b0:	e8 1b a7 ff ff       	call   1ed0 <del__Io5JDKCS5u26IEWw0J53hQ>
    77b5:	48 8b 05 6c d9 20 00 	mov    rax,QWORD PTR [rip+0x20d96c]        # 215128 <allocator__Het9ctRSeaVb4hPekZZNCJQ+0x30a8>
    77bc:	48 3b 05 75 d9 20 00 	cmp    rax,QWORD PTR [rip+0x20d975]        # 215138 <allocator__Het9ctRSeaVb4hPekZZNCJQ+0x30b8>
    77c3:	48 8b 0c 24          	mov    rcx,QWORD PTR [rsp]
    77c7:	0f 84 c3 03 00 00    	je     7b90 <realloc0Impl__IgIebrdwXvKFCSjUIwm6Dg_2+0x6c0>
    77cd:	48 8b 78 20          	mov    rdi,QWORD PTR [rax+0x20]
    77d1:	48 8b 30             	mov    rsi,QWORD PTR [rax]
    77d4:	48 8d 57 ff          	lea    rdx,[rdi-0x1]
    77d8:	48 39 56 20          	cmp    QWORD PTR [rsi+0x20],rdx
    77dc:	0f 8d 7e 03 00 00    	jge    7b60 <realloc0Impl__IgIebrdwXvKFCSjUIwm6Dg_2+0x690>
    77e2:	48 89 50 20          	mov    QWORD PTR [rax+0x20],rdx
    77e6:	48 8b 05 3b d9 20 00 	mov    rax,QWORD PTR [rip+0x20d93b]        # 215128 <allocator__Het9ctRSeaVb4hPekZZNCJQ+0x30a8>
    77ed:	48 8b 70 08          	mov    rsi,QWORD PTR [rax+0x8]
    77f1:	48 8b 50 20          	mov    rdx,QWORD PTR [rax+0x20]
    77f5:	48 3b 56 20          	cmp    rdx,QWORD PTR [rsi+0x20]
    77f9:	7d 0f                	jge    780a <realloc0Impl__IgIebrdwXvKFCSjUIwm6Dg_2+0x33a>
    77fb:	48 89 56 20          	mov    QWORD PTR [rsi+0x20],rdx
    77ff:	48 8b 05 22 d9 20 00 	mov    rax,QWORD PTR [rip+0x20d922]        # 215128 <allocator__Het9ctRSeaVb4hPekZZNCJQ+0x30a8>
    7806:	48 8b 50 20          	mov    rdx,QWORD PTR [rax+0x20]
    780a:	48 8b 30             	mov    rsi,QWORD PTR [rax]
    780d:	48 39 56 20          	cmp    QWORD PTR [rsi+0x20],rdx
    7811:	75 20                	jne    7833 <realloc0Impl__IgIebrdwXvKFCSjUIwm6Dg_2+0x363>
    7813:	48 89 35 0e d9 20 00 	mov    QWORD PTR [rip+0x20d90e],rsi        # 215128 <allocator__Het9ctRSeaVb4hPekZZNCJQ+0x30a8>
    781a:	48 8b 56 08          	mov    rdx,QWORD PTR [rsi+0x8]
    781e:	48 89 10             	mov    QWORD PTR [rax],rdx
    7821:	48 8b 15 00 d9 20 00 	mov    rdx,QWORD PTR [rip+0x20d900]        # 215128 <allocator__Het9ctRSeaVb4hPekZZNCJQ+0x30a8>
    7828:	48 89 42 08          	mov    QWORD PTR [rdx+0x8],rax
    782c:	48 8b 05 f5 d8 20 00 	mov    rax,QWORD PTR [rip+0x20d8f5]        # 215128 <allocator__Het9ctRSeaVb4hPekZZNCJQ+0x30a8>
    7833:	48 8b 50 08          	mov    rdx,QWORD PTR [rax+0x8]
    7837:	48 8b 32             	mov    rsi,QWORD PTR [rdx]
    783a:	48 8b 7a 20          	mov    rdi,QWORD PTR [rdx+0x20]
    783e:	48 39 7e 20          	cmp    QWORD PTR [rsi+0x20],rdi
    7842:	75 1e                	jne    7862 <realloc0Impl__IgIebrdwXvKFCSjUIwm6Dg_2+0x392>
    7844:	48 89 70 08          	mov    QWORD PTR [rax+0x8],rsi
    7848:	48 8b 76 08          	mov    rsi,QWORD PTR [rsi+0x8]
    784c:	48 89 32             	mov    QWORD PTR [rdx],rsi
    784f:	48 8b 40 08          	mov    rax,QWORD PTR [rax+0x8]
    7853:	48 89 50 08          	mov    QWORD PTR [rax+0x8],rdx
    7857:	48 8b 05 ca d8 20 00 	mov    rax,QWORD PTR [rip+0x20d8ca]        # 215128 <allocator__Het9ctRSeaVb4hPekZZNCJQ+0x30a8>
    785e:	48 8b 50 08          	mov    rdx,QWORD PTR [rax+0x8]
    7862:	48 8b 72 08          	mov    rsi,QWORD PTR [rdx+0x8]
    7866:	4c 8b 06             	mov    r8,QWORD PTR [rsi]
    7869:	48 8b 7e 20          	mov    rdi,QWORD PTR [rsi+0x20]
    786d:	49 39 78 20          	cmp    QWORD PTR [r8+0x20],rdi
    7871:	75 26                	jne    7899 <realloc0Impl__IgIebrdwXvKFCSjUIwm6Dg_2+0x3c9>
    7873:	4c 89 42 08          	mov    QWORD PTR [rdx+0x8],r8
    7877:	49 8b 40 08          	mov    rax,QWORD PTR [r8+0x8]
    787b:	48 89 06             	mov    QWORD PTR [rsi],rax
    787e:	48 8b 42 08          	mov    rax,QWORD PTR [rdx+0x8]
    7882:	48 89 70 08          	mov    QWORD PTR [rax+0x8],rsi
    7886:	48 8b 05 9b d8 20 00 	mov    rax,QWORD PTR [rip+0x20d89b]        # 215128 <allocator__Het9ctRSeaVb4hPekZZNCJQ+0x30a8>
    788d:	48 8b 50 08          	mov    rdx,QWORD PTR [rax+0x8]
    7891:	48 8b 72 08          	mov    rsi,QWORD PTR [rdx+0x8]
    7895:	48 8b 7e 20          	mov    rdi,QWORD PTR [rsi+0x20]
    7899:	48 39 78 20          	cmp    QWORD PTR [rax+0x20],rdi
    789d:	75 33                	jne    78d2 <realloc0Impl__IgIebrdwXvKFCSjUIwm6Dg_2+0x402>
    789f:	48 89 15 82 d8 20 00 	mov    QWORD PTR [rip+0x20d882],rdx        # 215128 <allocator__Het9ctRSeaVb4hPekZZNCJQ+0x30a8>
    78a6:	48 8b 12             	mov    rdx,QWORD PTR [rdx]
    78a9:	48 89 50 08          	mov    QWORD PTR [rax+0x8],rdx
    78ad:	48 8b 15 74 d8 20 00 	mov    rdx,QWORD PTR [rip+0x20d874]        # 215128 <allocator__Het9ctRSeaVb4hPekZZNCJQ+0x30a8>
    78b4:	48 89 02             	mov    QWORD PTR [rdx],rax
    78b7:	48 8b 05 6a d8 20 00 	mov    rax,QWORD PTR [rip+0x20d86a]        # 215128 <allocator__Het9ctRSeaVb4hPekZZNCJQ+0x30a8>
    78be:	48 83 40 20 01       	add    QWORD PTR [rax+0x20],0x1
    78c3:	48 8b 05 5e d8 20 00 	mov    rax,QWORD PTR [rip+0x20d85e]        # 215128 <allocator__Het9ctRSeaVb4hPekZZNCJQ+0x30a8>
    78ca:	48 8b 50 08          	mov    rdx,QWORD PTR [rax+0x8]
    78ce:	48 8b 72 08          	mov    rsi,QWORD PTR [rdx+0x8]
    78d2:	48 8b 7e 08          	mov    rdi,QWORD PTR [rsi+0x8]
    78d6:	4c 8b 5a 20          	mov    r11,QWORD PTR [rdx+0x20]
    78da:	4c 39 5f 20          	cmp    QWORD PTR [rdi+0x20],r11
    78de:	75 20                	jne    7900 <realloc0Impl__IgIebrdwXvKFCSjUIwm6Dg_2+0x430>
    78e0:	48 89 70 08          	mov    QWORD PTR [rax+0x8],rsi
    78e4:	48 8b 36             	mov    rsi,QWORD PTR [rsi]
    78e7:	48 89 72 08          	mov    QWORD PTR [rdx+0x8],rsi
    78eb:	48 8b 70 08          	mov    rsi,QWORD PTR [rax+0x8]
    78ef:	48 89 16             	mov    QWORD PTR [rsi],rdx
    78f2:	48 8b 40 08          	mov    rax,QWORD PTR [rax+0x8]
    78f6:	48 83 40 20 01       	add    QWORD PTR [rax+0x20],0x1
    78fb:	0f 1f 44 00 00       	nop    DWORD PTR [rax+rax*1+0x0]
    7900:	49 8b 76 08          	mov    rsi,QWORD PTR [r14+0x8]
    7904:	48 81 fe 00 00 00 3f 	cmp    rsi,0x3f000000
    790b:	0f 8f 97 00 00 00    	jg     79a8 <realloc0Impl__IgIebrdwXvKFCSjUIwm6Dg_2+0x4d8>
    7911:	48 8d 3d 68 a7 20 00 	lea    rdi,[rip+0x20a768]        # 212080 <allocator__Het9ctRSeaVb4hPekZZNCJQ>
    7918:	4c 89 f6             	mov    rsi,r14
    791b:	e8 60 9e ff ff       	call   1780 <freeBigChunk__IPvsryqksLyNxxag3IQr2g>
    7920:	e9 dd fb ff ff       	jmp    7502 <realloc0Impl__IgIebrdwXvKFCSjUIwm6Dg_2+0x32>
    7925:	0f 1f 00             	nop    DWORD PTR [rax]
    7928:	48 01 c2             	add    rdx,rax
    792b:	48 81 fa c8 0f 00 00 	cmp    rdx,0xfc8
    7932:	49 89 56 28          	mov    QWORD PTR [r14+0x28],rdx
    7936:	0f 85 c6 fb ff ff    	jne    7502 <realloc0Impl__IgIebrdwXvKFCSjUIwm6Dg_2+0x32>
    793c:	48 8d 50 07          	lea    rdx,[rax+0x7]
    7940:	48 85 c0             	test   rax,rax
    7943:	48 0f 48 c2          	cmovs  rax,rdx
    7947:	49 8b 56 10          	mov    rdx,QWORD PTR [r14+0x10]
    794b:	48 c1 f8 03          	sar    rax,0x3
    794f:	48 83 c0 02          	add    rax,0x2
    7953:	4c 3b 34 c1          	cmp    r14,QWORD PTR [rcx+rax*8]
    7957:	0f 84 1b 03 00 00    	je     7c78 <realloc0Impl__IgIebrdwXvKFCSjUIwm6Dg_2+0x7a8>
    795d:	49 8b 46 18          	mov    rax,QWORD PTR [r14+0x18]
    7961:	48 89 50 10          	mov    QWORD PTR [rax+0x10],rdx
    7965:	49 8b 46 10          	mov    rax,QWORD PTR [r14+0x10]
    7969:	48 85 c0             	test   rax,rax
    796c:	74 08                	je     7976 <realloc0Impl__IgIebrdwXvKFCSjUIwm6Dg_2+0x4a6>
    796e:	49 8b 56 18          	mov    rdx,QWORD PTR [r14+0x18]
    7972:	48 89 50 18          	mov    QWORD PTR [rax+0x18],rdx
    7976:	48 8d 3d 03 a7 20 00 	lea    rdi,[rip+0x20a703]        # 212080 <allocator__Het9ctRSeaVb4hPekZZNCJQ>
    797d:	49 c7 46 10 00 00 00 	mov    QWORD PTR [r14+0x10],0x0
    7984:	00 
    7985:	49 c7 46 18 00 00 00 	mov    QWORD PTR [r14+0x18],0x0
    798c:	00 
    798d:	49 c7 46 08 00 10 00 	mov    QWORD PTR [r14+0x8],0x1000
    7994:	00 
    7995:	4c 89 f6             	mov    rsi,r14
    7998:	e8 e3 9d ff ff       	call   1780 <freeBigChunk__IPvsryqksLyNxxag3IQr2g>
    799d:	e9 60 fb ff ff       	jmp    7502 <realloc0Impl__IgIebrdwXvKFCSjUIwm6Dg_2+0x32>
    79a2:	66 0f 1f 44 00 00    	nop    WORD PTR [rax+rax*1+0x0]
    79a8:	4c 89 f2             	mov    rdx,r14
    79ab:	48 c1 fa 15          	sar    rdx,0x15
    79af:	0f b6 c2             	movzx  eax,dl
    79b2:	48 8b 84 c1 a8 28 00 	mov    rax,QWORD PTR [rcx+rax*8+0x28a8]
    79b9:	00 
    79ba:	48 85 c0             	test   rax,rax
    79bd:	74 23                	je     79e2 <realloc0Impl__IgIebrdwXvKFCSjUIwm6Dg_2+0x512>
    79bf:	48 39 50 08          	cmp    QWORD PTR [rax+0x8],rdx
    79c3:	75 15                	jne    79da <realloc0Impl__IgIebrdwXvKFCSjUIwm6Dg_2+0x50a>
    79c5:	e9 9e 00 00 00       	jmp    7a68 <realloc0Impl__IgIebrdwXvKFCSjUIwm6Dg_2+0x598>
    79ca:	66 0f 1f 44 00 00    	nop    WORD PTR [rax+rax*1+0x0]
    79d0:	48 3b 50 08          	cmp    rdx,QWORD PTR [rax+0x8]
    79d4:	0f 84 8e 00 00 00    	je     7a68 <realloc0Impl__IgIebrdwXvKFCSjUIwm6Dg_2+0x598>
    79da:	48 8b 00             	mov    rax,QWORD PTR [rax]
    79dd:	48 85 c0             	test   rax,rax
    79e0:	75 ee                	jne    79d0 <realloc0Impl__IgIebrdwXvKFCSjUIwm6Dg_2+0x500>
    79e2:	48 8b 05 17 cf 20 00 	mov    rax,QWORD PTR [rip+0x20cf17]        # 214900 <allocator__Het9ctRSeaVb4hPekZZNCJQ+0x2880>
    79e9:	48 39 05 18 cf 20 00 	cmp    QWORD PTR [rip+0x20cf18],rax        # 214908 <allocator__Het9ctRSeaVb4hPekZZNCJQ+0x2888>
    79f0:	4c 89 f7             	mov    rdi,r14
    79f3:	48 89 c2             	mov    rdx,rax
    79f6:	48 0f 4d 15 0a cf 20 	cmovge rdx,QWORD PTR [rip+0x20cf0a]        # 214908 <allocator__Het9ctRSeaVb4hPekZZNCJQ+0x2888>
    79fd:	00 
    79fe:	48 29 f0             	sub    rax,rsi
    7a01:	48 89 05 f8 ce 20 00 	mov    QWORD PTR [rip+0x20cef8],rax        # 214900 <allocator__Het9ctRSeaVb4hPekZZNCJQ+0x2880>
    7a08:	48 89 15 f9 ce 20 00 	mov    QWORD PTR [rip+0x20cef9],rdx        # 214908 <allocator__Het9ctRSeaVb4hPekZZNCJQ+0x2888>
    7a0f:	e8 cc 8f ff ff       	call   9e0 <munmap@plt>
    7a14:	e9 e9 fa ff ff       	jmp    7502 <realloc0Impl__IgIebrdwXvKFCSjUIwm6Dg_2+0x32>
    7a19:	0f 1f 80 00 00 00 00 	nop    DWORD PTR [rax+0x0]
    7a20:	48 8b 05 31 d7 20 00 	mov    rax,QWORD PTR [rip+0x20d731]        # 215158 <allocator__Het9ctRSeaVb4hPekZZNCJQ+0x30d8>
    7a27:	4c 8d 05 2a d7 20 00 	lea    r8,[rip+0x20d72a]        # 215158 <allocator__Het9ctRSeaVb4hPekZZNCJQ+0x30d8>
    7a2e:	48 85 c0             	test   rax,rax
    7a31:	0f 84 41 01 00 00    	je     7b78 <realloc0Impl__IgIebrdwXvKFCSjUIwm6Dg_2+0x6a8>
    7a37:	4c 89 05 ea d6 20 00 	mov    QWORD PTR [rip+0x20d6ea],r8        # 215128 <allocator__Het9ctRSeaVb4hPekZZNCJQ+0x30a8>
    7a3e:	48 8d 35 13 d7 20 00 	lea    rsi,[rip+0x20d713]        # 215158 <allocator__Het9ctRSeaVb4hPekZZNCJQ+0x30d8>
    7a45:	e9 60 fc ff ff       	jmp    76aa <realloc0Impl__IgIebrdwXvKFCSjUIwm6Dg_2+0x1da>
    7a4a:	66 0f 1f 44 00 00    	nop    WORD PTR [rax+rax*1+0x0]
    7a50:	48 8b 50 30          	mov    rdx,QWORD PTR [rax+0x30]
    7a54:	48 8d 6c 10 38       	lea    rbp,[rax+rdx*1+0x38]
    7a59:	4c 01 fa             	add    rdx,r15
    7a5c:	48 89 50 30          	mov    QWORD PTR [rax+0x30],rdx
    7a60:	e9 14 fb ff ff       	jmp    7579 <realloc0Impl__IgIebrdwXvKFCSjUIwm6Dg_2+0xa9>
    7a65:	0f 1f 00             	nop    DWORD PTR [rax]
    7a68:	4c 89 f1             	mov    rcx,r14
    7a6b:	ba 01 00 00 00       	mov    edx,0x1
    7a70:	48 c1 f9 0c          	sar    rcx,0xc
    7a74:	81 e1 ff 01 00 00    	and    ecx,0x1ff
    7a7a:	48 89 cf             	mov    rdi,rcx
    7a7d:	48 d3 e2             	shl    rdx,cl
    7a80:	48 c1 ff 06          	sar    rdi,0x6
    7a84:	48 f7 d2             	not    rdx
    7a87:	48 21 54 f8 10       	and    QWORD PTR [rax+rdi*8+0x10],rdx
    7a8c:	e9 51 ff ff ff       	jmp    79e2 <realloc0Impl__IgIebrdwXvKFCSjUIwm6Dg_2+0x512>
    7a91:	0f 1f 80 00 00 00 00 	nop    DWORD PTR [rax+0x0]
    7a98:	48 83 c6 08          	add    rsi,0x8
    7a9c:	48 8d 3d dd a5 20 00 	lea    rdi,[rip+0x20a5dd]        # 212080 <allocator__Het9ctRSeaVb4hPekZZNCJQ>
    7aa3:	4c 89 f1             	mov    rcx,r14
    7aa6:	48 89 ea             	mov    rdx,rbp
    7aa9:	e8 d2 dc ff ff       	call   5780 <add__3D9aOyz4rDquPZKBlqn0xig>
    7aae:	48 8b 35 73 d6 20 00 	mov    rsi,QWORD PTR [rip+0x20d673]        # 215128 <allocator__Het9ctRSeaVb4hPekZZNCJQ+0x30a8>
    7ab5:	48 8b 06             	mov    rax,QWORD PTR [rsi]
    7ab8:	e9 09 fc ff ff       	jmp    76c6 <realloc0Impl__IgIebrdwXvKFCSjUIwm6Dg_2+0x1f6>
    7abd:	0f 1f 00             	nop    DWORD PTR [rax]
    7ac0:	4c 89 05 91 d6 20 00 	mov    QWORD PTR [rip+0x20d691],r8        # 215158 <allocator__Het9ctRSeaVb4hPekZZNCJQ+0x30d8>
    7ac7:	4c 89 05 92 d6 20 00 	mov    QWORD PTR [rip+0x20d692],r8        # 215160 <allocator__Het9ctRSeaVb4hPekZZNCJQ+0x30e0>
    7ace:	e9 99 fc ff ff       	jmp    776c <realloc0Impl__IgIebrdwXvKFCSjUIwm6Dg_2+0x29c>
    7ad3:	0f 1f 44 00 00       	nop    DWORD PTR [rax+rax*1+0x0]
    7ad8:	48 89 cf             	mov    rdi,rcx
    7adb:	be 00 10 00 00       	mov    esi,0x1000
    7ae0:	48 89 0c 24          	mov    QWORD PTR [rsp],rcx
    7ae4:	e8 27 cf ff ff       	call   4a10 <getBigChunk__stlXHMKRKFIGOvq8t4ynRQ>
    7ae9:	48 8b 0c 24          	mov    rcx,QWORD PTR [rsp]
    7aed:	ba c8 0f 00 00       	mov    edx,0xfc8
    7af2:	48 c7 40 10 00 00 00 	mov    QWORD PTR [rax+0x10],0x0
    7af9:	00 
    7afa:	4c 29 fa             	sub    rdx,r15
    7afd:	48 c7 40 20 00 00 00 	mov    QWORD PTR [rax+0x20],0x0
    7b04:	00 
    7b05:	4c 89 78 08          	mov    QWORD PTR [rax+0x8],r15
    7b09:	4c 89 78 30          	mov    QWORD PTR [rax+0x30],r15
    7b0d:	48 89 50 28          	mov    QWORD PTR [rax+0x28],rdx
    7b11:	48 c7 40 18 00 00 00 	mov    QWORD PTR [rax+0x18],0x0
    7b18:	00 
    7b19:	4a 8b 14 f1          	mov    rdx,QWORD PTR [rcx+r14*8]
    7b1d:	48 89 50 10          	mov    QWORD PTR [rax+0x10],rdx
    7b21:	4a 8b 14 f1          	mov    rdx,QWORD PTR [rcx+r14*8]
    7b25:	48 85 d2             	test   rdx,rdx
    7b28:	74 04                	je     7b2e <realloc0Impl__IgIebrdwXvKFCSjUIwm6Dg_2+0x65e>
    7b2a:	48 89 42 18          	mov    QWORD PTR [rdx+0x18],rax
    7b2e:	4a 89 04 f1          	mov    QWORD PTR [rcx+r14*8],rax
    7b32:	4c 3b 78 28          	cmp    r15,QWORD PTR [rax+0x28]
    7b36:	48 8d 68 38          	lea    rbp,[rax+0x38]
    7b3a:	0f 8e 80 fa ff ff    	jle    75c0 <realloc0Impl__IgIebrdwXvKFCSjUIwm6Dg_2+0xf0>
    7b40:	48 8b 50 10          	mov    rdx,QWORD PTR [rax+0x10]
    7b44:	48 85 d2             	test   rdx,rdx
    7b47:	4a 89 14 f1          	mov    QWORD PTR [rcx+r14*8],rdx
    7b4b:	0f 84 5f fa ff ff    	je     75b0 <realloc0Impl__IgIebrdwXvKFCSjUIwm6Dg_2+0xe0>
    7b51:	48 c7 42 18 00 00 00 	mov    QWORD PTR [rdx+0x18],0x0
    7b58:	00 
    7b59:	e9 52 fa ff ff       	jmp    75b0 <realloc0Impl__IgIebrdwXvKFCSjUIwm6Dg_2+0xe0>
    7b5e:	66 90                	xchg   ax,ax
    7b60:	48 8b 70 08          	mov    rsi,QWORD PTR [rax+0x8]
    7b64:	48 3b 56 20          	cmp    rdx,QWORD PTR [rsi+0x20]
    7b68:	0f 8e 92 fd ff ff    	jle    7900 <realloc0Impl__IgIebrdwXvKFCSjUIwm6Dg_2+0x430>
    7b6e:	e9 6f fc ff ff       	jmp    77e2 <realloc0Impl__IgIebrdwXvKFCSjUIwm6Dg_2+0x312>
    7b73:	0f 1f 44 00 00       	nop    DWORD PTR [rax+rax*1+0x0]
    7b78:	4c 89 05 d9 d5 20 00 	mov    QWORD PTR [rip+0x20d5d9],r8        # 215158 <allocator__Het9ctRSeaVb4hPekZZNCJQ+0x30d8>
    7b7f:	4c 89 05 da d5 20 00 	mov    QWORD PTR [rip+0x20d5da],r8        # 215160 <allocator__Het9ctRSeaVb4hPekZZNCJQ+0x30e0>
    7b86:	4c 89 c0             	mov    rax,r8
    7b89:	e9 a9 fe ff ff       	jmp    7a37 <realloc0Impl__IgIebrdwXvKFCSjUIwm6Dg_2+0x567>
    7b8e:	66 90                	xchg   ax,ax
    7b90:	48 8b 15 99 d5 20 00 	mov    rdx,QWORD PTR [rip+0x20d599]        # 215130 <allocator__Het9ctRSeaVb4hPekZZNCJQ+0x30b0>
    7b97:	48 3b 12             	cmp    rdx,QWORD PTR [rdx]
    7b9a:	0f 84 2d fc ff ff    	je     77cd <realloc0Impl__IgIebrdwXvKFCSjUIwm6Dg_2+0x2fd>
    7ba0:	4c 3b 4a 10          	cmp    r9,QWORD PTR [rdx+0x10]
    7ba4:	0f 85 23 fc ff ff    	jne    77cd <realloc0Impl__IgIebrdwXvKFCSjUIwm6Dg_2+0x2fd>
    7baa:	48 8b 40 10          	mov    rax,QWORD PTR [rax+0x10]
    7bae:	48 89 42 10          	mov    QWORD PTR [rdx+0x10],rax
    7bb2:	48 8b 05 6f d5 20 00 	mov    rax,QWORD PTR [rip+0x20d56f]        # 215128 <allocator__Het9ctRSeaVb4hPekZZNCJQ+0x30a8>
    7bb9:	48 8b 50 18          	mov    rdx,QWORD PTR [rax+0x18]
    7bbd:	48 8b 05 6c d5 20 00 	mov    rax,QWORD PTR [rip+0x20d56c]        # 215130 <allocator__Het9ctRSeaVb4hPekZZNCJQ+0x30b0>
    7bc4:	48 89 50 18          	mov    QWORD PTR [rax+0x18],rdx
    7bc8:	48 83 3d 88 d5 20 00 	cmp    QWORD PTR [rip+0x20d588],0x0        # 215158 <allocator__Het9ctRSeaVb4hPekZZNCJQ+0x30d8>
    7bcf:	00 
    7bd0:	75 0e                	jne    7be0 <realloc0Impl__IgIebrdwXvKFCSjUIwm6Dg_2+0x710>
    7bd2:	4c 89 05 7f d5 20 00 	mov    QWORD PTR [rip+0x20d57f],r8        # 215158 <allocator__Het9ctRSeaVb4hPekZZNCJQ+0x30d8>
    7bd9:	4c 89 05 80 d5 20 00 	mov    QWORD PTR [rip+0x20d580],r8        # 215160 <allocator__Het9ctRSeaVb4hPekZZNCJQ+0x30e0>
    7be0:	48 8b 05 41 d5 20 00 	mov    rax,QWORD PTR [rip+0x20d541]        # 215128 <allocator__Het9ctRSeaVb4hPekZZNCJQ+0x30a8>
    7be7:	4c 89 05 42 d5 20 00 	mov    QWORD PTR [rip+0x20d542],r8        # 215130 <allocator__Het9ctRSeaVb4hPekZZNCJQ+0x30b0>
    7bee:	48 8b 15 4b d5 20 00 	mov    rdx,QWORD PTR [rip+0x20d54b]        # 215140 <allocator__Het9ctRSeaVb4hPekZZNCJQ+0x30c0>
    7bf5:	48 8b 40 08          	mov    rax,QWORD PTR [rax+0x8]
    7bf9:	48 89 05 28 d5 20 00 	mov    QWORD PTR [rip+0x20d528],rax        # 215128 <allocator__Het9ctRSeaVb4hPekZZNCJQ+0x30a8>
    7c00:	48 8b 05 31 d5 20 00 	mov    rax,QWORD PTR [rip+0x20d531]        # 215138 <allocator__Het9ctRSeaVb4hPekZZNCJQ+0x30b8>
    7c07:	48 89 10             	mov    QWORD PTR [rax],rdx
    7c0a:	48 89 05 2f d5 20 00 	mov    QWORD PTR [rip+0x20d52f],rax        # 215140 <allocator__Het9ctRSeaVb4hPekZZNCJQ+0x30c0>
    7c11:	e9 ea fc ff ff       	jmp    7900 <realloc0Impl__IgIebrdwXvKFCSjUIwm6Dg_2+0x430>
    7c16:	66 2e 0f 1f 84 00 00 	nop    WORD PTR cs:[rax+rax*1+0x0]
    7c1d:	00 00 00 
    7c20:	48 8b 05 19 d5 20 00 	mov    rax,QWORD PTR [rip+0x20d519]        # 215140 <allocator__Het9ctRSeaVb4hPekZZNCJQ+0x30c0>
    7c27:	48 85 c0             	test   rax,rax
    7c2a:	74 66                	je     7c92 <realloc0Impl__IgIebrdwXvKFCSjUIwm6Dg_2+0x7c2>
    7c2c:	48 8b 10             	mov    rdx,QWORD PTR [rax]
    7c2f:	48 89 15 0a d5 20 00 	mov    QWORD PTR [rip+0x20d50a],rdx        # 215140 <allocator__Het9ctRSeaVb4hPekZZNCJQ+0x30c0>
    7c36:	48 89 68 10          	mov    QWORD PTR [rax+0x10],rbp
    7c3a:	4c 89 70 18          	mov    QWORD PTR [rax+0x18],r14
    7c3e:	4c 8d 05 13 d5 20 00 	lea    r8,[rip+0x20d513]        # 215158 <allocator__Het9ctRSeaVb4hPekZZNCJQ+0x30d8>
    7c45:	48 83 3d 0b d5 20 00 	cmp    QWORD PTR [rip+0x20d50b],0x0        # 215158 <allocator__Het9ctRSeaVb4hPekZZNCJQ+0x30d8>
    7c4c:	00 
    7c4d:	75 0e                	jne    7c5d <realloc0Impl__IgIebrdwXvKFCSjUIwm6Dg_2+0x78d>
    7c4f:	4c 89 05 02 d5 20 00 	mov    QWORD PTR [rip+0x20d502],r8        # 215158 <allocator__Het9ctRSeaVb4hPekZZNCJQ+0x30d8>
    7c56:	4c 89 05 03 d5 20 00 	mov    QWORD PTR [rip+0x20d503],r8        # 215160 <allocator__Het9ctRSeaVb4hPekZZNCJQ+0x30e0>
    7c5d:	4c 89 00             	mov    QWORD PTR [rax],r8
    7c60:	4c 89 40 08          	mov    QWORD PTR [rax+0x8],r8
    7c64:	48 c7 40 20 01 00 00 	mov    QWORD PTR [rax+0x20],0x1
    7c6b:	00 
    7c6c:	48 89 05 b5 d4 20 00 	mov    QWORD PTR [rip+0x20d4b5],rax        # 215128 <allocator__Het9ctRSeaVb4hPekZZNCJQ+0x30a8>
    7c73:	e9 ae fa ff ff       	jmp    7726 <realloc0Impl__IgIebrdwXvKFCSjUIwm6Dg_2+0x256>
    7c78:	48 85 d2             	test   rdx,rdx
    7c7b:	48 89 14 c1          	mov    QWORD PTR [rcx+rax*8],rdx
    7c7f:	0f 84 f1 fc ff ff    	je     7976 <realloc0Impl__IgIebrdwXvKFCSjUIwm6Dg_2+0x4a6>
    7c85:	48 c7 42 18 00 00 00 	mov    QWORD PTR [rdx+0x18],0x0
    7c8c:	00 
    7c8d:	e9 e4 fc ff ff       	jmp    7976 <realloc0Impl__IgIebrdwXvKFCSjUIwm6Dg_2+0x4a6>
    7c92:	4c 8b 15 5f cc 20 00 	mov    r10,QWORD PTR [rip+0x20cc5f]        # 2148f8 <allocator__Het9ctRSeaVb4hPekZZNCJQ+0x2878>
    7c99:	4d 85 d2             	test   r10,r10
    7c9c:	74 3b                	je     7cd9 <realloc0Impl__IgIebrdwXvKFCSjUIwm6Dg_2+0x809>
    7c9e:	49 8b 12             	mov    rdx,QWORD PTR [r10]
    7ca1:	48 83 fa 27          	cmp    rdx,0x27
    7ca5:	7e 32                	jle    7cd9 <realloc0Impl__IgIebrdwXvKFCSjUIwm6Dg_2+0x809>
    7ca7:	49 8b 42 08          	mov    rax,QWORD PTR [r10+0x8]
    7cab:	48 83 ea 28          	sub    rdx,0x28
    7caf:	49 89 12             	mov    QWORD PTR [r10],rdx
    7cb2:	66 0f ef c0          	pxor   xmm0,xmm0
    7cb6:	48 8b 15 3b cc 20 00 	mov    rdx,QWORD PTR [rip+0x20cc3b]        # 2148f8 <allocator__Het9ctRSeaVb4hPekZZNCJQ+0x2878>
    7cbd:	4c 01 d0             	add    rax,r10
    7cc0:	48 83 42 08 28       	add    QWORD PTR [rdx+0x8],0x28
    7cc5:	48 c7 40 20 00 00 00 	mov    QWORD PTR [rax+0x20],0x0
    7ccc:	00 
    7ccd:	0f 11 00             	movups XMMWORD PTR [rax],xmm0
    7cd0:	0f 11 40 10          	movups XMMWORD PTR [rax+0x10],xmm0
    7cd4:	e9 5d ff ff ff       	jmp    7c36 <realloc0Impl__IgIebrdwXvKFCSjUIwm6Dg_2+0x766>
    7cd9:	45 31 c9             	xor    r9d,r9d
    7cdc:	ba 03 00 00 00       	mov    edx,0x3
    7ce1:	31 ff                	xor    edi,edi
    7ce3:	41 b8 ff ff ff ff    	mov    r8d,0xffffffff
    7ce9:	b9 22 00 00 00       	mov    ecx,0x22
    7cee:	be 00 10 00 00       	mov    esi,0x1000
    7cf3:	4c 89 14 24          	mov    QWORD PTR [rsp],r10
    7cf7:	e8 74 8c ff ff       	call   970 <mmap@plt>
    7cfc:	48 8d 50 ff          	lea    rdx,[rax-0x1]
    7d00:	4c 8b 14 24          	mov    r10,QWORD PTR [rsp]
    7d04:	48 83 fa fd          	cmp    rdx,0xfffffffffffffffd
    7d08:	76 13                	jbe    7d1d <realloc0Impl__IgIebrdwXvKFCSjUIwm6Dg_2+0x84d>
    7d0a:	48 89 44 24 08       	mov    QWORD PTR [rsp+0x8],rax
    7d0f:	e8 ec 93 ff ff       	call   1100 <raiseOutOfMem__mMRdr4sgmnykA9aWeM9aDZlw>
    7d14:	48 8b 44 24 08       	mov    rax,QWORD PTR [rsp+0x8]
    7d19:	4c 8b 14 24          	mov    r10,QWORD PTR [rsp]
    7d1d:	48 89 05 d4 cb 20 00 	mov    QWORD PTR [rip+0x20cbd4],rax        # 2148f8 <allocator__Het9ctRSeaVb4hPekZZNCJQ+0x2878>
    7d24:	48 81 05 d1 cb 20 00 	add    QWORD PTR [rip+0x20cbd1],0x1000        # 214900 <allocator__Het9ctRSeaVb4hPekZZNCJQ+0x2880>
    7d2b:	00 10 00 00 
    7d2f:	48 c7 00 e8 0f 00 00 	mov    QWORD PTR [rax],0xfe8
    7d36:	48 8b 05 bb cb 20 00 	mov    rax,QWORD PTR [rip+0x20cbbb]        # 2148f8 <allocator__Het9ctRSeaVb4hPekZZNCJQ+0x2878>
    7d3d:	48 c7 40 08 18 00 00 	mov    QWORD PTR [rax+0x8],0x18
    7d44:	00 
    7d45:	48 8b 05 ac cb 20 00 	mov    rax,QWORD PTR [rip+0x20cbac]        # 2148f8 <allocator__Het9ctRSeaVb4hPekZZNCJQ+0x2878>
    7d4c:	4c 89 50 10          	mov    QWORD PTR [rax+0x10],r10
    7d50:	4c 8b 15 a1 cb 20 00 	mov    r10,QWORD PTR [rip+0x20cba1]        # 2148f8 <allocator__Het9ctRSeaVb4hPekZZNCJQ+0x2878>
    7d57:	49 8b 12             	mov    rdx,QWORD PTR [r10]
    7d5a:	e9 48 ff ff ff       	jmp    7ca7 <realloc0Impl__IgIebrdwXvKFCSjUIwm6Dg_2+0x7d7>
    7d5f:	90                   	nop

0000000000007d60 <reallocShared0Impl__IgIebrdwXvKFCSjUIwm6Dg>:
    7d60:	41 57                	push   r15
    7d62:	41 56                	push   r14
    7d64:	41 55                	push   r13
    7d66:	41 54                	push   r12
    7d68:	49 89 fd             	mov    r13,rdi
    7d6b:	55                   	push   rbp
    7d6c:	53                   	push   rbx
    7d6d:	49 89 f4             	mov    r12,rsi
    7d70:	48 89 d3             	mov    rbx,rdx
    7d73:	48 83 ec 18          	sub    rsp,0x18
    7d77:	48 85 d2             	test   rdx,rdx
    7d7a:	7f 44                	jg     7dc0 <reallocShared0Impl__IgIebrdwXvKFCSjUIwm6Dg+0x60>
    7d7c:	31 ed                	xor    ebp,ebp
    7d7e:	48 85 ff             	test   rdi,rdi
    7d81:	74 0f                	je     7d92 <reallocShared0Impl__IgIebrdwXvKFCSjUIwm6Dg+0x32>
    7d83:	48 89 fe             	mov    rsi,rdi
    7d86:	48 8d 3d f3 a2 20 00 	lea    rdi,[rip+0x20a2f3]        # 212080 <allocator__Het9ctRSeaVb4hPekZZNCJQ>
    7d8d:	e8 ee a3 ff ff       	call   2180 <rawDealloc__K7uQ6aTKvW6OnOV8EMoNNQ>
    7d92:	49 39 dc             	cmp    r12,rbx
    7d95:	7d 12                	jge    7da9 <reallocShared0Impl__IgIebrdwXvKFCSjUIwm6Dg+0x49>
    7d97:	4c 29 e3             	sub    rbx,r12
    7d9a:	4a 8d 7c 25 00       	lea    rdi,[rbp+r12*1+0x0]
    7d9f:	31 f6                	xor    esi,esi
    7da1:	48 89 da             	mov    rdx,rbx
    7da4:	e8 d7 8b ff ff       	call   980 <memset@plt>
    7da9:	48 83 c4 18          	add    rsp,0x18
    7dad:	48 89 e8             	mov    rax,rbp
    7db0:	5b                   	pop    rbx
    7db1:	5d                   	pop    rbp
    7db2:	41 5c                	pop    r12
    7db4:	41 5d                	pop    r13
    7db6:	41 5e                	pop    r14
    7db8:	41 5f                	pop    r15
    7dba:	c3                   	ret    
    7dbb:	0f 1f 44 00 00       	nop    DWORD PTR [rax+rax*1+0x0]
    7dc0:	48 8d 42 07          	lea    rax,[rdx+0x7]
    7dc4:	49 89 c7             	mov    r15,rax
    7dc7:	49 83 e7 f8          	and    r15,0xfffffffffffffff8
    7dcb:	49 81 ff c8 0f 00 00 	cmp    r15,0xfc8
    7dd2:	0f 8f 28 01 00 00    	jg     7f00 <reallocShared0Impl__IgIebrdwXvKFCSjUIwm6Dg+0x1a0>
    7dd8:	48 c1 f8 03          	sar    rax,0x3
    7ddc:	48 8d 0d 9d a2 20 00 	lea    rcx,[rip+0x20a29d]        # 212080 <allocator__Het9ctRSeaVb4hPekZZNCJQ>
    7de3:	4c 8d 70 02          	lea    r14,[rax+0x2]
    7de7:	4a 8b 04 f1          	mov    rax,QWORD PTR [rcx+r14*8]
    7deb:	48 85 c0             	test   rax,rax
    7dee:	0f 84 74 05 00 00    	je     8368 <reallocShared0Impl__IgIebrdwXvKFCSjUIwm6Dg+0x608>
    7df4:	48 8b 68 20          	mov    rbp,QWORD PTR [rax+0x20]
    7df8:	48 85 ed             	test   rbp,rbp
    7dfb:	0f 84 df 04 00 00    	je     82e0 <reallocShared0Impl__IgIebrdwXvKFCSjUIwm6Dg+0x580>
    7e01:	48 8b 55 00          	mov    rdx,QWORD PTR [rbp+0x0]
    7e05:	48 89 50 20          	mov    QWORD PTR [rax+0x20],rdx
    7e09:	48 8b 50 28          	mov    rdx,QWORD PTR [rax+0x28]
    7e0d:	4c 29 fa             	sub    rdx,r15
    7e10:	49 39 d7             	cmp    r15,rdx
    7e13:	48 89 50 28          	mov    QWORD PTR [rax+0x28],rdx
    7e17:	7e 37                	jle    7e50 <reallocShared0Impl__IgIebrdwXvKFCSjUIwm6Dg+0xf0>
    7e19:	4a 3b 04 f1          	cmp    rax,QWORD PTR [rcx+r14*8]
    7e1d:	48 8b 50 10          	mov    rdx,QWORD PTR [rax+0x10]
    7e21:	0f 84 ad 05 00 00    	je     83d4 <reallocShared0Impl__IgIebrdwXvKFCSjUIwm6Dg+0x674>
    7e27:	48 8b 48 18          	mov    rcx,QWORD PTR [rax+0x18]
    7e2b:	48 89 51 10          	mov    QWORD PTR [rcx+0x10],rdx
    7e2f:	48 8b 50 10          	mov    rdx,QWORD PTR [rax+0x10]
    7e33:	48 85 d2             	test   rdx,rdx
    7e36:	74 08                	je     7e40 <reallocShared0Impl__IgIebrdwXvKFCSjUIwm6Dg+0xe0>
    7e38:	48 8b 48 18          	mov    rcx,QWORD PTR [rax+0x18]
    7e3c:	48 89 4a 18          	mov    QWORD PTR [rdx+0x18],rcx
    7e40:	48 c7 40 10 00 00 00 	mov    QWORD PTR [rax+0x10],0x0
    7e47:	00 
    7e48:	48 c7 40 18 00 00 00 	mov    QWORD PTR [rax+0x18],0x0
    7e4f:	00 
    7e50:	4c 01 3d c1 ca 20 00 	add    QWORD PTR [rip+0x20cac1],r15        # 214918 <allocator__Het9ctRSeaVb4hPekZZNCJQ+0x2898>
    7e57:	4d 85 ed             	test   r13,r13
    7e5a:	0f 84 32 ff ff ff    	je     7d92 <reallocShared0Impl__IgIebrdwXvKFCSjUIwm6Dg+0x32>
    7e60:	4d 89 ee             	mov    r14,r13
    7e63:	4c 89 ee             	mov    rsi,r13
    7e66:	48 89 ef             	mov    rdi,rbp
    7e69:	49 81 e6 00 f0 ff ff 	and    r14,0xfffffffffffff000
    7e70:	49 8b 56 08          	mov    rdx,QWORD PTR [r14+0x8]
    7e74:	48 8d 42 e0          	lea    rax,[rdx-0x20]
    7e78:	48 81 fa c8 0f 00 00 	cmp    rdx,0xfc8
    7e7f:	48 0f 4f d0          	cmovg  rdx,rax
    7e83:	48 39 d3             	cmp    rbx,rdx
    7e86:	48 0f 4e d3          	cmovle rdx,rbx
    7e8a:	e8 31 8b ff ff       	call   9c0 <memcpy@plt>
    7e8f:	49 8b 46 08          	mov    rax,QWORD PTR [r14+0x8]
    7e93:	48 3d c8 0f 00 00    	cmp    rax,0xfc8
    7e99:	0f 8f 41 01 00 00    	jg     7fe0 <reallocShared0Impl__IgIebrdwXvKFCSjUIwm6Dg+0x280>
    7e9f:	48 29 05 72 ca 20 00 	sub    QWORD PTR [rip+0x20ca72],rax        # 214918 <allocator__Het9ctRSeaVb4hPekZZNCJQ+0x2898>
    7ea6:	48 8d 0d d3 a1 20 00 	lea    rcx,[rip+0x20a1d3]        # 212080 <allocator__Het9ctRSeaVb4hPekZZNCJQ>
    7ead:	49 8b 56 20          	mov    rdx,QWORD PTR [r14+0x20]
    7eb1:	49 89 55 00          	mov    QWORD PTR [r13+0x0],rdx
    7eb5:	49 8b 56 28          	mov    rdx,QWORD PTR [r14+0x28]
    7eb9:	4d 89 6e 20          	mov    QWORD PTR [r14+0x20],r13
    7ebd:	48 39 d0             	cmp    rax,rdx
    7ec0:	0f 8e f2 02 00 00    	jle    81b8 <reallocShared0Impl__IgIebrdwXvKFCSjUIwm6Dg+0x458>
    7ec6:	48 8d 50 07          	lea    rdx,[rax+0x7]
    7eca:	48 85 c0             	test   rax,rax
    7ecd:	48 0f 49 d0          	cmovns rdx,rax
    7ed1:	48 c1 fa 03          	sar    rdx,0x3
    7ed5:	48 83 c2 02          	add    rdx,0x2
    7ed9:	48 8b 34 d1          	mov    rsi,QWORD PTR [rcx+rdx*8]
    7edd:	49 89 76 10          	mov    QWORD PTR [r14+0x10],rsi
    7ee1:	48 8b 34 d1          	mov    rsi,QWORD PTR [rcx+rdx*8]
    7ee5:	48 85 f6             	test   rsi,rsi
    7ee8:	74 04                	je     7eee <reallocShared0Impl__IgIebrdwXvKFCSjUIwm6Dg+0x18e>
    7eea:	4c 89 76 18          	mov    QWORD PTR [rsi+0x18],r14
    7eee:	4c 89 34 d1          	mov    QWORD PTR [rcx+rdx*8],r14
    7ef2:	49 01 46 28          	add    QWORD PTR [r14+0x28],rax
    7ef6:	e9 97 fe ff ff       	jmp    7d92 <reallocShared0Impl__IgIebrdwXvKFCSjUIwm6Dg+0x32>
    7efb:	0f 1f 44 00 00       	nop    DWORD PTR [rax+rax*1+0x0]
    7f00:	4c 8d 72 20          	lea    r14,[rdx+0x20]
    7f04:	48 8d 3d 75 a1 20 00 	lea    rdi,[rip+0x20a175]        # 212080 <allocator__Het9ctRSeaVb4hPekZZNCJQ>
    7f0b:	49 81 fe 00 00 00 3f 	cmp    r14,0x3f000000
    7f12:	4c 89 f6             	mov    rsi,r14
    7f15:	0f 8e b5 00 00 00    	jle    7fd0 <reallocShared0Impl__IgIebrdwXvKFCSjUIwm6Dg+0x270>
    7f1b:	e8 50 d5 ff ff       	call   5470 <getHugeChunk__stlXHMKRKFIGOvq8t4ynRQ_3>
    7f20:	49 89 c7             	mov    r15,rax
    7f23:	48 8b 35 fe d1 20 00 	mov    rsi,QWORD PTR [rip+0x20d1fe]        # 215128 <allocator__Het9ctRSeaVb4hPekZZNCJQ+0x30a8>
    7f2a:	49 8d 6f 20          	lea    rbp,[r15+0x20]
    7f2e:	48 85 f6             	test   rsi,rsi
    7f31:	0f 84 79 03 00 00    	je     82b0 <reallocShared0Impl__IgIebrdwXvKFCSjUIwm6Dg+0x550>
    7f37:	48 8b 06             	mov    rax,QWORD PTR [rsi]
    7f3a:	49 01 ee             	add    r14,rbp
    7f3d:	48 39 c6             	cmp    rsi,rax
    7f40:	0f 84 6a 05 00 00    	je     84b0 <reallocShared0Impl__IgIebrdwXvKFCSjUIwm6Dg+0x750>
    7f46:	48 3b 6e 10          	cmp    rbp,QWORD PTR [rsi+0x10]
    7f4a:	0f 82 dc 03 00 00    	jb     832c <reallocShared0Impl__IgIebrdwXvKFCSjUIwm6Dg+0x5cc>
    7f50:	0f 87 d2 03 00 00    	ja     8328 <reallocShared0Impl__IgIebrdwXvKFCSjUIwm6Dg+0x5c8>
    7f56:	48 8b 56 20          	mov    rdx,QWORD PTR [rsi+0x20]
    7f5a:	48 39 50 20          	cmp    QWORD PTR [rax+0x20],rdx
    7f5e:	75 24                	jne    7f84 <reallocShared0Impl__IgIebrdwXvKFCSjUIwm6Dg+0x224>
    7f60:	48 89 05 c1 d1 20 00 	mov    QWORD PTR [rip+0x20d1c1],rax        # 215128 <allocator__Het9ctRSeaVb4hPekZZNCJQ+0x30a8>
    7f67:	48 8b 40 08          	mov    rax,QWORD PTR [rax+0x8]
    7f6b:	48 89 06             	mov    QWORD PTR [rsi],rax
    7f6e:	48 8b 05 b3 d1 20 00 	mov    rax,QWORD PTR [rip+0x20d1b3]        # 215128 <allocator__Het9ctRSeaVb4hPekZZNCJQ+0x30a8>
    7f75:	48 89 70 08          	mov    QWORD PTR [rax+0x8],rsi
    7f79:	48 8b 35 a8 d1 20 00 	mov    rsi,QWORD PTR [rip+0x20d1a8]        # 215128 <allocator__Het9ctRSeaVb4hPekZZNCJQ+0x30a8>
    7f80:	48 8b 56 20          	mov    rdx,QWORD PTR [rsi+0x20]
    7f84:	48 8b 46 08          	mov    rax,QWORD PTR [rsi+0x8]
    7f88:	48 8b 48 08          	mov    rcx,QWORD PTR [rax+0x8]
    7f8c:	48 39 51 20          	cmp    QWORD PTR [rcx+0x20],rdx
    7f90:	75 24                	jne    7fb6 <reallocShared0Impl__IgIebrdwXvKFCSjUIwm6Dg+0x256>
    7f92:	48 89 05 8f d1 20 00 	mov    QWORD PTR [rip+0x20d18f],rax        # 215128 <allocator__Het9ctRSeaVb4hPekZZNCJQ+0x30a8>
    7f99:	48 8b 00             	mov    rax,QWORD PTR [rax]
    7f9c:	48 89 46 08          	mov    QWORD PTR [rsi+0x8],rax
    7fa0:	48 8b 05 81 d1 20 00 	mov    rax,QWORD PTR [rip+0x20d181]        # 215128 <allocator__Het9ctRSeaVb4hPekZZNCJQ+0x30a8>
    7fa7:	48 89 30             	mov    QWORD PTR [rax],rsi
    7faa:	48 8b 05 77 d1 20 00 	mov    rax,QWORD PTR [rip+0x20d177]        # 215128 <allocator__Het9ctRSeaVb4hPekZZNCJQ+0x30a8>
    7fb1:	48 83 40 20 01       	add    QWORD PTR [rax+0x20],0x1
    7fb6:	49 8b 47 08          	mov    rax,QWORD PTR [r15+0x8]
    7fba:	48 01 05 57 c9 20 00 	add    QWORD PTR [rip+0x20c957],rax        # 214918 <allocator__Het9ctRSeaVb4hPekZZNCJQ+0x2898>
    7fc1:	e9 91 fe ff ff       	jmp    7e57 <reallocShared0Impl__IgIebrdwXvKFCSjUIwm6Dg+0xf7>
    7fc6:	66 2e 0f 1f 84 00 00 	nop    WORD PTR cs:[rax+rax*1+0x0]
    7fcd:	00 00 00 
    7fd0:	e8 3b ca ff ff       	call   4a10 <getBigChunk__stlXHMKRKFIGOvq8t4ynRQ>
    7fd5:	49 89 c7             	mov    r15,rax
    7fd8:	e9 46 ff ff ff       	jmp    7f23 <reallocShared0Impl__IgIebrdwXvKFCSjUIwm6Dg+0x1c3>
    7fdd:	0f 1f 00             	nop    DWORD PTR [rax]
    7fe0:	48 29 05 31 c9 20 00 	sub    QWORD PTR [rip+0x20c931],rax        # 214918 <allocator__Het9ctRSeaVb4hPekZZNCJQ+0x2898>
    7fe7:	48 83 3d 69 d1 20 00 	cmp    QWORD PTR [rip+0x20d169],0x0        # 215158 <allocator__Het9ctRSeaVb4hPekZZNCJQ+0x30d8>
    7fee:	00 
    7fef:	4c 8d 05 62 d1 20 00 	lea    r8,[rip+0x20d162]        # 215158 <allocator__Het9ctRSeaVb4hPekZZNCJQ+0x30d8>
    7ff6:	0f 84 54 03 00 00    	je     8350 <reallocShared0Impl__IgIebrdwXvKFCSjUIwm6Dg+0x5f0>
    7ffc:	48 8b 35 25 d1 20 00 	mov    rsi,QWORD PTR [rip+0x20d125]        # 215128 <allocator__Het9ctRSeaVb4hPekZZNCJQ+0x30a8>
    8003:	4c 89 05 26 d1 20 00 	mov    QWORD PTR [rip+0x20d126],r8        # 215130 <allocator__Het9ctRSeaVb4hPekZZNCJQ+0x30b0>
    800a:	48 8d 0d 6f a0 20 00 	lea    rcx,[rip+0x20a06f]        # 212080 <allocator__Het9ctRSeaVb4hPekZZNCJQ>
    8011:	48 3b 36             	cmp    rsi,QWORD PTR [rsi]
    8014:	0f 84 76 01 00 00    	je     8190 <reallocShared0Impl__IgIebrdwXvKFCSjUIwm6Dg+0x430>
    801a:	4d 8d 4e 20          	lea    r9,[r14+0x20]
    801e:	48 89 35 13 d1 20 00 	mov    QWORD PTR [rip+0x20d113],rsi        # 215138 <allocator__Het9ctRSeaVb4hPekZZNCJQ+0x30b8>
    8025:	4c 3b 4e 10          	cmp    r9,QWORD PTR [rsi+0x10]
    8029:	72 0b                	jb     8036 <reallocShared0Impl__IgIebrdwXvKFCSjUIwm6Dg+0x2d6>
    802b:	48 89 35 fe d0 20 00 	mov    QWORD PTR [rip+0x20d0fe],rsi        # 215130 <allocator__Het9ctRSeaVb4hPekZZNCJQ+0x30b0>
    8032:	48 83 c6 08          	add    rsi,0x8
    8036:	48 89 cf             	mov    rdi,rcx
    8039:	4c 89 ca             	mov    rdx,r9
    803c:	48 89 0c 24          	mov    QWORD PTR [rsp],rcx
    8040:	e8 8b 9e ff ff       	call   1ed0 <del__Io5JDKCS5u26IEWw0J53hQ>
    8045:	48 8b 05 dc d0 20 00 	mov    rax,QWORD PTR [rip+0x20d0dc]        # 215128 <allocator__Het9ctRSeaVb4hPekZZNCJQ+0x30a8>
    804c:	48 3b 05 e5 d0 20 00 	cmp    rax,QWORD PTR [rip+0x20d0e5]        # 215138 <allocator__Het9ctRSeaVb4hPekZZNCJQ+0x30b8>
    8053:	48 8b 0c 24          	mov    rcx,QWORD PTR [rsp]
    8057:	0f 84 c3 03 00 00    	je     8420 <reallocShared0Impl__IgIebrdwXvKFCSjUIwm6Dg+0x6c0>
    805d:	48 8b 78 20          	mov    rdi,QWORD PTR [rax+0x20]
    8061:	48 8b 30             	mov    rsi,QWORD PTR [rax]
    8064:	48 8d 57 ff          	lea    rdx,[rdi-0x1]
    8068:	48 39 56 20          	cmp    QWORD PTR [rsi+0x20],rdx
    806c:	0f 8d 7e 03 00 00    	jge    83f0 <reallocShared0Impl__IgIebrdwXvKFCSjUIwm6Dg+0x690>
    8072:	48 89 50 20          	mov    QWORD PTR [rax+0x20],rdx
    8076:	48 8b 05 ab d0 20 00 	mov    rax,QWORD PTR [rip+0x20d0ab]        # 215128 <allocator__Het9ctRSeaVb4hPekZZNCJQ+0x30a8>
    807d:	48 8b 70 08          	mov    rsi,QWORD PTR [rax+0x8]
    8081:	48 8b 50 20          	mov    rdx,QWORD PTR [rax+0x20]
    8085:	48 3b 56 20          	cmp    rdx,QWORD PTR [rsi+0x20]
    8089:	7d 0f                	jge    809a <reallocShared0Impl__IgIebrdwXvKFCSjUIwm6Dg+0x33a>
    808b:	48 89 56 20          	mov    QWORD PTR [rsi+0x20],rdx
    808f:	48 8b 05 92 d0 20 00 	mov    rax,QWORD PTR [rip+0x20d092]        # 215128 <allocator__Het9ctRSeaVb4hPekZZNCJQ+0x30a8>
    8096:	48 8b 50 20          	mov    rdx,QWORD PTR [rax+0x20]
    809a:	48 8b 30             	mov    rsi,QWORD PTR [rax]
    809d:	48 39 56 20          	cmp    QWORD PTR [rsi+0x20],rdx
    80a1:	75 20                	jne    80c3 <reallocShared0Impl__IgIebrdwXvKFCSjUIwm6Dg+0x363>
    80a3:	48 89 35 7e d0 20 00 	mov    QWORD PTR [rip+0x20d07e],rsi        # 215128 <allocator__Het9ctRSeaVb4hPekZZNCJQ+0x30a8>
    80aa:	48 8b 56 08          	mov    rdx,QWORD PTR [rsi+0x8]
    80ae:	48 89 10             	mov    QWORD PTR [rax],rdx
    80b1:	48 8b 15 70 d0 20 00 	mov    rdx,QWORD PTR [rip+0x20d070]        # 215128 <allocator__Het9ctRSeaVb4hPekZZNCJQ+0x30a8>
    80b8:	48 89 42 08          	mov    QWORD PTR [rdx+0x8],rax
    80bc:	48 8b 05 65 d0 20 00 	mov    rax,QWORD PTR [rip+0x20d065]        # 215128 <allocator__Het9ctRSeaVb4hPekZZNCJQ+0x30a8>
    80c3:	48 8b 50 08          	mov    rdx,QWORD PTR [rax+0x8]
    80c7:	48 8b 32             	mov    rsi,QWORD PTR [rdx]
    80ca:	48 8b 7a 20          	mov    rdi,QWORD PTR [rdx+0x20]
    80ce:	48 39 7e 20          	cmp    QWORD PTR [rsi+0x20],rdi
    80d2:	75 1e                	jne    80f2 <reallocShared0Impl__IgIebrdwXvKFCSjUIwm6Dg+0x392>
    80d4:	48 89 70 08          	mov    QWORD PTR [rax+0x8],rsi
    80d8:	48 8b 76 08          	mov    rsi,QWORD PTR [rsi+0x8]
    80dc:	48 89 32             	mov    QWORD PTR [rdx],rsi
    80df:	48 8b 40 08          	mov    rax,QWORD PTR [rax+0x8]
    80e3:	48 89 50 08          	mov    QWORD PTR [rax+0x8],rdx
    80e7:	48 8b 05 3a d0 20 00 	mov    rax,QWORD PTR [rip+0x20d03a]        # 215128 <allocator__Het9ctRSeaVb4hPekZZNCJQ+0x30a8>
    80ee:	48 8b 50 08          	mov    rdx,QWORD PTR [rax+0x8]
    80f2:	48 8b 72 08          	mov    rsi,QWORD PTR [rdx+0x8]
    80f6:	4c 8b 06             	mov    r8,QWORD PTR [rsi]
    80f9:	48 8b 7e 20          	mov    rdi,QWORD PTR [rsi+0x20]
    80fd:	49 39 78 20          	cmp    QWORD PTR [r8+0x20],rdi
    8101:	75 26                	jne    8129 <reallocShared0Impl__IgIebrdwXvKFCSjUIwm6Dg+0x3c9>
    8103:	4c 89 42 08          	mov    QWORD PTR [rdx+0x8],r8
    8107:	49 8b 40 08          	mov    rax,QWORD PTR [r8+0x8]
    810b:	48 89 06             	mov    QWORD PTR [rsi],rax
    810e:	48 8b 42 08          	mov    rax,QWORD PTR [rdx+0x8]
    8112:	48 89 70 08          	mov    QWORD PTR [rax+0x8],rsi
    8116:	48 8b 05 0b d0 20 00 	mov    rax,QWORD PTR [rip+0x20d00b]        # 215128 <allocator__Het9ctRSeaVb4hPekZZNCJQ+0x30a8>
    811d:	48 8b 50 08          	mov    rdx,QWORD PTR [rax+0x8]
    8121:	48 8b 72 08          	mov    rsi,QWORD PTR [rdx+0x8]
    8125:	48 8b 7e 20          	mov    rdi,QWORD PTR [rsi+0x20]
    8129:	48 39 78 20          	cmp    QWORD PTR [rax+0x20],rdi
    812d:	75 33                	jne    8162 <reallocShared0Impl__IgIebrdwXvKFCSjUIwm6Dg+0x402>
    812f:	48 89 15 f2 cf 20 00 	mov    QWORD PTR [rip+0x20cff2],rdx        # 215128 <allocator__Het9ctRSeaVb4hPekZZNCJQ+0x30a8>
    8136:	48 8b 12             	mov    rdx,QWORD PTR [rdx]
    8139:	48 89 50 08          	mov    QWORD PTR [rax+0x8],rdx
    813d:	48 8b 15 e4 cf 20 00 	mov    rdx,QWORD PTR [rip+0x20cfe4]        # 215128 <allocator__Het9ctRSeaVb4hPekZZNCJQ+0x30a8>
    8144:	48 89 02             	mov    QWORD PTR [rdx],rax
    8147:	48 8b 05 da cf 20 00 	mov    rax,QWORD PTR [rip+0x20cfda]        # 215128 <allocator__Het9ctRSeaVb4hPekZZNCJQ+0x30a8>
    814e:	48 83 40 20 01       	add    QWORD PTR [rax+0x20],0x1
    8153:	48 8b 05 ce cf 20 00 	mov    rax,QWORD PTR [rip+0x20cfce]        # 215128 <allocator__Het9ctRSeaVb4hPekZZNCJQ+0x30a8>
    815a:	48 8b 50 08          	mov    rdx,QWORD PTR [rax+0x8]
    815e:	48 8b 72 08          	mov    rsi,QWORD PTR [rdx+0x8]
    8162:	48 8b 7e 08          	mov    rdi,QWORD PTR [rsi+0x8]
    8166:	4c 8b 5a 20          	mov    r11,QWORD PTR [rdx+0x20]
    816a:	4c 39 5f 20          	cmp    QWORD PTR [rdi+0x20],r11
    816e:	75 20                	jne    8190 <reallocShared0Impl__IgIebrdwXvKFCSjUIwm6Dg+0x430>
    8170:	48 89 70 08          	mov    QWORD PTR [rax+0x8],rsi
    8174:	48 8b 36             	mov    rsi,QWORD PTR [rsi]
    8177:	48 89 72 08          	mov    QWORD PTR [rdx+0x8],rsi
    817b:	48 8b 70 08          	mov    rsi,QWORD PTR [rax+0x8]
    817f:	48 89 16             	mov    QWORD PTR [rsi],rdx
    8182:	48 8b 40 08          	mov    rax,QWORD PTR [rax+0x8]
    8186:	48 83 40 20 01       	add    QWORD PTR [rax+0x20],0x1
    818b:	0f 1f 44 00 00       	nop    DWORD PTR [rax+rax*1+0x0]
    8190:	49 8b 76 08          	mov    rsi,QWORD PTR [r14+0x8]
    8194:	48 81 fe 00 00 00 3f 	cmp    rsi,0x3f000000
    819b:	0f 8f 97 00 00 00    	jg     8238 <reallocShared0Impl__IgIebrdwXvKFCSjUIwm6Dg+0x4d8>
    81a1:	48 8d 3d d8 9e 20 00 	lea    rdi,[rip+0x209ed8]        # 212080 <allocator__Het9ctRSeaVb4hPekZZNCJQ>
    81a8:	4c 89 f6             	mov    rsi,r14
    81ab:	e8 d0 95 ff ff       	call   1780 <freeBigChunk__IPvsryqksLyNxxag3IQr2g>
    81b0:	e9 dd fb ff ff       	jmp    7d92 <reallocShared0Impl__IgIebrdwXvKFCSjUIwm6Dg+0x32>
    81b5:	0f 1f 00             	nop    DWORD PTR [rax]
    81b8:	48 01 c2             	add    rdx,rax
    81bb:	48 81 fa c8 0f 00 00 	cmp    rdx,0xfc8
    81c2:	49 89 56 28          	mov    QWORD PTR [r14+0x28],rdx
    81c6:	0f 85 c6 fb ff ff    	jne    7d92 <reallocShared0Impl__IgIebrdwXvKFCSjUIwm6Dg+0x32>
    81cc:	48 8d 50 07          	lea    rdx,[rax+0x7]
    81d0:	48 85 c0             	test   rax,rax
    81d3:	48 0f 48 c2          	cmovs  rax,rdx
    81d7:	49 8b 56 10          	mov    rdx,QWORD PTR [r14+0x10]
    81db:	48 c1 f8 03          	sar    rax,0x3
    81df:	48 83 c0 02          	add    rax,0x2
    81e3:	4c 3b 34 c1          	cmp    r14,QWORD PTR [rcx+rax*8]
    81e7:	0f 84 1b 03 00 00    	je     8508 <reallocShared0Impl__IgIebrdwXvKFCSjUIwm6Dg+0x7a8>
    81ed:	49 8b 46 18          	mov    rax,QWORD PTR [r14+0x18]
    81f1:	48 89 50 10          	mov    QWORD PTR [rax+0x10],rdx
    81f5:	49 8b 46 10          	mov    rax,QWORD PTR [r14+0x10]
    81f9:	48 85 c0             	test   rax,rax
    81fc:	74 08                	je     8206 <reallocShared0Impl__IgIebrdwXvKFCSjUIwm6Dg+0x4a6>
    81fe:	49 8b 56 18          	mov    rdx,QWORD PTR [r14+0x18]
    8202:	48 89 50 18          	mov    QWORD PTR [rax+0x18],rdx
    8206:	48 8d 3d 73 9e 20 00 	lea    rdi,[rip+0x209e73]        # 212080 <allocator__Het9ctRSeaVb4hPekZZNCJQ>
    820d:	49 c7 46 10 00 00 00 	mov    QWORD PTR [r14+0x10],0x0
    8214:	00 
    8215:	49 c7 46 18 00 00 00 	mov    QWORD PTR [r14+0x18],0x0
    821c:	00 
    821d:	49 c7 46 08 00 10 00 	mov    QWORD PTR [r14+0x8],0x1000
    8224:	00 
    8225:	4c 89 f6             	mov    rsi,r14
    8228:	e8 53 95 ff ff       	call   1780 <freeBigChunk__IPvsryqksLyNxxag3IQr2g>
    822d:	e9 60 fb ff ff       	jmp    7d92 <reallocShared0Impl__IgIebrdwXvKFCSjUIwm6Dg+0x32>
    8232:	66 0f 1f 44 00 00    	nop    WORD PTR [rax+rax*1+0x0]
    8238:	4c 89 f2             	mov    rdx,r14
    823b:	48 c1 fa 15          	sar    rdx,0x15
    823f:	0f b6 c2             	movzx  eax,dl
    8242:	48 8b 84 c1 a8 28 00 	mov    rax,QWORD PTR [rcx+rax*8+0x28a8]
    8249:	00 
    824a:	48 85 c0             	test   rax,rax
    824d:	74 23                	je     8272 <reallocShared0Impl__IgIebrdwXvKFCSjUIwm6Dg+0x512>
    824f:	48 39 50 08          	cmp    QWORD PTR [rax+0x8],rdx
    8253:	75 15                	jne    826a <reallocShared0Impl__IgIebrdwXvKFCSjUIwm6Dg+0x50a>
    8255:	e9 9e 00 00 00       	jmp    82f8 <reallocShared0Impl__IgIebrdwXvKFCSjUIwm6Dg+0x598>
    825a:	66 0f 1f 44 00 00    	nop    WORD PTR [rax+rax*1+0x0]
    8260:	48 3b 50 08          	cmp    rdx,QWORD PTR [rax+0x8]
    8264:	0f 84 8e 00 00 00    	je     82f8 <reallocShared0Impl__IgIebrdwXvKFCSjUIwm6Dg+0x598>
    826a:	48 8b 00             	mov    rax,QWORD PTR [rax]
    826d:	48 85 c0             	test   rax,rax
    8270:	75 ee                	jne    8260 <reallocShared0Impl__IgIebrdwXvKFCSjUIwm6Dg+0x500>
    8272:	48 8b 05 87 c6 20 00 	mov    rax,QWORD PTR [rip+0x20c687]        # 214900 <allocator__Het9ctRSeaVb4hPekZZNCJQ+0x2880>
    8279:	48 39 05 88 c6 20 00 	cmp    QWORD PTR [rip+0x20c688],rax        # 214908 <allocator__Het9ctRSeaVb4hPekZZNCJQ+0x2888>
    8280:	4c 89 f7             	mov    rdi,r14
    8283:	48 89 c2             	mov    rdx,rax
    8286:	48 0f 4d 15 7a c6 20 	cmovge rdx,QWORD PTR [rip+0x20c67a]        # 214908 <allocator__Het9ctRSeaVb4hPekZZNCJQ+0x2888>
    828d:	00 
    828e:	48 29 f0             	sub    rax,rsi
    8291:	48 89 05 68 c6 20 00 	mov    QWORD PTR [rip+0x20c668],rax        # 214900 <allocator__Het9ctRSeaVb4hPekZZNCJQ+0x2880>
    8298:	48 89 15 69 c6 20 00 	mov    QWORD PTR [rip+0x20c669],rdx        # 214908 <allocator__Het9ctRSeaVb4hPekZZNCJQ+0x2888>
    829f:	e8 3c 87 ff ff       	call   9e0 <munmap@plt>
    82a4:	e9 e9 fa ff ff       	jmp    7d92 <reallocShared0Impl__IgIebrdwXvKFCSjUIwm6Dg+0x32>
    82a9:	0f 1f 80 00 00 00 00 	nop    DWORD PTR [rax+0x0]
    82b0:	48 8b 05 a1 ce 20 00 	mov    rax,QWORD PTR [rip+0x20cea1]        # 215158 <allocator__Het9ctRSeaVb4hPekZZNCJQ+0x30d8>
    82b7:	4c 8d 05 9a ce 20 00 	lea    r8,[rip+0x20ce9a]        # 215158 <allocator__Het9ctRSeaVb4hPekZZNCJQ+0x30d8>
    82be:	48 85 c0             	test   rax,rax
    82c1:	0f 84 41 01 00 00    	je     8408 <reallocShared0Impl__IgIebrdwXvKFCSjUIwm6Dg+0x6a8>
    82c7:	4c 89 05 5a ce 20 00 	mov    QWORD PTR [rip+0x20ce5a],r8        # 215128 <allocator__Het9ctRSeaVb4hPekZZNCJQ+0x30a8>
    82ce:	48 8d 35 83 ce 20 00 	lea    rsi,[rip+0x20ce83]        # 215158 <allocator__Het9ctRSeaVb4hPekZZNCJQ+0x30d8>
    82d5:	e9 60 fc ff ff       	jmp    7f3a <reallocShared0Impl__IgIebrdwXvKFCSjUIwm6Dg+0x1da>
    82da:	66 0f 1f 44 00 00    	nop    WORD PTR [rax+rax*1+0x0]
    82e0:	48 8b 50 30          	mov    rdx,QWORD PTR [rax+0x30]
    82e4:	48 8d 6c 10 38       	lea    rbp,[rax+rdx*1+0x38]
    82e9:	4c 01 fa             	add    rdx,r15
    82ec:	48 89 50 30          	mov    QWORD PTR [rax+0x30],rdx
    82f0:	e9 14 fb ff ff       	jmp    7e09 <reallocShared0Impl__IgIebrdwXvKFCSjUIwm6Dg+0xa9>
    82f5:	0f 1f 00             	nop    DWORD PTR [rax]
    82f8:	4c 89 f1             	mov    rcx,r14
    82fb:	ba 01 00 00 00       	mov    edx,0x1
    8300:	48 c1 f9 0c          	sar    rcx,0xc
    8304:	81 e1 ff 01 00 00    	and    ecx,0x1ff
    830a:	48 89 cf             	mov    rdi,rcx
    830d:	48 d3 e2             	shl    rdx,cl
    8310:	48 c1 ff 06          	sar    rdi,0x6
    8314:	48 f7 d2             	not    rdx
    8317:	48 21 54 f8 10       	and    QWORD PTR [rax+rdi*8+0x10],rdx
    831c:	e9 51 ff ff ff       	jmp    8272 <reallocShared0Impl__IgIebrdwXvKFCSjUIwm6Dg+0x512>
    8321:	0f 1f 80 00 00 00 00 	nop    DWORD PTR [rax+0x0]
    8328:	48 83 c6 08          	add    rsi,0x8
    832c:	48 8d 3d 4d 9d 20 00 	lea    rdi,[rip+0x209d4d]        # 212080 <allocator__Het9ctRSeaVb4hPekZZNCJQ>
    8333:	4c 89 f1             	mov    rcx,r14
    8336:	48 89 ea             	mov    rdx,rbp
    8339:	e8 42 d4 ff ff       	call   5780 <add__3D9aOyz4rDquPZKBlqn0xig>
    833e:	48 8b 35 e3 cd 20 00 	mov    rsi,QWORD PTR [rip+0x20cde3]        # 215128 <allocator__Het9ctRSeaVb4hPekZZNCJQ+0x30a8>
    8345:	48 8b 06             	mov    rax,QWORD PTR [rsi]
    8348:	e9 09 fc ff ff       	jmp    7f56 <reallocShared0Impl__IgIebrdwXvKFCSjUIwm6Dg+0x1f6>
    834d:	0f 1f 00             	nop    DWORD PTR [rax]
    8350:	4c 89 05 01 ce 20 00 	mov    QWORD PTR [rip+0x20ce01],r8        # 215158 <allocator__Het9ctRSeaVb4hPekZZNCJQ+0x30d8>
    8357:	4c 89 05 02 ce 20 00 	mov    QWORD PTR [rip+0x20ce02],r8        # 215160 <allocator__Het9ctRSeaVb4hPekZZNCJQ+0x30e0>
    835e:	e9 99 fc ff ff       	jmp    7ffc <reallocShared0Impl__IgIebrdwXvKFCSjUIwm6Dg+0x29c>
    8363:	0f 1f 44 00 00       	nop    DWORD PTR [rax+rax*1+0x0]
    8368:	48 89 cf             	mov    rdi,rcx
    836b:	be 00 10 00 00       	mov    esi,0x1000
    8370:	48 89 0c 24          	mov    QWORD PTR [rsp],rcx
    8374:	e8 97 c6 ff ff       	call   4a10 <getBigChunk__stlXHMKRKFIGOvq8t4ynRQ>
    8379:	48 8b 0c 24          	mov    rcx,QWORD PTR [rsp]
    837d:	ba c8 0f 00 00       	mov    edx,0xfc8
    8382:	48 c7 40 10 00 00 00 	mov    QWORD PTR [rax+0x10],0x0
    8389:	00 
    838a:	4c 29 fa             	sub    rdx,r15
    838d:	48 c7 40 20 00 00 00 	mov    QWORD PTR [rax+0x20],0x0
    8394:	00 
    8395:	4c 89 78 08          	mov    QWORD PTR [rax+0x8],r15
    8399:	4c 89 78 30          	mov    QWORD PTR [rax+0x30],r15
    839d:	48 89 50 28          	mov    QWORD PTR [rax+0x28],rdx
    83a1:	48 c7 40 18 00 00 00 	mov    QWORD PTR [rax+0x18],0x0
    83a8:	00 
    83a9:	4a 8b 14 f1          	mov    rdx,QWORD PTR [rcx+r14*8]
    83ad:	48 89 50 10          	mov    QWORD PTR [rax+0x10],rdx
    83b1:	4a 8b 14 f1          	mov    rdx,QWORD PTR [rcx+r14*8]
    83b5:	48 85 d2             	test   rdx,rdx
    83b8:	74 04                	je     83be <reallocShared0Impl__IgIebrdwXvKFCSjUIwm6Dg+0x65e>
    83ba:	48 89 42 18          	mov    QWORD PTR [rdx+0x18],rax
    83be:	4a 89 04 f1          	mov    QWORD PTR [rcx+r14*8],rax
    83c2:	4c 3b 78 28          	cmp    r15,QWORD PTR [rax+0x28]
    83c6:	48 8d 68 38          	lea    rbp,[rax+0x38]
    83ca:	0f 8e 80 fa ff ff    	jle    7e50 <reallocShared0Impl__IgIebrdwXvKFCSjUIwm6Dg+0xf0>
    83d0:	48 8b 50 10          	mov    rdx,QWORD PTR [rax+0x10]
    83d4:	48 85 d2             	test   rdx,rdx
    83d7:	4a 89 14 f1          	mov    QWORD PTR [rcx+r14*8],rdx
    83db:	0f 84 5f fa ff ff    	je     7e40 <reallocShared0Impl__IgIebrdwXvKFCSjUIwm6Dg+0xe0>
    83e1:	48 c7 42 18 00 00 00 	mov    QWORD PTR [rdx+0x18],0x0
    83e8:	00 
    83e9:	e9 52 fa ff ff       	jmp    7e40 <reallocShared0Impl__IgIebrdwXvKFCSjUIwm6Dg+0xe0>
    83ee:	66 90                	xchg   ax,ax
    83f0:	48 8b 70 08          	mov    rsi,QWORD PTR [rax+0x8]
    83f4:	48 3b 56 20          	cmp    rdx,QWORD PTR [rsi+0x20]
    83f8:	0f 8e 92 fd ff ff    	jle    8190 <reallocShared0Impl__IgIebrdwXvKFCSjUIwm6Dg+0x430>
    83fe:	e9 6f fc ff ff       	jmp    8072 <reallocShared0Impl__IgIebrdwXvKFCSjUIwm6Dg+0x312>
    8403:	0f 1f 44 00 00       	nop    DWORD PTR [rax+rax*1+0x0]
    8408:	4c 89 05 49 cd 20 00 	mov    QWORD PTR [rip+0x20cd49],r8        # 215158 <allocator__Het9ctRSeaVb4hPekZZNCJQ+0x30d8>
    840f:	4c 89 05 4a cd 20 00 	mov    QWORD PTR [rip+0x20cd4a],r8        # 215160 <allocator__Het9ctRSeaVb4hPekZZNCJQ+0x30e0>
    8416:	4c 89 c0             	mov    rax,r8
    8419:	e9 a9 fe ff ff       	jmp    82c7 <reallocShared0Impl__IgIebrdwXvKFCSjUIwm6Dg+0x567>
    841e:	66 90                	xchg   ax,ax
    8420:	48 8b 15 09 cd 20 00 	mov    rdx,QWORD PTR [rip+0x20cd09]        # 215130 <allocator__Het9ctRSeaVb4hPekZZNCJQ+0x30b0>
    8427:	48 3b 12             	cmp    rdx,QWORD PTR [rdx]
    842a:	0f 84 2d fc ff ff    	je     805d <reallocShared0Impl__IgIebrdwXvKFCSjUIwm6Dg+0x2fd>
    8430:	4c 3b 4a 10          	cmp    r9,QWORD PTR [rdx+0x10]
    8434:	0f 85 23 fc ff ff    	jne    805d <reallocShared0Impl__IgIebrdwXvKFCSjUIwm6Dg+0x2fd>
    843a:	48 8b 40 10          	mov    rax,QWORD PTR [rax+0x10]
    843e:	48 89 42 10          	mov    QWORD PTR [rdx+0x10],rax
    8442:	48 8b 05 df cc 20 00 	mov    rax,QWORD PTR [rip+0x20ccdf]        # 215128 <allocator__Het9ctRSeaVb4hPekZZNCJQ+0x30a8>
    8449:	48 8b 50 18          	mov    rdx,QWORD PTR [rax+0x18]
    844d:	48 8b 05 dc cc 20 00 	mov    rax,QWORD PTR [rip+0x20ccdc]        # 215130 <allocator__Het9ctRSeaVb4hPekZZNCJQ+0x30b0>
    8454:	48 89 50 18          	mov    QWORD PTR [rax+0x18],rdx
    8458:	48 83 3d f8 cc 20 00 	cmp    QWORD PTR [rip+0x20ccf8],0x0        # 215158 <allocator__Het9ctRSeaVb4hPekZZNCJQ+0x30d8>
    845f:	00 
    8460:	75 0e                	jne    8470 <reallocShared0Impl__IgIebrdwXvKFCSjUIwm6Dg+0x710>
    8462:	4c 89 05 ef cc 20 00 	mov    QWORD PTR [rip+0x20ccef],r8        # 215158 <allocator__Het9ctRSeaVb4hPekZZNCJQ+0x30d8>
    8469:	4c 89 05 f0 cc 20 00 	mov    QWORD PTR [rip+0x20ccf0],r8        # 215160 <allocator__Het9ctRSeaVb4hPekZZNCJQ+0x30e0>
    8470:	48 8b 05 b1 cc 20 00 	mov    rax,QWORD PTR [rip+0x20ccb1]        # 215128 <allocator__Het9ctRSeaVb4hPekZZNCJQ+0x30a8>
    8477:	4c 89 05 b2 cc 20 00 	mov    QWORD PTR [rip+0x20ccb2],r8        # 215130 <allocator__Het9ctRSeaVb4hPekZZNCJQ+0x30b0>
    847e:	48 8b 15 bb cc 20 00 	mov    rdx,QWORD PTR [rip+0x20ccbb]        # 215140 <allocator__Het9ctRSeaVb4hPekZZNCJQ+0x30c0>
    8485:	48 8b 40 08          	mov    rax,QWORD PTR [rax+0x8]
    8489:	48 89 05 98 cc 20 00 	mov    QWORD PTR [rip+0x20cc98],rax        # 215128 <allocator__Het9ctRSeaVb4hPekZZNCJQ+0x30a8>
    8490:	48 8b 05 a1 cc 20 00 	mov    rax,QWORD PTR [rip+0x20cca1]        # 215138 <allocator__Het9ctRSeaVb4hPekZZNCJQ+0x30b8>
    8497:	48 89 10             	mov    QWORD PTR [rax],rdx
    849a:	48 89 05 9f cc 20 00 	mov    QWORD PTR [rip+0x20cc9f],rax        # 215140 <allocator__Het9ctRSeaVb4hPekZZNCJQ+0x30c0>
    84a1:	e9 ea fc ff ff       	jmp    8190 <reallocShared0Impl__IgIebrdwXvKFCSjUIwm6Dg+0x430>
    84a6:	66 2e 0f 1f 84 00 00 	nop    WORD PTR cs:[rax+rax*1+0x0]
    84ad:	00 00 00 
    84b0:	48 8b 05 89 cc 20 00 	mov    rax,QWORD PTR [rip+0x20cc89]        # 215140 <allocator__Het9ctRSeaVb4hPekZZNCJQ+0x30c0>
    84b7:	48 85 c0             	test   rax,rax
    84ba:	74 66                	je     8522 <reallocShared0Impl__IgIebrdwXvKFCSjUIwm6Dg+0x7c2>
    84bc:	48 8b 10             	mov    rdx,QWORD PTR [rax]
    84bf:	48 89 15 7a cc 20 00 	mov    QWORD PTR [rip+0x20cc7a],rdx        # 215140 <allocator__Het9ctRSeaVb4hPekZZNCJQ+0x30c0>
    84c6:	48 89 68 10          	mov    QWORD PTR [rax+0x10],rbp
    84ca:	4c 89 70 18          	mov    QWORD PTR [rax+0x18],r14
    84ce:	4c 8d 05 83 cc 20 00 	lea    r8,[rip+0x20cc83]        # 215158 <allocator__Het9ctRSeaVb4hPekZZNCJQ+0x30d8>
    84d5:	48 83 3d 7b cc 20 00 	cmp    QWORD PTR [rip+0x20cc7b],0x0        # 215158 <allocator__Het9ctRSeaVb4hPekZZNCJQ+0x30d8>
    84dc:	00 
    84dd:	75 0e                	jne    84ed <reallocShared0Impl__IgIebrdwXvKFCSjUIwm6Dg+0x78d>
    84df:	4c 89 05 72 cc 20 00 	mov    QWORD PTR [rip+0x20cc72],r8        # 215158 <allocator__Het9ctRSeaVb4hPekZZNCJQ+0x30d8>
    84e6:	4c 89 05 73 cc 20 00 	mov    QWORD PTR [rip+0x20cc73],r8        # 215160 <allocator__Het9ctRSeaVb4hPekZZNCJQ+0x30e0>
    84ed:	4c 89 00             	mov    QWORD PTR [rax],r8
    84f0:	4c 89 40 08          	mov    QWORD PTR [rax+0x8],r8
    84f4:	48 c7 40 20 01 00 00 	mov    QWORD PTR [rax+0x20],0x1
    84fb:	00 
    84fc:	48 89 05 25 cc 20 00 	mov    QWORD PTR [rip+0x20cc25],rax        # 215128 <allocator__Het9ctRSeaVb4hPekZZNCJQ+0x30a8>
    8503:	e9 ae fa ff ff       	jmp    7fb6 <reallocShared0Impl__IgIebrdwXvKFCSjUIwm6Dg+0x256>
    8508:	48 85 d2             	test   rdx,rdx
    850b:	48 89 14 c1          	mov    QWORD PTR [rcx+rax*8],rdx
    850f:	0f 84 f1 fc ff ff    	je     8206 <reallocShared0Impl__IgIebrdwXvKFCSjUIwm6Dg+0x4a6>
    8515:	48 c7 42 18 00 00 00 	mov    QWORD PTR [rdx+0x18],0x0
    851c:	00 
    851d:	e9 e4 fc ff ff       	jmp    8206 <reallocShared0Impl__IgIebrdwXvKFCSjUIwm6Dg+0x4a6>
    8522:	4c 8b 15 cf c3 20 00 	mov    r10,QWORD PTR [rip+0x20c3cf]        # 2148f8 <allocator__Het9ctRSeaVb4hPekZZNCJQ+0x2878>
    8529:	4d 85 d2             	test   r10,r10
    852c:	74 3b                	je     8569 <reallocShared0Impl__IgIebrdwXvKFCSjUIwm6Dg+0x809>
    852e:	49 8b 12             	mov    rdx,QWORD PTR [r10]
    8531:	48 83 fa 27          	cmp    rdx,0x27
    8535:	7e 32                	jle    8569 <reallocShared0Impl__IgIebrdwXvKFCSjUIwm6Dg+0x809>
    8537:	49 8b 42 08          	mov    rax,QWORD PTR [r10+0x8]
    853b:	48 83 ea 28          	sub    rdx,0x28
    853f:	49 89 12             	mov    QWORD PTR [r10],rdx
    8542:	66 0f ef c0          	pxor   xmm0,xmm0
    8546:	48 8b 15 ab c3 20 00 	mov    rdx,QWORD PTR [rip+0x20c3ab]        # 2148f8 <allocator__Het9ctRSeaVb4hPekZZNCJQ+0x2878>
    854d:	4c 01 d0             	add    rax,r10
    8550:	48 83 42 08 28       	add    QWORD PTR [rdx+0x8],0x28
    8555:	48 c7 40 20 00 00 00 	mov    QWORD PTR [rax+0x20],0x0
    855c:	00 
    855d:	0f 11 00             	movups XMMWORD PTR [rax],xmm0
    8560:	0f 11 40 10          	movups XMMWORD PTR [rax+0x10],xmm0
    8564:	e9 5d ff ff ff       	jmp    84c6 <reallocShared0Impl__IgIebrdwXvKFCSjUIwm6Dg+0x766>
    8569:	45 31 c9             	xor    r9d,r9d
    856c:	ba 03 00 00 00       	mov    edx,0x3
    8571:	31 ff                	xor    edi,edi
    8573:	41 b8 ff ff ff ff    	mov    r8d,0xffffffff
    8579:	b9 22 00 00 00       	mov    ecx,0x22
    857e:	be 00 10 00 00       	mov    esi,0x1000
    8583:	4c 89 14 24          	mov    QWORD PTR [rsp],r10
    8587:	e8 e4 83 ff ff       	call   970 <mmap@plt>
    858c:	48 8d 50 ff          	lea    rdx,[rax-0x1]
    8590:	4c 8b 14 24          	mov    r10,QWORD PTR [rsp]
    8594:	48 83 fa fd          	cmp    rdx,0xfffffffffffffffd
    8598:	76 13                	jbe    85ad <reallocShared0Impl__IgIebrdwXvKFCSjUIwm6Dg+0x84d>
    859a:	48 89 44 24 08       	mov    QWORD PTR [rsp+0x8],rax
    859f:	e8 5c 8b ff ff       	call   1100 <raiseOutOfMem__mMRdr4sgmnykA9aWeM9aDZlw>
    85a4:	48 8b 44 24 08       	mov    rax,QWORD PTR [rsp+0x8]
    85a9:	4c 8b 14 24          	mov    r10,QWORD PTR [rsp]
    85ad:	48 89 05 44 c3 20 00 	mov    QWORD PTR [rip+0x20c344],rax        # 2148f8 <allocator__Het9ctRSeaVb4hPekZZNCJQ+0x2878>
    85b4:	48 81 05 41 c3 20 00 	add    QWORD PTR [rip+0x20c341],0x1000        # 214900 <allocator__Het9ctRSeaVb4hPekZZNCJQ+0x2880>
    85bb:	00 10 00 00 
    85bf:	48 c7 00 e8 0f 00 00 	mov    QWORD PTR [rax],0xfe8
    85c6:	48 8b 05 2b c3 20 00 	mov    rax,QWORD PTR [rip+0x20c32b]        # 2148f8 <allocator__Het9ctRSeaVb4hPekZZNCJQ+0x2878>
    85cd:	48 c7 40 08 18 00 00 	mov    QWORD PTR [rax+0x8],0x18
    85d4:	00 
    85d5:	48 8b 05 1c c3 20 00 	mov    rax,QWORD PTR [rip+0x20c31c]        # 2148f8 <allocator__Het9ctRSeaVb4hPekZZNCJQ+0x2878>
    85dc:	4c 89 50 10          	mov    QWORD PTR [rax+0x10],r10
    85e0:	4c 8b 15 11 c3 20 00 	mov    r10,QWORD PTR [rip+0x20c311]        # 2148f8 <allocator__Het9ctRSeaVb4hPekZZNCJQ+0x2878>
    85e7:	49 8b 12             	mov    rdx,QWORD PTR [r10]
    85ea:	e9 48 ff ff ff       	jmp    8537 <reallocShared0Impl__IgIebrdwXvKFCSjUIwm6Dg+0x7d7>
    85ef:	90                   	nop

00000000000085f0 <alloc0__UxtcZ3QOXKsB7mMchxUf9cg_2>:
    85f0:	48 8d 46 07          	lea    rax,[rsi+0x7]
    85f4:	41 57                	push   r15
    85f6:	41 56                	push   r14
    85f8:	41 55                	push   r13
    85fa:	41 54                	push   r12
    85fc:	49 89 f5             	mov    r13,rsi
    85ff:	55                   	push   rbp
    8600:	49 89 c6             	mov    r14,rax
    8603:	53                   	push   rbx
    8604:	49 83 e6 f8          	and    r14,0xfffffffffffffff8
    8608:	48 89 fb             	mov    rbx,rdi
    860b:	48 83 ec 18          	sub    rsp,0x18
    860f:	49 81 fe c8 0f 00 00 	cmp    r14,0xfc8
    8616:	0f 8f 7c 00 00 00    	jg     8698 <alloc0__UxtcZ3QOXKsB7mMchxUf9cg_2+0xa8>
    861c:	4a 8d 2c 37          	lea    rbp,[rdi+r14*1]
    8620:	48 8b 45 10          	mov    rax,QWORD PTR [rbp+0x10]
    8624:	48 85 c0             	test   rax,rax
    8627:	0f 84 83 01 00 00    	je     87b0 <alloc0__UxtcZ3QOXKsB7mMchxUf9cg_2+0x1c0>
    862d:	4c 8b 60 20          	mov    r12,QWORD PTR [rax+0x20]
    8631:	4d 85 e4             	test   r12,r12
    8634:	0f 84 f6 01 00 00    	je     8830 <alloc0__UxtcZ3QOXKsB7mMchxUf9cg_2+0x240>
    863a:	49 8b 14 24          	mov    rdx,QWORD PTR [r12]
    863e:	48 89 50 20          	mov    QWORD PTR [rax+0x20],rdx
    8642:	48 8b 50 28          	mov    rdx,QWORD PTR [rax+0x28]
    8646:	4c 29 f2             	sub    rdx,r14
    8649:	49 39 d6             	cmp    r14,rdx
    864c:	48 89 50 28          	mov    QWORD PTR [rax+0x28],rdx
    8650:	7e 37                	jle    8689 <alloc0__UxtcZ3QOXKsB7mMchxUf9cg_2+0x99>
    8652:	48 3b 45 10          	cmp    rax,QWORD PTR [rbp+0x10]
    8656:	48 8b 50 10          	mov    rdx,QWORD PTR [rax+0x10]
    865a:	0f 84 b1 01 00 00    	je     8811 <alloc0__UxtcZ3QOXKsB7mMchxUf9cg_2+0x221>
    8660:	48 8b 48 18          	mov    rcx,QWORD PTR [rax+0x18]
    8664:	48 89 51 10          	mov    QWORD PTR [rcx+0x10],rdx
    8668:	48 8b 50 10          	mov    rdx,QWORD PTR [rax+0x10]
    866c:	48 85 d2             	test   rdx,rdx
    866f:	74 08                	je     8679 <alloc0__UxtcZ3QOXKsB7mMchxUf9cg_2+0x89>
    8671:	48 8b 48 18          	mov    rcx,QWORD PTR [rax+0x18]
    8675:	48 89 4a 18          	mov    QWORD PTR [rdx+0x18],rcx
    8679:	48 c7 40 10 00 00 00 	mov    QWORD PTR [rax+0x10],0x0
    8680:	00 
    8681:	48 c7 40 18 00 00 00 	mov    QWORD PTR [rax+0x18],0x0
    8688:	00 
    8689:	4c 01 b3 98 28 00 00 	add    QWORD PTR [rbx+0x2898],r14
    8690:	e9 bd 00 00 00       	jmp    8752 <alloc0__UxtcZ3QOXKsB7mMchxUf9cg_2+0x162>
    8695:	0f 1f 00             	nop    DWORD PTR [rax]
    8698:	48 8d 6e 20          	lea    rbp,[rsi+0x20]
    869c:	48 81 fd 00 00 00 3f 	cmp    rbp,0x3f000000
    86a3:	48 89 ee             	mov    rsi,rbp
    86a6:	0f 8e c4 00 00 00    	jle    8770 <alloc0__UxtcZ3QOXKsB7mMchxUf9cg_2+0x180>
    86ac:	e8 bf cd ff ff       	call   5470 <getHugeChunk__stlXHMKRKFIGOvq8t4ynRQ_3>
    86b1:	48 8b b3 a8 30 00 00 	mov    rsi,QWORD PTR [rbx+0x30a8]
    86b8:	49 89 c6             	mov    r14,rax
    86bb:	4d 8d 66 20          	lea    r12,[r14+0x20]
    86bf:	48 85 f6             	test   rsi,rsi
    86c2:	0f 84 c4 00 00 00    	je     878c <alloc0__UxtcZ3QOXKsB7mMchxUf9cg_2+0x19c>
    86c8:	48 8b 06             	mov    rax,QWORD PTR [rsi]
    86cb:	4c 01 e5             	add    rbp,r12
    86ce:	48 39 c6             	cmp    rsi,rax
    86d1:	0f 84 99 01 00 00    	je     8870 <alloc0__UxtcZ3QOXKsB7mMchxUf9cg_2+0x280>
    86d7:	4c 3b 66 10          	cmp    r12,QWORD PTR [rsi+0x10]
    86db:	0f 82 6b 01 00 00    	jb     884c <alloc0__UxtcZ3QOXKsB7mMchxUf9cg_2+0x25c>
    86e1:	0f 87 61 01 00 00    	ja     8848 <alloc0__UxtcZ3QOXKsB7mMchxUf9cg_2+0x258>
    86e7:	48 8b 56 20          	mov    rdx,QWORD PTR [rsi+0x20]
    86eb:	48 39 50 20          	cmp    QWORD PTR [rax+0x20],rdx
    86ef:	75 24                	jne    8715 <alloc0__UxtcZ3QOXKsB7mMchxUf9cg_2+0x125>
    86f1:	48 89 83 a8 30 00 00 	mov    QWORD PTR [rbx+0x30a8],rax
    86f8:	48 8b 40 08          	mov    rax,QWORD PTR [rax+0x8]
    86fc:	48 89 06             	mov    QWORD PTR [rsi],rax
    86ff:	48 8b 83 a8 30 00 00 	mov    rax,QWORD PTR [rbx+0x30a8]
    8706:	48 89 70 08          	mov    QWORD PTR [rax+0x8],rsi
    870a:	48 8b b3 a8 30 00 00 	mov    rsi,QWORD PTR [rbx+0x30a8]
    8711:	48 8b 56 20          	mov    rdx,QWORD PTR [rsi+0x20]
    8715:	48 8b 46 08          	mov    rax,QWORD PTR [rsi+0x8]
    8719:	48 8b 48 08          	mov    rcx,QWORD PTR [rax+0x8]
    871d:	48 39 51 20          	cmp    QWORD PTR [rcx+0x20],rdx
    8721:	75 24                	jne    8747 <alloc0__UxtcZ3QOXKsB7mMchxUf9cg_2+0x157>
    8723:	48 89 83 a8 30 00 00 	mov    QWORD PTR [rbx+0x30a8],rax
    872a:	48 8b 00             	mov    rax,QWORD PTR [rax]
    872d:	48 89 46 08          	mov    QWORD PTR [rsi+0x8],rax
    8731:	48 8b 83 a8 30 00 00 	mov    rax,QWORD PTR [rbx+0x30a8]
    8738:	48 89 30             	mov    QWORD PTR [rax],rsi
    873b:	48 8b 83 a8 30 00 00 	mov    rax,QWORD PTR [rbx+0x30a8]
    8742:	48 83 40 20 01       	add    QWORD PTR [rax+0x20],0x1
    8747:	49 8b 46 08          	mov    rax,QWORD PTR [r14+0x8]
    874b:	48 01 83 98 28 00 00 	add    QWORD PTR [rbx+0x2898],rax
    8752:	4c 89 ea             	mov    rdx,r13
    8755:	4c 89 e7             	mov    rdi,r12
    8758:	31 f6                	xor    esi,esi
    875a:	e8 21 82 ff ff       	call   980 <memset@plt>
    875f:	48 83 c4 18          	add    rsp,0x18
    8763:	5b                   	pop    rbx
    8764:	5d                   	pop    rbp
    8765:	41 5c                	pop    r12
    8767:	41 5d                	pop    r13
    8769:	41 5e                	pop    r14
    876b:	41 5f                	pop    r15
    876d:	c3                   	ret    
    876e:	66 90                	xchg   ax,ax
    8770:	e8 9b c2 ff ff       	call   4a10 <getBigChunk__stlXHMKRKFIGOvq8t4ynRQ>
    8775:	48 8b b3 a8 30 00 00 	mov    rsi,QWORD PTR [rbx+0x30a8]
    877c:	49 89 c6             	mov    r14,rax
    877f:	4d 8d 66 20          	lea    r12,[r14+0x20]
    8783:	48 85 f6             	test   rsi,rsi
    8786:	0f 85 3c ff ff ff    	jne    86c8 <alloc0__UxtcZ3QOXKsB7mMchxUf9cg_2+0xd8>
    878c:	48 8b 83 d8 30 00 00 	mov    rax,QWORD PTR [rbx+0x30d8]
    8793:	48 8d b3 d8 30 00 00 	lea    rsi,[rbx+0x30d8]
    879a:	48 85 c0             	test   rax,rax
    879d:	0f 84 2d 01 00 00    	je     88d0 <alloc0__UxtcZ3QOXKsB7mMchxUf9cg_2+0x2e0>
    87a3:	48 89 b3 a8 30 00 00 	mov    QWORD PTR [rbx+0x30a8],rsi
    87aa:	e9 1c ff ff ff       	jmp    86cb <alloc0__UxtcZ3QOXKsB7mMchxUf9cg_2+0xdb>
    87af:	90                   	nop
    87b0:	be 00 10 00 00       	mov    esi,0x1000
    87b5:	e8 56 c2 ff ff       	call   4a10 <getBigChunk__stlXHMKRKFIGOvq8t4ynRQ>
    87ba:	ba c8 0f 00 00       	mov    edx,0xfc8
    87bf:	48 c7 40 10 00 00 00 	mov    QWORD PTR [rax+0x10],0x0
    87c6:	00 
    87c7:	48 c7 40 20 00 00 00 	mov    QWORD PTR [rax+0x20],0x0
    87ce:	00 
    87cf:	4c 29 f2             	sub    rdx,r14
    87d2:	4c 89 70 08          	mov    QWORD PTR [rax+0x8],r14
    87d6:	4c 89 70 30          	mov    QWORD PTR [rax+0x30],r14
    87da:	48 89 50 28          	mov    QWORD PTR [rax+0x28],rdx
    87de:	48 c7 40 18 00 00 00 	mov    QWORD PTR [rax+0x18],0x0
    87e5:	00 
    87e6:	48 8b 55 10          	mov    rdx,QWORD PTR [rbp+0x10]
    87ea:	48 89 50 10          	mov    QWORD PTR [rax+0x10],rdx
    87ee:	48 8b 55 10          	mov    rdx,QWORD PTR [rbp+0x10]
    87f2:	48 85 d2             	test   rdx,rdx
    87f5:	74 04                	je     87fb <alloc0__UxtcZ3QOXKsB7mMchxUf9cg_2+0x20b>
    87f7:	48 89 42 18          	mov    QWORD PTR [rdx+0x18],rax
    87fb:	48 89 45 10          	mov    QWORD PTR [rbp+0x10],rax
    87ff:	4c 3b 70 28          	cmp    r14,QWORD PTR [rax+0x28]
    8803:	4c 8d 60 38          	lea    r12,[rax+0x38]
    8807:	0f 8e 7c fe ff ff    	jle    8689 <alloc0__UxtcZ3QOXKsB7mMchxUf9cg_2+0x99>
    880d:	48 8b 50 10          	mov    rdx,QWORD PTR [rax+0x10]
    8811:	48 85 d2             	test   rdx,rdx
    8814:	48 89 55 10          	mov    QWORD PTR [rbp+0x10],rdx
    8818:	0f 84 5b fe ff ff    	je     8679 <alloc0__UxtcZ3QOXKsB7mMchxUf9cg_2+0x89>
    881e:	48 c7 42 18 00 00 00 	mov    QWORD PTR [rdx+0x18],0x0
    8825:	00 
    8826:	e9 4e fe ff ff       	jmp    8679 <alloc0__UxtcZ3QOXKsB7mMchxUf9cg_2+0x89>
    882b:	0f 1f 44 00 00       	nop    DWORD PTR [rax+rax*1+0x0]
    8830:	48 8b 50 30          	mov    rdx,QWORD PTR [rax+0x30]
    8834:	4c 8d 64 10 38       	lea    r12,[rax+rdx*1+0x38]
    8839:	4c 01 f2             	add    rdx,r14
    883c:	48 89 50 30          	mov    QWORD PTR [rax+0x30],rdx
    8840:	e9 fd fd ff ff       	jmp    8642 <alloc0__UxtcZ3QOXKsB7mMchxUf9cg_2+0x52>
    8845:	0f 1f 00             	nop    DWORD PTR [rax]
    8848:	48 83 c6 08          	add    rsi,0x8
    884c:	48 89 e9             	mov    rcx,rbp
    884f:	4c 89 e2             	mov    rdx,r12
    8852:	48 89 df             	mov    rdi,rbx
    8855:	e8 26 cf ff ff       	call   5780 <add__3D9aOyz4rDquPZKBlqn0xig>
    885a:	48 8b b3 a8 30 00 00 	mov    rsi,QWORD PTR [rbx+0x30a8]
    8861:	48 8b 06             	mov    rax,QWORD PTR [rsi]
    8864:	e9 7e fe ff ff       	jmp    86e7 <alloc0__UxtcZ3QOXKsB7mMchxUf9cg_2+0xf7>
    8869:	0f 1f 80 00 00 00 00 	nop    DWORD PTR [rax+0x0]
    8870:	48 8b 83 c0 30 00 00 	mov    rax,QWORD PTR [rbx+0x30c0]
    8877:	48 85 c0             	test   rax,rax
    887a:	74 74                	je     88f0 <alloc0__UxtcZ3QOXKsB7mMchxUf9cg_2+0x300>
    887c:	48 8b 10             	mov    rdx,QWORD PTR [rax]
    887f:	48 89 93 c0 30 00 00 	mov    QWORD PTR [rbx+0x30c0],rdx
    8886:	4c 89 60 10          	mov    QWORD PTR [rax+0x10],r12
    888a:	48 89 68 18          	mov    QWORD PTR [rax+0x18],rbp
    888e:	48 8d 93 d8 30 00 00 	lea    rdx,[rbx+0x30d8]
    8895:	48 83 bb d8 30 00 00 	cmp    QWORD PTR [rbx+0x30d8],0x0
    889c:	00 
    889d:	75 0e                	jne    88ad <alloc0__UxtcZ3QOXKsB7mMchxUf9cg_2+0x2bd>
    889f:	48 89 93 d8 30 00 00 	mov    QWORD PTR [rbx+0x30d8],rdx
    88a6:	48 89 93 e0 30 00 00 	mov    QWORD PTR [rbx+0x30e0],rdx
    88ad:	48 89 10             	mov    QWORD PTR [rax],rdx
    88b0:	48 89 50 08          	mov    QWORD PTR [rax+0x8],rdx
    88b4:	48 c7 40 20 01 00 00 	mov    QWORD PTR [rax+0x20],0x1
    88bb:	00 
    88bc:	48 89 83 a8 30 00 00 	mov    QWORD PTR [rbx+0x30a8],rax
    88c3:	e9 7f fe ff ff       	jmp    8747 <alloc0__UxtcZ3QOXKsB7mMchxUf9cg_2+0x157>
    88c8:	0f 1f 84 00 00 00 00 	nop    DWORD PTR [rax+rax*1+0x0]
    88cf:	00 
    88d0:	48 89 b3 d8 30 00 00 	mov    QWORD PTR [rbx+0x30d8],rsi
    88d7:	48 89 b3 e0 30 00 00 	mov    QWORD PTR [rbx+0x30e0],rsi
    88de:	48 89 f0             	mov    rax,rsi
    88e1:	e9 bd fe ff ff       	jmp    87a3 <alloc0__UxtcZ3QOXKsB7mMchxUf9cg_2+0x1b3>
    88e6:	66 2e 0f 1f 84 00 00 	nop    WORD PTR cs:[rax+rax*1+0x0]
    88ed:	00 00 00 
    88f0:	4c 8b bb 78 28 00 00 	mov    r15,QWORD PTR [rbx+0x2878]
    88f7:	4d 85 ff             	test   r15,r15
    88fa:	74 3b                	je     8937 <alloc0__UxtcZ3QOXKsB7mMchxUf9cg_2+0x347>
    88fc:	49 8b 17             	mov    rdx,QWORD PTR [r15]
    88ff:	48 83 fa 27          	cmp    rdx,0x27
    8903:	7e 32                	jle    8937 <alloc0__UxtcZ3QOXKsB7mMchxUf9cg_2+0x347>
    8905:	49 8b 47 08          	mov    rax,QWORD PTR [r15+0x8]
    8909:	48 83 ea 28          	sub    rdx,0x28
    890d:	49 89 17             	mov    QWORD PTR [r15],rdx
    8910:	66 0f ef c0          	pxor   xmm0,xmm0
    8914:	48 8b 93 78 28 00 00 	mov    rdx,QWORD PTR [rbx+0x2878]
    891b:	4c 01 f8             	add    rax,r15
    891e:	48 83 42 08 28       	add    QWORD PTR [rdx+0x8],0x28
    8923:	48 c7 40 20 00 00 00 	mov    QWORD PTR [rax+0x20],0x0
    892a:	00 
    892b:	0f 11 00             	movups XMMWORD PTR [rax],xmm0
    892e:	0f 11 40 10          	movups XMMWORD PTR [rax+0x10],xmm0
    8932:	e9 4f ff ff ff       	jmp    8886 <alloc0__UxtcZ3QOXKsB7mMchxUf9cg_2+0x296>
    8937:	45 31 c9             	xor    r9d,r9d
    893a:	ba 03 00 00 00       	mov    edx,0x3
    893f:	31 ff                	xor    edi,edi
    8941:	41 b8 ff ff ff ff    	mov    r8d,0xffffffff
    8947:	b9 22 00 00 00       	mov    ecx,0x22
    894c:	be 00 10 00 00       	mov    esi,0x1000
    8951:	e8 1a 80 ff ff       	call   970 <mmap@plt>
    8956:	48 8d 50 ff          	lea    rdx,[rax-0x1]
    895a:	48 83 fa fd          	cmp    rdx,0xfffffffffffffffd
    895e:	76 0f                	jbe    896f <alloc0__UxtcZ3QOXKsB7mMchxUf9cg_2+0x37f>
    8960:	48 89 44 24 08       	mov    QWORD PTR [rsp+0x8],rax
    8965:	e8 96 87 ff ff       	call   1100 <raiseOutOfMem__mMRdr4sgmnykA9aWeM9aDZlw>
    896a:	48 8b 44 24 08       	mov    rax,QWORD PTR [rsp+0x8]
    896f:	48 89 83 78 28 00 00 	mov    QWORD PTR [rbx+0x2878],rax
    8976:	48 81 83 80 28 00 00 	add    QWORD PTR [rbx+0x2880],0x1000
    897d:	00 10 00 00 
    8981:	48 c7 00 e8 0f 00 00 	mov    QWORD PTR [rax],0xfe8
    8988:	48 8b 83 78 28 00 00 	mov    rax,QWORD PTR [rbx+0x2878]
    898f:	48 c7 40 08 18 00 00 	mov    QWORD PTR [rax+0x8],0x18
    8996:	00 
    8997:	48 8b 83 78 28 00 00 	mov    rax,QWORD PTR [rbx+0x2878]
    899e:	4c 89 78 10          	mov    QWORD PTR [rax+0x10],r15
    89a2:	4c 8b bb 78 28 00 00 	mov    r15,QWORD PTR [rbx+0x2878]
    89a9:	49 8b 17             	mov    rdx,QWORD PTR [r15]
    89ac:	e9 54 ff ff ff       	jmp    8905 <alloc0__UxtcZ3QOXKsB7mMchxUf9cg_2+0x315>
    89b1:	0f 1f 44 00 00       	nop    DWORD PTR [rax+rax*1+0x0]
    89b6:	66 2e 0f 1f 84 00 00 	nop    WORD PTR cs:[rax+rax*1+0x0]
    89bd:	00 00 00 

00000000000089c0 <alloc0Impl__WrVG9abV9chlTLqkiXYLKwUg_3>:
    89c0:	48 8d 47 07          	lea    rax,[rdi+0x7]
    89c4:	41 56                	push   r14
    89c6:	41 55                	push   r13
    89c8:	41 54                	push   r12
    89ca:	55                   	push   rbp
    89cb:	49 89 fd             	mov    r13,rdi
    89ce:	53                   	push   rbx
    89cf:	49 89 c4             	mov    r12,rax
    89d2:	49 83 e4 f8          	and    r12,0xfffffffffffffff8
    89d6:	48 83 ec 10          	sub    rsp,0x10
    89da:	49 81 fc c8 0f 00 00 	cmp    r12,0xfc8
    89e1:	0f 8f 89 00 00 00    	jg     8a70 <alloc0Impl__WrVG9abV9chlTLqkiXYLKwUg_3+0xb0>
    89e7:	48 c1 f8 03          	sar    rax,0x3
    89eb:	4c 8d 35 8e 96 20 00 	lea    r14,[rip+0x20968e]        # 212080 <allocator__Het9ctRSeaVb4hPekZZNCJQ>
    89f2:	48 8d 58 02          	lea    rbx,[rax+0x2]
    89f6:	49 8b 04 de          	mov    rax,QWORD PTR [r14+rbx*8]
    89fa:	48 85 c0             	test   rax,rax
    89fd:	0f 84 5d 01 00 00    	je     8b60 <alloc0Impl__WrVG9abV9chlTLqkiXYLKwUg_3+0x1a0>
    8a03:	48 8b 68 20          	mov    rbp,QWORD PTR [rax+0x20]
    8a07:	48 85 ed             	test   rbp,rbp
    8a0a:	0f 84 00 02 00 00    	je     8c10 <alloc0Impl__WrVG9abV9chlTLqkiXYLKwUg_3+0x250>
    8a10:	48 8b 55 00          	mov    rdx,QWORD PTR [rbp+0x0]
    8a14:	48 89 50 20          	mov    QWORD PTR [rax+0x20],rdx
    8a18:	48 8b 50 28          	mov    rdx,QWORD PTR [rax+0x28]
    8a1c:	4c 29 e2             	sub    rdx,r12
    8a1f:	49 39 d4             	cmp    r12,rdx
    8a22:	48 89 50 28          	mov    QWORD PTR [rax+0x28],rdx
    8a26:	7e 37                	jle    8a5f <alloc0Impl__WrVG9abV9chlTLqkiXYLKwUg_3+0x9f>
    8a28:	49 3b 04 de          	cmp    rax,QWORD PTR [r14+rbx*8]
    8a2c:	48 8b 50 10          	mov    rdx,QWORD PTR [rax+0x10]
    8a30:	0f 84 8e 01 00 00    	je     8bc4 <alloc0Impl__WrVG9abV9chlTLqkiXYLKwUg_3+0x204>
    8a36:	48 8b 48 18          	mov    rcx,QWORD PTR [rax+0x18]
    8a3a:	48 89 51 10          	mov    QWORD PTR [rcx+0x10],rdx
    8a3e:	48 8b 50 10          	mov    rdx,QWORD PTR [rax+0x10]
    8a42:	48 85 d2             	test   rdx,rdx
    8a45:	74 08                	je     8a4f <alloc0Impl__WrVG9abV9chlTLqkiXYLKwUg_3+0x8f>
    8a47:	48 8b 48 18          	mov    rcx,QWORD PTR [rax+0x18]
    8a4b:	48 89 4a 18          	mov    QWORD PTR [rdx+0x18],rcx
    8a4f:	48 c7 40 10 00 00 00 	mov    QWORD PTR [rax+0x10],0x0
    8a56:	00 
    8a57:	48 c7 40 18 00 00 00 	mov    QWORD PTR [rax+0x18],0x0
    8a5e:	00 
    8a5f:	4c 01 25 b2 be 20 00 	add    QWORD PTR [rip+0x20beb2],r12        # 214918 <allocator__Het9ctRSeaVb4hPekZZNCJQ+0x2898>
    8a66:	e9 c8 00 00 00       	jmp    8b33 <alloc0Impl__WrVG9abV9chlTLqkiXYLKwUg_3+0x173>
    8a6b:	0f 1f 44 00 00       	nop    DWORD PTR [rax+rax*1+0x0]
    8a70:	48 8d 5f 20          	lea    rbx,[rdi+0x20]
    8a74:	48 8d 3d 05 96 20 00 	lea    rdi,[rip+0x209605]        # 212080 <allocator__Het9ctRSeaVb4hPekZZNCJQ>
    8a7b:	48 81 fb 00 00 00 3f 	cmp    rbx,0x3f000000
    8a82:	48 89 de             	mov    rsi,rbx
    8a85:	0f 8e c5 00 00 00    	jle    8b50 <alloc0Impl__WrVG9abV9chlTLqkiXYLKwUg_3+0x190>
    8a8b:	e8 e0 c9 ff ff       	call   5470 <getHugeChunk__stlXHMKRKFIGOvq8t4ynRQ_3>
    8a90:	49 89 c4             	mov    r12,rax
    8a93:	48 8b 35 8e c6 20 00 	mov    rsi,QWORD PTR [rip+0x20c68e]        # 215128 <allocator__Het9ctRSeaVb4hPekZZNCJQ+0x30a8>
    8a9a:	49 8d 6c 24 20       	lea    rbp,[r12+0x20]
    8a9f:	48 85 f6             	test   rsi,rsi
    8aa2:	0f 84 38 01 00 00    	je     8be0 <alloc0Impl__WrVG9abV9chlTLqkiXYLKwUg_3+0x220>
    8aa8:	48 8b 06             	mov    rax,QWORD PTR [rsi]
    8aab:	48 01 eb             	add    rbx,rbp
    8aae:	48 39 c6             	cmp    rsi,rax
    8ab1:	0f 84 99 01 00 00    	je     8c50 <alloc0Impl__WrVG9abV9chlTLqkiXYLKwUg_3+0x290>
    8ab7:	48 3b 6e 10          	cmp    rbp,QWORD PTR [rsi+0x10]
    8abb:	0f 82 6b 01 00 00    	jb     8c2c <alloc0Impl__WrVG9abV9chlTLqkiXYLKwUg_3+0x26c>
    8ac1:	0f 87 61 01 00 00    	ja     8c28 <alloc0Impl__WrVG9abV9chlTLqkiXYLKwUg_3+0x268>
    8ac7:	48 8b 56 20          	mov    rdx,QWORD PTR [rsi+0x20]
    8acb:	48 39 50 20          	cmp    QWORD PTR [rax+0x20],rdx
    8acf:	75 24                	jne    8af5 <alloc0Impl__WrVG9abV9chlTLqkiXYLKwUg_3+0x135>
    8ad1:	48 89 05 50 c6 20 00 	mov    QWORD PTR [rip+0x20c650],rax        # 215128 <allocator__Het9ctRSeaVb4hPekZZNCJQ+0x30a8>
    8ad8:	48 8b 40 08          	mov    rax,QWORD PTR [rax+0x8]
    8adc:	48 89 06             	mov    QWORD PTR [rsi],rax
    8adf:	48 8b 05 42 c6 20 00 	mov    rax,QWORD PTR [rip+0x20c642]        # 215128 <allocator__Het9ctRSeaVb4hPekZZNCJQ+0x30a8>
    8ae6:	48 89 70 08          	mov    QWORD PTR [rax+0x8],rsi
    8aea:	48 8b 35 37 c6 20 00 	mov    rsi,QWORD PTR [rip+0x20c637]        # 215128 <allocator__Het9ctRSeaVb4hPekZZNCJQ+0x30a8>
    8af1:	48 8b 56 20          	mov    rdx,QWORD PTR [rsi+0x20]
    8af5:	48 8b 46 08          	mov    rax,QWORD PTR [rsi+0x8]
    8af9:	48 8b 48 08          	mov    rcx,QWORD PTR [rax+0x8]
    8afd:	48 39 51 20          	cmp    QWORD PTR [rcx+0x20],rdx
    8b01:	75 24                	jne    8b27 <alloc0Impl__WrVG9abV9chlTLqkiXYLKwUg_3+0x167>
    8b03:	48 89 05 1e c6 20 00 	mov    QWORD PTR [rip+0x20c61e],rax        # 215128 <allocator__Het9ctRSeaVb4hPekZZNCJQ+0x30a8>
    8b0a:	48 8b 00             	mov    rax,QWORD PTR [rax]
    8b0d:	48 89 46 08          	mov    QWORD PTR [rsi+0x8],rax
    8b11:	48 8b 05 10 c6 20 00 	mov    rax,QWORD PTR [rip+0x20c610]        # 215128 <allocator__Het9ctRSeaVb4hPekZZNCJQ+0x30a8>
    8b18:	48 89 30             	mov    QWORD PTR [rax],rsi
    8b1b:	48 8b 05 06 c6 20 00 	mov    rax,QWORD PTR [rip+0x20c606]        # 215128 <allocator__Het9ctRSeaVb4hPekZZNCJQ+0x30a8>
    8b22:	48 83 40 20 01       	add    QWORD PTR [rax+0x20],0x1
    8b27:	49 8b 44 24 08       	mov    rax,QWORD PTR [r12+0x8]
    8b2c:	48 01 05 e5 bd 20 00 	add    QWORD PTR [rip+0x20bde5],rax        # 214918 <allocator__Het9ctRSeaVb4hPekZZNCJQ+0x2898>
    8b33:	4c 89 ea             	mov    rdx,r13
    8b36:	48 89 ef             	mov    rdi,rbp
    8b39:	31 f6                	xor    esi,esi
    8b3b:	e8 40 7e ff ff       	call   980 <memset@plt>
    8b40:	48 83 c4 10          	add    rsp,0x10
    8b44:	5b                   	pop    rbx
    8b45:	5d                   	pop    rbp
    8b46:	41 5c                	pop    r12
    8b48:	41 5d                	pop    r13
    8b4a:	41 5e                	pop    r14
    8b4c:	c3                   	ret    
    8b4d:	0f 1f 00             	nop    DWORD PTR [rax]
    8b50:	e8 bb be ff ff       	call   4a10 <getBigChunk__stlXHMKRKFIGOvq8t4ynRQ>
    8b55:	49 89 c4             	mov    r12,rax
    8b58:	e9 36 ff ff ff       	jmp    8a93 <alloc0Impl__WrVG9abV9chlTLqkiXYLKwUg_3+0xd3>
    8b5d:	0f 1f 00             	nop    DWORD PTR [rax]
    8b60:	be 00 10 00 00       	mov    esi,0x1000
    8b65:	4c 89 f7             	mov    rdi,r14
    8b68:	e8 a3 be ff ff       	call   4a10 <getBigChunk__stlXHMKRKFIGOvq8t4ynRQ>
    8b6d:	ba c8 0f 00 00       	mov    edx,0xfc8
    8b72:	48 c7 40 10 00 00 00 	mov    QWORD PTR [rax+0x10],0x0
    8b79:	00 
    8b7a:	48 c7 40 20 00 00 00 	mov    QWORD PTR [rax+0x20],0x0
    8b81:	00 
    8b82:	4c 29 e2             	sub    rdx,r12
    8b85:	4c 89 60 08          	mov    QWORD PTR [rax+0x8],r12
    8b89:	4c 89 60 30          	mov    QWORD PTR [rax+0x30],r12
    8b8d:	48 89 50 28          	mov    QWORD PTR [rax+0x28],rdx
    8b91:	48 c7 40 18 00 00 00 	mov    QWORD PTR [rax+0x18],0x0
    8b98:	00 
    8b99:	49 8b 14 de          	mov    rdx,QWORD PTR [r14+rbx*8]
    8b9d:	48 89 50 10          	mov    QWORD PTR [rax+0x10],rdx
    8ba1:	49 8b 14 de          	mov    rdx,QWORD PTR [r14+rbx*8]
    8ba5:	48 85 d2             	test   rdx,rdx
    8ba8:	74 04                	je     8bae <alloc0Impl__WrVG9abV9chlTLqkiXYLKwUg_3+0x1ee>
    8baa:	48 89 42 18          	mov    QWORD PTR [rdx+0x18],rax
    8bae:	49 89 04 de          	mov    QWORD PTR [r14+rbx*8],rax
    8bb2:	4c 3b 60 28          	cmp    r12,QWORD PTR [rax+0x28]
    8bb6:	48 8d 68 38          	lea    rbp,[rax+0x38]
    8bba:	0f 8e 9f fe ff ff    	jle    8a5f <alloc0Impl__WrVG9abV9chlTLqkiXYLKwUg_3+0x9f>
    8bc0:	48 8b 50 10          	mov    rdx,QWORD PTR [rax+0x10]
    8bc4:	48 85 d2             	test   rdx,rdx
    8bc7:	49 89 14 de          	mov    QWORD PTR [r14+rbx*8],rdx
    8bcb:	0f 84 7e fe ff ff    	je     8a4f <alloc0Impl__WrVG9abV9chlTLqkiXYLKwUg_3+0x8f>
    8bd1:	48 c7 42 18 00 00 00 	mov    QWORD PTR [rdx+0x18],0x0
    8bd8:	00 
    8bd9:	e9 71 fe ff ff       	jmp    8a4f <alloc0Impl__WrVG9abV9chlTLqkiXYLKwUg_3+0x8f>
    8bde:	66 90                	xchg   ax,ax
    8be0:	48 8b 05 71 c5 20 00 	mov    rax,QWORD PTR [rip+0x20c571]        # 215158 <allocator__Het9ctRSeaVb4hPekZZNCJQ+0x30d8>
    8be7:	48 8d 15 6a c5 20 00 	lea    rdx,[rip+0x20c56a]        # 215158 <allocator__Het9ctRSeaVb4hPekZZNCJQ+0x30d8>
    8bee:	48 85 c0             	test   rax,rax
    8bf1:	0f 84 b9 00 00 00    	je     8cb0 <alloc0Impl__WrVG9abV9chlTLqkiXYLKwUg_3+0x2f0>
    8bf7:	48 89 15 2a c5 20 00 	mov    QWORD PTR [rip+0x20c52a],rdx        # 215128 <allocator__Het9ctRSeaVb4hPekZZNCJQ+0x30a8>
    8bfe:	48 8d 35 53 c5 20 00 	lea    rsi,[rip+0x20c553]        # 215158 <allocator__Het9ctRSeaVb4hPekZZNCJQ+0x30d8>
    8c05:	e9 a1 fe ff ff       	jmp    8aab <alloc0Impl__WrVG9abV9chlTLqkiXYLKwUg_3+0xeb>
    8c0a:	66 0f 1f 44 00 00    	nop    WORD PTR [rax+rax*1+0x0]
    8c10:	48 8b 50 30          	mov    rdx,QWORD PTR [rax+0x30]
    8c14:	48 8d 6c 10 38       	lea    rbp,[rax+rdx*1+0x38]
    8c19:	4c 01 e2             	add    rdx,r12
    8c1c:	48 89 50 30          	mov    QWORD PTR [rax+0x30],rdx
    8c20:	e9 f3 fd ff ff       	jmp    8a18 <alloc0Impl__WrVG9abV9chlTLqkiXYLKwUg_3+0x58>
    8c25:	0f 1f 00             	nop    DWORD PTR [rax]
    8c28:	48 83 c6 08          	add    rsi,0x8
    8c2c:	48 8d 3d 4d 94 20 00 	lea    rdi,[rip+0x20944d]        # 212080 <allocator__Het9ctRSeaVb4hPekZZNCJQ>
    8c33:	48 89 d9             	mov    rcx,rbx
    8c36:	48 89 ea             	mov    rdx,rbp
    8c39:	e8 42 cb ff ff       	call   5780 <add__3D9aOyz4rDquPZKBlqn0xig>
    8c3e:	48 8b 35 e3 c4 20 00 	mov    rsi,QWORD PTR [rip+0x20c4e3]        # 215128 <allocator__Het9ctRSeaVb4hPekZZNCJQ+0x30a8>
    8c45:	48 8b 06             	mov    rax,QWORD PTR [rsi]
    8c48:	e9 7a fe ff ff       	jmp    8ac7 <alloc0Impl__WrVG9abV9chlTLqkiXYLKwUg_3+0x107>
    8c4d:	0f 1f 00             	nop    DWORD PTR [rax]
    8c50:	48 8b 05 e9 c4 20 00 	mov    rax,QWORD PTR [rip+0x20c4e9]        # 215140 <allocator__Het9ctRSeaVb4hPekZZNCJQ+0x30c0>
    8c57:	48 85 c0             	test   rax,rax
    8c5a:	74 74                	je     8cd0 <alloc0Impl__WrVG9abV9chlTLqkiXYLKwUg_3+0x310>
    8c5c:	48 8b 10             	mov    rdx,QWORD PTR [rax]
    8c5f:	48 89 15 da c4 20 00 	mov    QWORD PTR [rip+0x20c4da],rdx        # 215140 <allocator__Het9ctRSeaVb4hPekZZNCJQ+0x30c0>
    8c66:	48 89 68 10          	mov    QWORD PTR [rax+0x10],rbp
    8c6a:	48 89 58 18          	mov    QWORD PTR [rax+0x18],rbx
    8c6e:	48 8d 15 e3 c4 20 00 	lea    rdx,[rip+0x20c4e3]        # 215158 <allocator__Het9ctRSeaVb4hPekZZNCJQ+0x30d8>
    8c75:	48 83 3d db c4 20 00 	cmp    QWORD PTR [rip+0x20c4db],0x0        # 215158 <allocator__Het9ctRSeaVb4hPekZZNCJQ+0x30d8>
    8c7c:	00 
    8c7d:	75 0e                	jne    8c8d <alloc0Impl__WrVG9abV9chlTLqkiXYLKwUg_3+0x2cd>
    8c7f:	48 89 15 d2 c4 20 00 	mov    QWORD PTR [rip+0x20c4d2],rdx        # 215158 <allocator__Het9ctRSeaVb4hPekZZNCJQ+0x30d8>
    8c86:	48 89 15 d3 c4 20 00 	mov    QWORD PTR [rip+0x20c4d3],rdx        # 215160 <allocator__Het9ctRSeaVb4hPekZZNCJQ+0x30e0>
    8c8d:	48 89 10             	mov    QWORD PTR [rax],rdx
    8c90:	48 89 50 08          	mov    QWORD PTR [rax+0x8],rdx
    8c94:	48 c7 40 20 01 00 00 	mov    QWORD PTR [rax+0x20],0x1
    8c9b:	00 
    8c9c:	48 89 05 85 c4 20 00 	mov    QWORD PTR [rip+0x20c485],rax        # 215128 <allocator__Het9ctRSeaVb4hPekZZNCJQ+0x30a8>
    8ca3:	e9 7f fe ff ff       	jmp    8b27 <alloc0Impl__WrVG9abV9chlTLqkiXYLKwUg_3+0x167>
    8ca8:	0f 1f 84 00 00 00 00 	nop    DWORD PTR [rax+rax*1+0x0]
    8caf:	00 
    8cb0:	48 89 15 a1 c4 20 00 	mov    QWORD PTR [rip+0x20c4a1],rdx        # 215158 <allocator__Het9ctRSeaVb4hPekZZNCJQ+0x30d8>
    8cb7:	48 89 15 a2 c4 20 00 	mov    QWORD PTR [rip+0x20c4a2],rdx        # 215160 <allocator__Het9ctRSeaVb4hPekZZNCJQ+0x30e0>
    8cbe:	48 89 d0             	mov    rax,rdx
    8cc1:	e9 31 ff ff ff       	jmp    8bf7 <alloc0Impl__WrVG9abV9chlTLqkiXYLKwUg_3+0x237>
    8cc6:	66 2e 0f 1f 84 00 00 	nop    WORD PTR cs:[rax+rax*1+0x0]
    8ccd:	00 00 00 
    8cd0:	4c 8b 35 21 bc 20 00 	mov    r14,QWORD PTR [rip+0x20bc21]        # 2148f8 <allocator__Het9ctRSeaVb4hPekZZNCJQ+0x2878>
    8cd7:	4d 85 f6             	test   r14,r14
    8cda:	74 3b                	je     8d17 <alloc0Impl__WrVG9abV9chlTLqkiXYLKwUg_3+0x357>
    8cdc:	49 8b 16             	mov    rdx,QWORD PTR [r14]
    8cdf:	48 83 fa 27          	cmp    rdx,0x27
    8ce3:	7e 32                	jle    8d17 <alloc0Impl__WrVG9abV9chlTLqkiXYLKwUg_3+0x357>
    8ce5:	49 8b 46 08          	mov    rax,QWORD PTR [r14+0x8]
    8ce9:	48 83 ea 28          	sub    rdx,0x28
    8ced:	49 89 16             	mov    QWORD PTR [r14],rdx
    8cf0:	66 0f ef c0          	pxor   xmm0,xmm0
    8cf4:	48 8b 15 fd bb 20 00 	mov    rdx,QWORD PTR [rip+0x20bbfd]        # 2148f8 <allocator__Het9ctRSeaVb4hPekZZNCJQ+0x2878>
    8cfb:	4c 01 f0             	add    rax,r14
    8cfe:	48 83 42 08 28       	add    QWORD PTR [rdx+0x8],0x28
    8d03:	48 c7 40 20 00 00 00 	mov    QWORD PTR [rax+0x20],0x0
    8d0a:	00 
    8d0b:	0f 11 00             	movups XMMWORD PTR [rax],xmm0
    8d0e:	0f 11 40 10          	movups XMMWORD PTR [rax+0x10],xmm0
    8d12:	e9 4f ff ff ff       	jmp    8c66 <alloc0Impl__WrVG9abV9chlTLqkiXYLKwUg_3+0x2a6>
    8d17:	45 31 c9             	xor    r9d,r9d
    8d1a:	ba 03 00 00 00       	mov    edx,0x3
    8d1f:	31 ff                	xor    edi,edi
    8d21:	41 b8 ff ff ff ff    	mov    r8d,0xffffffff
    8d27:	b9 22 00 00 00       	mov    ecx,0x22
    8d2c:	be 00 10 00 00       	mov    esi,0x1000
    8d31:	e8 3a 7c ff ff       	call   970 <mmap@plt>
    8d36:	48 8d 50 ff          	lea    rdx,[rax-0x1]
    8d3a:	48 83 fa fd          	cmp    rdx,0xfffffffffffffffd
    8d3e:	76 0f                	jbe    8d4f <alloc0Impl__WrVG9abV9chlTLqkiXYLKwUg_3+0x38f>
    8d40:	48 89 44 24 08       	mov    QWORD PTR [rsp+0x8],rax
    8d45:	e8 b6 83 ff ff       	call   1100 <raiseOutOfMem__mMRdr4sgmnykA9aWeM9aDZlw>
    8d4a:	48 8b 44 24 08       	mov    rax,QWORD PTR [rsp+0x8]
    8d4f:	48 89 05 a2 bb 20 00 	mov    QWORD PTR [rip+0x20bba2],rax        # 2148f8 <allocator__Het9ctRSeaVb4hPekZZNCJQ+0x2878>
    8d56:	48 81 05 9f bb 20 00 	add    QWORD PTR [rip+0x20bb9f],0x1000        # 214900 <allocator__Het9ctRSeaVb4hPekZZNCJQ+0x2880>
    8d5d:	00 10 00 00 
    8d61:	48 c7 00 e8 0f 00 00 	mov    QWORD PTR [rax],0xfe8
    8d68:	48 8b 05 89 bb 20 00 	mov    rax,QWORD PTR [rip+0x20bb89]        # 2148f8 <allocator__Het9ctRSeaVb4hPekZZNCJQ+0x2878>
    8d6f:	48 c7 40 08 18 00 00 	mov    QWORD PTR [rax+0x8],0x18
    8d76:	00 
    8d77:	48 8b 05 7a bb 20 00 	mov    rax,QWORD PTR [rip+0x20bb7a]        # 2148f8 <allocator__Het9ctRSeaVb4hPekZZNCJQ+0x2878>
    8d7e:	4c 89 70 10          	mov    QWORD PTR [rax+0x10],r14
    8d82:	4c 8b 35 6f bb 20 00 	mov    r14,QWORD PTR [rip+0x20bb6f]        # 2148f8 <allocator__Het9ctRSeaVb4hPekZZNCJQ+0x2878>
    8d89:	49 8b 16             	mov    rdx,QWORD PTR [r14]
    8d8c:	e9 54 ff ff ff       	jmp    8ce5 <alloc0Impl__WrVG9abV9chlTLqkiXYLKwUg_3+0x325>
    8d91:	0f 1f 44 00 00       	nop    DWORD PTR [rax+rax*1+0x0]
    8d96:	66 2e 0f 1f 84 00 00 	nop    WORD PTR cs:[rax+rax*1+0x0]
    8d9d:	00 00 00 

0000000000008da0 <chckNil>:
    8da0:	48 85 ff             	test   rdi,rdi
    8da3:	74 0b                	je     8db0 <chckNil+0x10>
    8da5:	f3 c3                	repz ret 
    8da7:	66 0f 1f 84 00 00 00 	nop    WORD PTR [rax+rax*1+0x0]
    8dae:	00 00 
    8db0:	41 54                	push   r12
    8db2:	55                   	push   rbp
    8db3:	48 8d 3d c6 92 20 00 	lea    rdi,[rip+0x2092c6]        # 212080 <allocator__Het9ctRSeaVb4hPekZZNCJQ>
    8dba:	53                   	push   rbx
    8dbb:	be 50 00 00 00       	mov    esi,0x50
    8dc0:	48 83 ec 20          	sub    rsp,0x20
    8dc4:	48 c7 05 41 c6 20 00 	mov    QWORD PTR [rip+0x20c641],0x0        # 215410 <nimInErrorMode__759bT87luu8XGcbkw13FUjA>
    8dcb:	00 00 00 00 
    8dcf:	e8 7c cb ff ff       	call   5950 <rawAlloc__mE4QEVyMvGRVliDWDngZCQ>
    8dd4:	66 0f ef c0          	pxor   xmm0,xmm0
    8dd8:	48 8d 58 08          	lea    rbx,[rax+0x8]
    8ddc:	48 8d 0d 3d c6 20 00 	lea    rcx,[rip+0x20c63d]        # 215420 <NTI__GOcOTSJVFwA9bjh66gBCclQ_>
    8de3:	48 8d 35 78 64 00 00 	lea    rsi,[rip+0x6478]        # f262 <_IO_stdin_used+0x22>
    8dea:	48 8d 15 80 64 00 00 	lea    rdx,[rip+0x6480]        # f271 <_IO_stdin_used+0x31>
    8df1:	48 c7 44 24 08 31 00 	mov    QWORD PTR [rsp+0x8],0x31
    8df8:	00 00 
    8dfa:	48 83 ec 08          	sub    rsp,0x8
    8dfe:	48 8d 78 30          	lea    rdi,[rax+0x30]
    8e02:	0f 11 00             	movups XMMWORD PTR [rax],xmm0
    8e05:	48 89 48 08          	mov    QWORD PTR [rax+0x8],rcx
    8e09:	48 8d 0d 30 67 00 00 	lea    rcx,[rip+0x6730]        # f540 <TM__Q5wkpxktOdTGvlSRo9bzt9aw_49>
    8e10:	48 89 54 24 08       	mov    QWORD PTR [rsp+0x8],rdx
    8e15:	0f 11 40 10          	movups XMMWORD PTR [rax+0x10],xmm0
    8e19:	0f 11 40 30          	movups XMMWORD PTR [rax+0x30],xmm0
    8e1d:	0f 11 40 40          	movups XMMWORD PTR [rax+0x40],xmm0
    8e21:	48 89 73 10          	mov    QWORD PTR [rbx+0x10],rsi
    8e25:	48 8d 35 4e 64 00 00 	lea    rsi,[rip+0x644e]        # f27a <_IO_stdin_used+0x3a>
    8e2c:	48 c7 43 18 21 00 00 	mov    QWORD PTR [rbx+0x18],0x21
    8e33:	00 
    8e34:	48 89 4b 20          	mov    QWORD PTR [rbx+0x20],rcx
    8e38:	48 89 74 24 18       	mov    QWORD PTR [rsp+0x18],rsi
    8e3d:	ff 74 24 18          	push   QWORD PTR [rsp+0x18]
    8e41:	ff 74 24 18          	push   QWORD PTR [rsp+0x18]
    8e45:	52                   	push   rdx
    8e46:	e8 a5 2b 00 00       	call   b9f0 <add__VHIeeMfqavFfKtbV1Wal0Q>
    8e4b:	48 8b 05 06 c6 20 00 	mov    rax,QWORD PTR [rip+0x20c606]        # 215458 <localRaiseHook__EIvMhANBvB9cp2Ezvt29cADg>
    8e52:	48 83 c4 20          	add    rsp,0x20
    8e56:	48 85 c0             	test   rax,rax
    8e59:	74 0d                	je     8e68 <chckNil+0xc8>
    8e5b:	48 89 df             	mov    rdi,rbx
    8e5e:	ff d0                	call   rax
    8e60:	84 c0                	test   al,al
    8e62:	0f 84 d0 00 00 00    	je     8f38 <chckNil+0x198>
    8e68:	48 8b 05 49 c5 20 00 	mov    rax,QWORD PTR [rip+0x20c549]        # 2153b8 <globalRaiseHook__JbO1ti4ULxrw54m4zNPbpA>
    8e6f:	48 85 c0             	test   rax,rax
    8e72:	74 0d                	je     8e81 <chckNil+0xe1>
    8e74:	48 89 df             	mov    rdi,rbx
    8e77:	ff d0                	call   rax
    8e79:	84 c0                	test   al,al
    8e7b:	0f 84 b7 00 00 00    	je     8f38 <chckNil+0x198>
    8e81:	48 8b 2d e0 91 20 00 	mov    rbp,QWORD PTR [rip+0x2091e0]        # 212068 <currException__9bVPeDJlYTi9bQApZpfH8wjg>
    8e88:	48 8b 05 81 c5 20 00 	mov    rax,QWORD PTR [rip+0x20c581]        # 215410 <nimInErrorMode__759bT87luu8XGcbkw13FUjA>
    8e8f:	48 39 eb             	cmp    rbx,rbp
    8e92:	0f 84 86 00 00 00    	je     8f1e <chckNil+0x17e>
    8e98:	48 85 ed             	test   rbp,rbp
    8e9b:	74 12                	je     8eaf <chckNil+0x10f>
    8e9d:	48 8b 45 f8          	mov    rax,QWORD PTR [rbp-0x8]
    8ea1:	48 83 c0 08          	add    rax,0x8
    8ea5:	0f 80 1e 01 00 00    	jo     8fc9 <chckNil+0x229>
    8eab:	48 89 45 f8          	mov    QWORD PTR [rbp-0x8],rax
    8eaf:	48 8b 7b 40          	mov    rdi,QWORD PTR [rbx+0x40]
    8eb3:	48 85 ff             	test   rdi,rdi
    8eb6:	74 22                	je     8eda <chckNil+0x13a>
    8eb8:	48 8b 47 f8          	mov    rax,QWORD PTR [rdi-0x8]
    8ebc:	4c 8d 67 f8          	lea    r12,[rdi-0x8]
    8ec0:	48 a9 f8 ff ff ff    	test   rax,0xfffffffffffffff8
    8ec6:	0f 84 84 00 00 00    	je     8f50 <chckNil+0x1b0>
    8ecc:	48 83 e8 08          	sub    rax,0x8
    8ed0:	0f 80 fd 00 00 00    	jo     8fd3 <chckNil+0x233>
    8ed6:	48 89 47 f8          	mov    QWORD PTR [rdi-0x8],rax
    8eda:	48 8b 3d 87 91 20 00 	mov    rdi,QWORD PTR [rip+0x209187]        # 212068 <currException__9bVPeDJlYTi9bQApZpfH8wjg>
    8ee1:	48 89 6b 40          	mov    QWORD PTR [rbx+0x40],rbp
    8ee5:	48 85 ff             	test   rdi,rdi
    8ee8:	0f 84 cf 00 00 00    	je     8fbd <chckNil+0x21d>
    8eee:	48 8b 47 f8          	mov    rax,QWORD PTR [rdi-0x8]
    8ef2:	48 8d 6f f8          	lea    rbp,[rdi-0x8]
    8ef6:	48 a9 f8 ff ff ff    	test   rax,0xfffffffffffffff8
    8efc:	0f 84 7e 00 00 00    	je     8f80 <chckNil+0x1e0>
    8f02:	48 83 e8 08          	sub    rax,0x8
    8f06:	0f 80 ac 00 00 00    	jo     8fb8 <chckNil+0x218>
    8f0c:	48 89 47 f8          	mov    QWORD PTR [rdi-0x8],rax
    8f10:	48 8b 05 f9 c4 20 00 	mov    rax,QWORD PTR [rip+0x20c4f9]        # 215410 <nimInErrorMode__759bT87luu8XGcbkw13FUjA>
    8f17:	48 89 1d 4a 91 20 00 	mov    QWORD PTR [rip+0x20914a],rbx        # 212068 <currException__9bVPeDJlYTi9bQApZpfH8wjg>
    8f1e:	48 83 c0 01          	add    rax,0x1
    8f22:	48 89 05 e7 c4 20 00 	mov    QWORD PTR [rip+0x20c4e7],rax        # 215410 <nimInErrorMode__759bT87luu8XGcbkw13FUjA>
    8f29:	48 83 c4 20          	add    rsp,0x20
    8f2d:	5b                   	pop    rbx
    8f2e:	5d                   	pop    rbp
    8f2f:	41 5c                	pop    r12
    8f31:	c3                   	ret    
    8f32:	66 0f 1f 44 00 00    	nop    WORD PTR [rax+rax*1+0x0]
    8f38:	48 8b 05 d1 c4 20 00 	mov    rax,QWORD PTR [rip+0x20c4d1]        # 215410 <nimInErrorMode__759bT87luu8XGcbkw13FUjA>
    8f3f:	48 89 05 ca c4 20 00 	mov    QWORD PTR [rip+0x20c4ca],rax        # 215410 <nimInErrorMode__759bT87luu8XGcbkw13FUjA>
    8f46:	48 83 c4 20          	add    rsp,0x20
    8f4a:	5b                   	pop    rbx
    8f4b:	5d                   	pop    rbp
    8f4c:	41 5c                	pop    r12
    8f4e:	c3                   	ret    
    8f4f:	90                   	nop
    8f50:	48 8b 07             	mov    rax,QWORD PTR [rdi]
    8f53:	48 8b 00             	mov    rax,QWORD PTR [rax]
    8f56:	48 85 c0             	test   rax,rax
    8f59:	74 10                	je     8f6b <chckNil+0x1cb>
    8f5b:	ff d0                	call   rax
    8f5d:	48 83 3d ab c4 20 00 	cmp    QWORD PTR [rip+0x20c4ab],0x0        # 215410 <nimInErrorMode__759bT87luu8XGcbkw13FUjA>
    8f64:	00 
    8f65:	0f 85 6f ff ff ff    	jne    8eda <chckNil+0x13a>
    8f6b:	48 8d 3d 0e 91 20 00 	lea    rdi,[rip+0x20910e]        # 212080 <allocator__Het9ctRSeaVb4hPekZZNCJQ>
    8f72:	4c 89 e6             	mov    rsi,r12
    8f75:	e8 06 92 ff ff       	call   2180 <rawDealloc__K7uQ6aTKvW6OnOV8EMoNNQ>
    8f7a:	e9 5b ff ff ff       	jmp    8eda <chckNil+0x13a>
    8f7f:	90                   	nop
    8f80:	48 8b 07             	mov    rax,QWORD PTR [rdi]
    8f83:	48 8b 00             	mov    rax,QWORD PTR [rax]
    8f86:	48 85 c0             	test   rax,rax
    8f89:	74 12                	je     8f9d <chckNil+0x1fd>
    8f8b:	ff d0                	call   rax
    8f8d:	48 8b 05 7c c4 20 00 	mov    rax,QWORD PTR [rip+0x20c47c]        # 215410 <nimInErrorMode__759bT87luu8XGcbkw13FUjA>
    8f94:	48 85 c0             	test   rax,rax
    8f97:	0f 85 7a ff ff ff    	jne    8f17 <chckNil+0x177>
    8f9d:	48 8d 3d dc 90 20 00 	lea    rdi,[rip+0x2090dc]        # 212080 <allocator__Het9ctRSeaVb4hPekZZNCJQ>
    8fa4:	48 89 ee             	mov    rsi,rbp
    8fa7:	e8 d4 91 ff ff       	call   2180 <rawDealloc__K7uQ6aTKvW6OnOV8EMoNNQ>
    8fac:	48 8b 05 5d c4 20 00 	mov    rax,QWORD PTR [rip+0x20c45d]        # 215410 <nimInErrorMode__759bT87luu8XGcbkw13FUjA>
    8fb3:	e9 5f ff ff ff       	jmp    8f17 <chckNil+0x177>
    8fb8:	e8 83 08 00 00       	call   9840 <raiseOverflow>
    8fbd:	48 8b 05 4c c4 20 00 	mov    rax,QWORD PTR [rip+0x20c44c]        # 215410 <nimInErrorMode__759bT87luu8XGcbkw13FUjA>
    8fc4:	e9 4e ff ff ff       	jmp    8f17 <chckNil+0x177>
    8fc9:	e8 72 08 00 00       	call   9840 <raiseOverflow>
    8fce:	e9 dc fe ff ff       	jmp    8eaf <chckNil+0x10f>
    8fd3:	e8 68 08 00 00       	call   9840 <raiseOverflow>
    8fd8:	e9 fd fe ff ff       	jmp    8eda <chckNil+0x13a>
    8fdd:	0f 1f 00             	nop    DWORD PTR [rax]

0000000000008fe0 <raiseRangeErrorI>:
    8fe0:	41 57                	push   r15
    8fe2:	66 0f ef c0          	pxor   xmm0,xmm0
    8fe6:	41 56                	push   r14
    8fe8:	41 55                	push   r13
    8fea:	49 89 d5             	mov    r13,rdx
    8fed:	41 54                	push   r12
    8fef:	55                   	push   rbp
    8ff0:	49 89 fc             	mov    r12,rdi
    8ff3:	53                   	push   rbx
    8ff4:	48 8d 3d 85 90 20 00 	lea    rdi,[rip+0x209085]        # 212080 <allocator__Het9ctRSeaVb4hPekZZNCJQ>
    8ffb:	48 89 f5             	mov    rbp,rsi
    8ffe:	be 29 00 00 00       	mov    esi,0x29
    9003:	48 83 ec 68          	sub    rsp,0x68
    9007:	48 c7 05 fe c3 20 00 	mov    QWORD PTR [rip+0x20c3fe],0x0        # 215410 <nimInErrorMode__759bT87luu8XGcbkw13FUjA>
    900e:	00 00 00 00 
    9012:	64 48 8b 04 25 28 00 	mov    rax,QWORD PTR fs:0x28
    9019:	00 00 
    901b:	48 89 44 24 58       	mov    QWORD PTR [rsp+0x58],rax
    9020:	31 c0                	xor    eax,eax
    9022:	0f 29 44 24 40       	movaps XMMWORD PTR [rsp+0x40],xmm0
    9027:	48 c7 44 24 30 00 00 	mov    QWORD PTR [rsp+0x30],0x0
    902e:	00 00 
    9030:	48 c7 44 24 38 00 00 	mov    QWORD PTR [rsp+0x38],0x0
    9037:	00 00 
    9039:	4c 8d 7c 24 40       	lea    r15,[rsp+0x40]
    903e:	0f 29 04 24          	movaps XMMWORD PTR [rsp],xmm0
    9042:	e8 09 c9 ff ff       	call   5950 <rawAlloc__mE4QEVyMvGRVliDWDngZCQ>
    9047:	4c 89 ff             	mov    rdi,r15
    904a:	48 89 c3             	mov    rbx,rax
    904d:	66 0f 6f 04 24       	movdqa xmm0,XMMWORD PTR [rsp]
    9052:	c6 40 28 00          	mov    BYTE PTR [rax+0x28],0x0
    9056:	48 c7 00 20 00 00 00 	mov    QWORD PTR [rax],0x20
    905d:	0f 11 40 08          	movups XMMWORD PTR [rax+0x8],xmm0
    9061:	0f 11 40 18          	movups XMMWORD PTR [rax+0x18],xmm0
    9065:	0f 29 44 24 10       	movaps XMMWORD PTR [rsp+0x10],xmm0
    906a:	e8 31 fd ff ff       	call   8da0 <chckNil>
    906f:	4c 89 e6             	mov    rsi,r12
    9072:	48 89 5c 24 38       	mov    QWORD PTR [rsp+0x38],rbx
    9077:	48 8d 5c 24 30       	lea    rbx,[rsp+0x30]
    907c:	48 c7 44 24 30 00 00 	mov    QWORD PTR [rsp+0x30],0x0
    9083:	00 00 
    9085:	48 89 df             	mov    rdi,rbx
    9088:	e8 03 26 00 00       	call   b690 <addInt__mftMOxbyu0h4yByfs3sqjA>
    908d:	48 8b 44 24 38       	mov    rax,QWORD PTR [rsp+0x38]
    9092:	48 8d 3d e7 8f 20 00 	lea    rdi,[rip+0x208fe7]        # 212080 <allocator__Het9ctRSeaVb4hPekZZNCJQ>
    9099:	be 29 00 00 00       	mov    esi,0x29
    909e:	66 0f 6f 44 24 10    	movdqa xmm0,XMMWORD PTR [rsp+0x10]
    90a4:	4c 8b 64 24 30       	mov    r12,QWORD PTR [rsp+0x30]
    90a9:	48 c7 44 24 38 00 00 	mov    QWORD PTR [rsp+0x38],0x0
    90b0:	00 00 
    90b2:	0f 29 44 24 40       	movaps XMMWORD PTR [rsp+0x40],xmm0
    90b7:	48 89 04 24          	mov    QWORD PTR [rsp],rax
    90bb:	48 c7 44 24 30 00 00 	mov    QWORD PTR [rsp+0x30],0x0
    90c2:	00 00 
    90c4:	e8 87 c8 ff ff       	call   5950 <rawAlloc__mE4QEVyMvGRVliDWDngZCQ>
    90c9:	4c 89 ff             	mov    rdi,r15
    90cc:	49 89 c6             	mov    r14,rax
    90cf:	66 0f 6f 44 24 10    	movdqa xmm0,XMMWORD PTR [rsp+0x10]
    90d5:	c6 40 28 00          	mov    BYTE PTR [rax+0x28],0x0
    90d9:	48 c7 00 20 00 00 00 	mov    QWORD PTR [rax],0x20
    90e0:	0f 11 40 08          	movups XMMWORD PTR [rax+0x8],xmm0
    90e4:	0f 11 40 18          	movups XMMWORD PTR [rax+0x18],xmm0
    90e8:	0f 29 44 24 20       	movaps XMMWORD PTR [rsp+0x20],xmm0
    90ed:	e8 ae fc ff ff       	call   8da0 <chckNil>
    90f2:	48 89 ee             	mov    rsi,rbp
    90f5:	48 89 df             	mov    rdi,rbx
    90f8:	4c 89 74 24 38       	mov    QWORD PTR [rsp+0x38],r14
    90fd:	48 c7 44 24 30 00 00 	mov    QWORD PTR [rsp+0x30],0x0
    9104:	00 00 
    9106:	e8 85 25 00 00       	call   b690 <addInt__mftMOxbyu0h4yByfs3sqjA>
    910b:	48 8b 44 24 38       	mov    rax,QWORD PTR [rsp+0x38]
    9110:	48 8d 3d 69 8f 20 00 	lea    rdi,[rip+0x208f69]        # 212080 <allocator__Het9ctRSeaVb4hPekZZNCJQ>
    9117:	be 29 00 00 00       	mov    esi,0x29
    911c:	66 0f 6f 44 24 20    	movdqa xmm0,XMMWORD PTR [rsp+0x20]
    9122:	48 8b 6c 24 30       	mov    rbp,QWORD PTR [rsp+0x30]
    9127:	48 c7 44 24 38 00 00 	mov    QWORD PTR [rsp+0x38],0x0
    912e:	00 00 
    9130:	0f 29 44 24 40       	movaps XMMWORD PTR [rsp+0x40],xmm0
    9135:	48 89 44 24 10       	mov    QWORD PTR [rsp+0x10],rax
    913a:	48 c7 44 24 30 00 00 	mov    QWORD PTR [rsp+0x30],0x0
    9141:	00 00 
    9143:	e8 08 c8 ff ff       	call   5950 <rawAlloc__mE4QEVyMvGRVliDWDngZCQ>
    9148:	4c 89 ff             	mov    rdi,r15
    914b:	49 89 c6             	mov    r14,rax
    914e:	66 0f 6f 44 24 20    	movdqa xmm0,XMMWORD PTR [rsp+0x20]
    9154:	c6 40 28 00          	mov    BYTE PTR [rax+0x28],0x0
    9158:	48 c7 00 20 00 00 00 	mov    QWORD PTR [rax],0x20
    915f:	0f 11 40 08          	movups XMMWORD PTR [rax+0x8],xmm0
    9163:	0f 11 40 18          	movups XMMWORD PTR [rax+0x18],xmm0
    9167:	e8 34 fc ff ff       	call   8da0 <chckNil>
    916c:	4c 89 ee             	mov    rsi,r13
    916f:	48 89 df             	mov    rdi,rbx
    9172:	4c 89 74 24 38       	mov    QWORD PTR [rsp+0x38],r14
    9177:	48 c7 44 24 30 00 00 	mov    QWORD PTR [rsp+0x30],0x0
    917e:	00 00 
    9180:	e8 0b 25 00 00       	call   b690 <addInt__mftMOxbyu0h4yByfs3sqjA>
    9185:	48 8b 5c 24 30       	mov    rbx,QWORD PTR [rsp+0x30]
    918a:	49 8d 04 2c          	lea    rax,[r12+rbp*1]
    918e:	4c 8b 7c 24 38       	mov    r15,QWORD PTR [rsp+0x38]
    9193:	48 8d 7c 03 1f       	lea    rdi,[rbx+rax*1+0x1f]
    9198:	e8 f3 08 00 00       	call   9a90 <rawNewString>
    919d:	4c 8d 44 10 08       	lea    r8,[rax+rdx*1+0x8]
    91a2:	49 89 c5             	mov    r13,rax
    91a5:	8b 05 4d 64 00 00    	mov    eax,DWORD PTR [rip+0x644d]        # f5f8 <TM__Q5wkpxktOdTGvlSRo9bzt9aw_7+0x18>
    91ab:	f3 0f 6f 05 35 64 00 	movdqu xmm0,XMMWORD PTR [rip+0x6435]        # f5e8 <TM__Q5wkpxktOdTGvlSRo9bzt9aw_7+0x8>
    91b2:	00 
    91b3:	49 89 d6             	mov    r14,rdx
    91b6:	41 89 40 10          	mov    DWORD PTR [r8+0x10],eax
    91ba:	0f b6 05 3b 64 00 00 	movzx  eax,BYTE PTR [rip+0x643b]        # f5fc <TM__Q5wkpxktOdTGvlSRo9bzt9aw_7+0x1c>
    91c1:	41 0f 11 00          	movups XMMWORD PTR [r8],xmm0
    91c5:	41 88 40 14          	mov    BYTE PTR [r8+0x14],al
    91c9:	4c 89 e8             	mov    rax,r13
    91cc:	48 83 c0 14          	add    rax,0x14
    91d0:	0f 80 69 03 00 00    	jo     953f <raiseRangeErrorI+0x55f>
    91d6:	4c 8d 44 10 08       	lea    r8,[rax+rdx*1+0x8]
    91db:	49 89 c5             	mov    r13,rax
    91de:	4d 85 e4             	test   r12,r12
    91e1:	7e 3a                	jle    921d <raiseRangeErrorI+0x23d>
    91e3:	4c 89 e2             	mov    rdx,r12
    91e6:	48 83 c2 01          	add    rdx,0x1
    91ea:	0f 80 3b 03 00 00    	jo     952b <raiseRangeErrorI+0x54b>
    91f0:	48 85 d2             	test   rdx,rdx
    91f3:	0f 88 97 02 00 00    	js     9490 <raiseRangeErrorI+0x4b0>
    91f9:	48 8b 04 24          	mov    rax,QWORD PTR [rsp]
    91fd:	4c 89 c7             	mov    rdi,r8
    9200:	48 8d 70 08          	lea    rsi,[rax+0x8]
    9204:	e8 b7 77 ff ff       	call   9c0 <memcpy@plt>
    9209:	4d 01 ec             	add    r12,r13
    920c:	49 89 c0             	mov    r8,rax
    920f:	0f 80 16 03 00 00    	jo     952b <raiseRangeErrorI+0x54b>
    9215:	4f 8d 44 34 08       	lea    r8,[r12+r14*1+0x8]
    921a:	4d 89 e5             	mov    r13,r12
    921d:	48 b8 20 6e 6f 74 69 	movabs rax,0x206e69746f6e20
    9224:	6e 20 00 
    9227:	49 89 00             	mov    QWORD PTR [r8],rax
    922a:	4c 89 e8             	mov    rax,r13
    922d:	48 83 c0 07          	add    rax,0x7
    9231:	0f 80 b3 02 00 00    	jo     94ea <raiseRangeErrorI+0x50a>
    9237:	4e 8d 44 30 08       	lea    r8,[rax+r14*1+0x8]
    923c:	49 89 c5             	mov    r13,rax
    923f:	48 85 ed             	test   rbp,rbp
    9242:	7e 3b                	jle    927f <raiseRangeErrorI+0x29f>
    9244:	48 89 ea             	mov    rdx,rbp
    9247:	48 83 c2 01          	add    rdx,0x1
    924b:	0f 80 bc 02 00 00    	jo     950d <raiseRangeErrorI+0x52d>
    9251:	48 85 d2             	test   rdx,rdx
    9254:	0f 88 66 02 00 00    	js     94c0 <raiseRangeErrorI+0x4e0>
    925a:	48 8b 44 24 10       	mov    rax,QWORD PTR [rsp+0x10]
    925f:	4c 89 c7             	mov    rdi,r8
    9262:	48 8d 70 08          	lea    rsi,[rax+0x8]
    9266:	e8 55 77 ff ff       	call   9c0 <memcpy@plt>
    926b:	4c 01 ed             	add    rbp,r13
    926e:	49 89 c0             	mov    r8,rax
    9271:	0f 80 96 02 00 00    	jo     950d <raiseRangeErrorI+0x52d>
    9277:	4e 8d 44 35 08       	lea    r8,[rbp+r14*1+0x8]
    927c:	49 89 ed             	mov    r13,rbp
    927f:	8b 05 23 63 00 00    	mov    eax,DWORD PTR [rip+0x6323]        # f5a8 <TM__Q5wkpxktOdTGvlSRo9bzt9aw_34+0x8>
    9285:	41 89 00             	mov    DWORD PTR [r8],eax
    9288:	0f b6 05 1d 63 00 00 	movzx  eax,BYTE PTR [rip+0x631d]        # f5ac <TM__Q5wkpxktOdTGvlSRo9bzt9aw_34+0xc>
    928f:	41 88 40 04          	mov    BYTE PTR [r8+0x4],al
    9293:	4c 89 e8             	mov    rax,r13
    9296:	48 83 c0 04          	add    rax,0x4
    929a:	0f 80 81 02 00 00    	jo     9521 <raiseRangeErrorI+0x541>
    92a0:	49 89 c5             	mov    r13,rax
    92a3:	48 85 db             	test   rbx,rbx
    92a6:	7e 30                	jle    92d8 <raiseRangeErrorI+0x2f8>
    92a8:	48 89 da             	mov    rdx,rbx
    92ab:	48 83 c2 01          	add    rdx,0x1
    92af:	0f 80 4e 02 00 00    	jo     9503 <raiseRangeErrorI+0x523>
    92b5:	48 85 d2             	test   rdx,rdx
    92b8:	0f 88 aa 01 00 00    	js     9468 <raiseRangeErrorI+0x488>
    92be:	4b 8d 7c 35 08       	lea    rdi,[r13+r14*1+0x8]
    92c3:	49 8d 77 08          	lea    rsi,[r15+0x8]
    92c7:	e8 f4 76 ff ff       	call   9c0 <memcpy@plt>
    92cc:	4c 01 eb             	add    rbx,r13
    92cf:	0f 80 2e 02 00 00    	jo     9503 <raiseRangeErrorI+0x523>
    92d5:	49 89 dd             	mov    r13,rbx
    92d8:	48 8d 3d a1 8d 20 00 	lea    rdi,[rip+0x208da1]        # 212080 <allocator__Het9ctRSeaVb4hPekZZNCJQ>
    92df:	be 50 00 00 00       	mov    esi,0x50
    92e4:	48 c7 05 21 c1 20 00 	mov    QWORD PTR [rip+0x20c121],0x0        # 215410 <nimInErrorMode__759bT87luu8XGcbkw13FUjA>
    92eb:	00 00 00 00 
    92ef:	e8 5c c6 ff ff       	call   5950 <rawAlloc__mE4QEVyMvGRVliDWDngZCQ>
    92f4:	66 0f ef c0          	pxor   xmm0,xmm0
    92f8:	48 8d 35 e1 c0 20 00 	lea    rsi,[rip+0x20c0e1]        # 2153e0 <NTI__8inKGns6i1OoXN9aLZwcSOw_>
    92ff:	48 8d 58 08          	lea    rbx,[rax+0x8]
    9303:	48 8d 15 67 5f 00 00 	lea    rdx,[rip+0x5f67]        # f271 <_IO_stdin_used+0x31>
    930a:	48 8d 0d 69 5f 00 00 	lea    rcx,[rip+0x5f69]        # f27a <_IO_stdin_used+0x3a>
    9311:	48 83 ec 08          	sub    rsp,0x8
    9315:	48 8d 78 30          	lea    rdi,[rax+0x30]
    9319:	0f 11 00             	movups XMMWORD PTR [rax],xmm0
    931c:	48 89 70 08          	mov    QWORD PTR [rax+0x8],rsi
    9320:	48 8d 35 5d 5f 00 00 	lea    rsi,[rip+0x5f5d]        # f284 <_IO_stdin_used+0x44>
    9327:	0f 11 40 10          	movups XMMWORD PTR [rax+0x10],xmm0
    932b:	0f 11 40 30          	movups XMMWORD PTR [rax+0x30],xmm0
    932f:	0f 11 40 40          	movups XMMWORD PTR [rax+0x40],xmm0
    9333:	48 89 73 10          	mov    QWORD PTR [rbx+0x10],rsi
    9337:	4c 89 6b 18          	mov    QWORD PTR [rbx+0x18],r13
    933b:	4c 89 73 20          	mov    QWORD PTR [rbx+0x20],r14
    933f:	48 89 54 24 48       	mov    QWORD PTR [rsp+0x48],rdx
    9344:	48 89 4c 24 58       	mov    QWORD PTR [rsp+0x58],rcx
    9349:	48 c7 44 24 50 31 00 	mov    QWORD PTR [rsp+0x50],0x31
    9350:	00 00 
    9352:	ff 74 24 58          	push   QWORD PTR [rsp+0x58]
    9356:	ff 74 24 58          	push   QWORD PTR [rsp+0x58]
    935a:	52                   	push   rdx
    935b:	e8 90 26 00 00       	call   b9f0 <add__VHIeeMfqavFfKtbV1Wal0Q>
    9360:	48 8b 05 f1 c0 20 00 	mov    rax,QWORD PTR [rip+0x20c0f1]        # 215458 <localRaiseHook__EIvMhANBvB9cp2Ezvt29cADg>
    9367:	48 83 c4 20          	add    rsp,0x20
    936b:	48 85 c0             	test   rax,rax
    936e:	74 09                	je     9379 <raiseRangeErrorI+0x399>
    9370:	48 89 df             	mov    rdi,rbx
    9373:	ff d0                	call   rax
    9375:	84 c0                	test   al,al
    9377:	74 1d                	je     9396 <raiseRangeErrorI+0x3b6>
    9379:	48 8b 05 38 c0 20 00 	mov    rax,QWORD PTR [rip+0x20c038]        # 2153b8 <globalRaiseHook__JbO1ti4ULxrw54m4zNPbpA>
    9380:	48 85 c0             	test   rax,rax
    9383:	74 09                	je     938e <raiseRangeErrorI+0x3ae>
    9385:	48 89 df             	mov    rdi,rbx
    9388:	ff d0                	call   rax
    938a:	84 c0                	test   al,al
    938c:	74 08                	je     9396 <raiseRangeErrorI+0x3b6>
    938e:	48 89 df             	mov    rdi,rbx
    9391:	e8 ba 1c 00 00       	call   b050 <raiseExceptionAux__na8C8pUZ9cLQWVwk35l5vfw.part.15>
    9396:	4d 85 ff             	test   r15,r15
    9399:	48 8b 1d 70 c0 20 00 	mov    rbx,QWORD PTR [rip+0x20c070]        # 215410 <nimInErrorMode__759bT87luu8XGcbkw13FUjA>
    93a0:	48 c7 05 65 c0 20 00 	mov    QWORD PTR [rip+0x20c065],0x0        # 215410 <nimInErrorMode__759bT87luu8XGcbkw13FUjA>
    93a7:	00 00 00 00 
    93ab:	74 0f                	je     93bc <raiseRangeErrorI+0x3dc>
    93ad:	48 b8 00 00 00 00 00 	movabs rax,0x4000000000000000
    93b4:	00 00 40 
    93b7:	49 85 07             	test   QWORD PTR [r15],rax
    93ba:	74 64                	je     9420 <raiseRangeErrorI+0x440>
    93bc:	48 8b 4c 24 10       	mov    rcx,QWORD PTR [rsp+0x10]
    93c1:	48 85 c9             	test   rcx,rcx
    93c4:	74 0f                	je     93d5 <raiseRangeErrorI+0x3f5>
    93c6:	48 b8 00 00 00 00 00 	movabs rax,0x4000000000000000
    93cd:	00 00 40 
    93d0:	48 85 01             	test   QWORD PTR [rcx],rax
    93d3:	74 7b                	je     9450 <raiseRangeErrorI+0x470>
    93d5:	48 8b 0c 24          	mov    rcx,QWORD PTR [rsp]
    93d9:	48 85 c9             	test   rcx,rcx
    93dc:	74 0f                	je     93ed <raiseRangeErrorI+0x40d>
    93de:	48 b8 00 00 00 00 00 	movabs rax,0x4000000000000000
    93e5:	00 00 40 
    93e8:	48 85 01             	test   QWORD PTR [rcx],rax
    93eb:	74 4b                	je     9438 <raiseRangeErrorI+0x458>
    93ed:	48 01 1d 1c c0 20 00 	add    QWORD PTR [rip+0x20c01c],rbx        # 215410 <nimInErrorMode__759bT87luu8XGcbkw13FUjA>
    93f4:	48 8b 44 24 58       	mov    rax,QWORD PTR [rsp+0x58]
    93f9:	64 48 33 04 25 28 00 	xor    rax,QWORD PTR fs:0x28
    9400:	00 00 
    9402:	0f 85 f6 00 00 00    	jne    94fe <raiseRangeErrorI+0x51e>
    9408:	48 83 c4 68          	add    rsp,0x68
    940c:	5b                   	pop    rbx
    940d:	5d                   	pop    rbp
    940e:	41 5c                	pop    r12
    9410:	41 5d                	pop    r13
    9412:	41 5e                	pop    r14
    9414:	41 5f                	pop    r15
    9416:	c3                   	ret    
    9417:	66 0f 1f 84 00 00 00 	nop    WORD PTR [rax+rax*1+0x0]
    941e:	00 00 
    9420:	48 8d 3d 59 8c 20 00 	lea    rdi,[rip+0x208c59]        # 212080 <allocator__Het9ctRSeaVb4hPekZZNCJQ>
    9427:	4c 89 fe             	mov    rsi,r15
    942a:	e8 51 8d ff ff       	call   2180 <rawDealloc__K7uQ6aTKvW6OnOV8EMoNNQ>
    942f:	eb 8b                	jmp    93bc <raiseRangeErrorI+0x3dc>
    9431:	0f 1f 80 00 00 00 00 	nop    DWORD PTR [rax+0x0]
    9438:	48 8d 3d 41 8c 20 00 	lea    rdi,[rip+0x208c41]        # 212080 <allocator__Het9ctRSeaVb4hPekZZNCJQ>
    943f:	48 89 ce             	mov    rsi,rcx
    9442:	e8 39 8d ff ff       	call   2180 <rawDealloc__K7uQ6aTKvW6OnOV8EMoNNQ>
    9447:	eb a4                	jmp    93ed <raiseRangeErrorI+0x40d>
    9449:	0f 1f 80 00 00 00 00 	nop    DWORD PTR [rax+0x0]
    9450:	48 8d 3d 29 8c 20 00 	lea    rdi,[rip+0x208c29]        # 212080 <allocator__Het9ctRSeaVb4hPekZZNCJQ>
    9457:	48 89 ce             	mov    rsi,rcx
    945a:	e8 21 8d ff ff       	call   2180 <rawDealloc__K7uQ6aTKvW6OnOV8EMoNNQ>
    945f:	e9 71 ff ff ff       	jmp    93d5 <raiseRangeErrorI+0x3f5>
    9464:	0f 1f 40 00          	nop    DWORD PTR [rax+0x0]
    9468:	48 ba ff ff ff ff ff 	movabs rdx,0x7fffffffffffffff
    946f:	ff ff 7f 
    9472:	31 f6                	xor    esi,esi
    9474:	48 bf 00 00 00 00 00 	movabs rdi,0x8000000000000000
    947b:	00 00 80 
    947e:	e8 5d fb ff ff       	call   8fe0 <raiseRangeErrorI>
    9483:	e9 50 fe ff ff       	jmp    92d8 <raiseRangeErrorI+0x2f8>
    9488:	0f 1f 84 00 00 00 00 	nop    DWORD PTR [rax+rax*1+0x0]
    948f:	00 
    9490:	48 ba ff ff ff ff ff 	movabs rdx,0x7fffffffffffffff
    9497:	ff ff 7f 
    949a:	31 f6                	xor    esi,esi
    949c:	48 bf 00 00 00 00 00 	movabs rdi,0x8000000000000000
    94a3:	00 00 80 
    94a6:	4c 89 44 24 20       	mov    QWORD PTR [rsp+0x20],r8
    94ab:	e8 30 fb ff ff       	call   8fe0 <raiseRangeErrorI>
    94b0:	4c 8b 44 24 20       	mov    r8,QWORD PTR [rsp+0x20]
    94b5:	e9 63 fd ff ff       	jmp    921d <raiseRangeErrorI+0x23d>
    94ba:	66 0f 1f 44 00 00    	nop    WORD PTR [rax+rax*1+0x0]
    94c0:	48 ba ff ff ff ff ff 	movabs rdx,0x7fffffffffffffff
    94c7:	ff ff 7f 
    94ca:	31 f6                	xor    esi,esi
    94cc:	48 bf 00 00 00 00 00 	movabs rdi,0x8000000000000000
    94d3:	00 00 80 
    94d6:	4c 89 44 24 20       	mov    QWORD PTR [rsp+0x20],r8
    94db:	e8 00 fb ff ff       	call   8fe0 <raiseRangeErrorI>
    94e0:	4c 8b 44 24 20       	mov    r8,QWORD PTR [rsp+0x20]
    94e5:	e9 95 fd ff ff       	jmp    927f <raiseRangeErrorI+0x29f>
    94ea:	4c 89 44 24 20       	mov    QWORD PTR [rsp+0x20],r8
    94ef:	e8 4c 03 00 00       	call   9840 <raiseOverflow>
    94f4:	4c 8b 44 24 20       	mov    r8,QWORD PTR [rsp+0x20]
    94f9:	e9 41 fd ff ff       	jmp    923f <raiseRangeErrorI+0x25f>
    94fe:	e8 5d 74 ff ff       	call   960 <__stack_chk_fail@plt>
    9503:	e8 38 03 00 00       	call   9840 <raiseOverflow>
    9508:	e9 cb fd ff ff       	jmp    92d8 <raiseRangeErrorI+0x2f8>
    950d:	4c 89 44 24 20       	mov    QWORD PTR [rsp+0x20],r8
    9512:	e8 29 03 00 00       	call   9840 <raiseOverflow>
    9517:	4c 8b 44 24 20       	mov    r8,QWORD PTR [rsp+0x20]
    951c:	e9 5e fd ff ff       	jmp    927f <raiseRangeErrorI+0x29f>
    9521:	e8 1a 03 00 00       	call   9840 <raiseOverflow>
    9526:	e9 78 fd ff ff       	jmp    92a3 <raiseRangeErrorI+0x2c3>
    952b:	4c 89 44 24 20       	mov    QWORD PTR [rsp+0x20],r8
    9530:	e8 0b 03 00 00       	call   9840 <raiseOverflow>
    9535:	4c 8b 44 24 20       	mov    r8,QWORD PTR [rsp+0x20]
    953a:	e9 de fc ff ff       	jmp    921d <raiseRangeErrorI+0x23d>
    953f:	4c 89 44 24 20       	mov    QWORD PTR [rsp+0x20],r8
    9544:	e8 f7 02 00 00       	call   9840 <raiseOverflow>
    9549:	4c 8b 44 24 20       	mov    r8,QWORD PTR [rsp+0x20]
    954e:	e9 8b fc ff ff       	jmp    91de <raiseRangeErrorI+0x1fe>
    9553:	0f 1f 00             	nop    DWORD PTR [rax]
    9556:	66 2e 0f 1f 84 00 00 	nop    WORD PTR cs:[rax+rax*1+0x0]
    955d:	00 00 00 

0000000000009560 <prepareSeqAdd__11KnDEqKYfU1F7UoiSyJcA>:
    9560:	41 57                	push   r15
    9562:	41 56                	push   r14
    9564:	41 55                	push   r13
    9566:	41 54                	push   r12
    9568:	55                   	push   rbp
    9569:	53                   	push   rbx
    956a:	48 83 ec 18          	sub    rsp,0x18
    956e:	48 85 d2             	test   rdx,rdx
    9571:	0f 8e 41 01 00 00    	jle    96b8 <prepareSeqAdd__11KnDEqKYfU1F7UoiSyJcA+0x158>
    9577:	48 85 f6             	test   rsi,rsi
    957a:	49 89 cc             	mov    r12,rcx
    957d:	49 89 f5             	mov    r13,rsi
    9580:	48 89 fb             	mov    rbx,rdi
    9583:	0f 84 c7 00 00 00    	je     9650 <prepareSeqAdd__11KnDEqKYfU1F7UoiSyJcA+0xf0>
    9589:	48 bf ff ff ff ff ff 	movabs rdi,0xbfffffffffffffff
    9590:	ff ff bf 
    9593:	48 23 3e             	and    rdi,QWORD PTR [rsi]
    9596:	0f 8e 94 01 00 00    	jle    9730 <prepareSeqAdd__11KnDEqKYfU1F7UoiSyJcA+0x1d0>
    959c:	48 81 ff ff ff 00 00 	cmp    rdi,0xffff
    95a3:	0f 8e 17 01 00 00    	jle    96c0 <prepareSeqAdd__11KnDEqKYfU1F7UoiSyJcA+0x160>
    95a9:	48 6b c7 03          	imul   rax,rdi,0x3
    95ad:	0f 80 65 02 00 00    	jo     9818 <prepareSeqAdd__11KnDEqKYfU1F7UoiSyJcA+0x2b8>
    95b3:	48 89 c5             	mov    rbp,rax
    95b6:	48 c1 ed 3f          	shr    rbp,0x3f
    95ba:	48 01 c5             	add    rbp,rax
    95bd:	48 d1 fd             	sar    rbp,1
    95c0:	48 01 da             	add    rdx,rbx
    95c3:	0f 80 53 01 00 00    	jo     971c <prepareSeqAdd__11KnDEqKYfU1F7UoiSyJcA+0x1bc>
    95c9:	48 39 ea             	cmp    rdx,rbp
    95cc:	48 b8 00 00 00 00 00 	movabs rax,0x4000000000000000
    95d3:	00 00 40 
    95d6:	48 0f 4d ea          	cmovge rbp,rdx
    95da:	49 85 45 00          	test   QWORD PTR [r13+0x0],rax
    95de:	0f 84 ec 00 00 00    	je     96d0 <prepareSeqAdd__11KnDEqKYfU1F7UoiSyJcA+0x170>
    95e4:	4c 89 e2             	mov    rdx,r12
    95e7:	48 0f af d5          	imul   rdx,rbp
    95eb:	0f 80 2b 01 00 00    	jo     971c <prepareSeqAdd__11KnDEqKYfU1F7UoiSyJcA+0x1bc>
    95f1:	48 83 c2 08          	add    rdx,0x8
    95f5:	49 89 d7             	mov    r15,rdx
    95f8:	0f 80 1e 01 00 00    	jo     971c <prepareSeqAdd__11KnDEqKYfU1F7UoiSyJcA+0x1bc>
    95fe:	48 85 d2             	test   rdx,rdx
    9601:	0f 88 f5 01 00 00    	js     97fc <prepareSeqAdd__11KnDEqKYfU1F7UoiSyJcA+0x29c>
    9607:	48 8d 3d 72 8a 20 00 	lea    rdi,[rip+0x208a72]        # 212080 <allocator__Het9ctRSeaVb4hPekZZNCJQ>
    960e:	48 89 d6             	mov    rsi,rdx
    9611:	e8 3a c3 ff ff       	call   5950 <rawAlloc__mE4QEVyMvGRVliDWDngZCQ>
    9616:	31 f6                	xor    esi,esi
    9618:	48 89 c7             	mov    rdi,rax
    961b:	4c 89 fa             	mov    rdx,r15
    961e:	49 89 c6             	mov    r14,rax
    9621:	e8 5a 73 ff ff       	call   980 <memset@plt>
    9626:	49 0f af dc          	imul   rbx,r12
    962a:	49 8d 7e 08          	lea    rdi,[r14+0x8]
    962e:	49 8d 75 08          	lea    rsi,[r13+0x8]
    9632:	0f 80 e4 00 00 00    	jo     971c <prepareSeqAdd__11KnDEqKYfU1F7UoiSyJcA+0x1bc>
    9638:	48 85 db             	test   rbx,rbx
    963b:	0f 88 9f 01 00 00    	js     97e0 <prepareSeqAdd__11KnDEqKYfU1F7UoiSyJcA+0x280>
    9641:	48 89 da             	mov    rdx,rbx
    9644:	e8 77 73 ff ff       	call   9c0 <memcpy@plt>
    9649:	49 89 2e             	mov    QWORD PTR [r14],rbp
    964c:	eb 53                	jmp    96a1 <prepareSeqAdd__11KnDEqKYfU1F7UoiSyJcA+0x141>
    964e:	66 90                	xchg   ax,ax
    9650:	48 01 d3             	add    rbx,rdx
    9653:	0f 80 c3 00 00 00    	jo     971c <prepareSeqAdd__11KnDEqKYfU1F7UoiSyJcA+0x1bc>
    9659:	48 85 db             	test   rbx,rbx
    965c:	0f 8e 6e 01 00 00    	jle    97d0 <prepareSeqAdd__11KnDEqKYfU1F7UoiSyJcA+0x270>
    9662:	4c 0f af e3          	imul   r12,rbx
    9666:	0f 80 b0 00 00 00    	jo     971c <prepareSeqAdd__11KnDEqKYfU1F7UoiSyJcA+0x1bc>
    966c:	49 83 c4 08          	add    r12,0x8
    9670:	0f 80 a6 00 00 00    	jo     971c <prepareSeqAdd__11KnDEqKYfU1F7UoiSyJcA+0x1bc>
    9676:	4d 85 e4             	test   r12,r12
    9679:	0f 88 31 01 00 00    	js     97b0 <prepareSeqAdd__11KnDEqKYfU1F7UoiSyJcA+0x250>
    967f:	48 8d 3d fa 89 20 00 	lea    rdi,[rip+0x2089fa]        # 212080 <allocator__Het9ctRSeaVb4hPekZZNCJQ>
    9686:	4c 89 e6             	mov    rsi,r12
    9689:	e8 c2 c2 ff ff       	call   5950 <rawAlloc__mE4QEVyMvGRVliDWDngZCQ>
    968e:	4c 89 e2             	mov    rdx,r12
    9691:	49 89 c6             	mov    r14,rax
    9694:	31 f6                	xor    esi,esi
    9696:	48 89 c7             	mov    rdi,rax
    9699:	e8 e2 72 ff ff       	call   980 <memset@plt>
    969e:	49 89 1e             	mov    QWORD PTR [r14],rbx
    96a1:	48 83 c4 18          	add    rsp,0x18
    96a5:	4c 89 f0             	mov    rax,r14
    96a8:	5b                   	pop    rbx
    96a9:	5d                   	pop    rbp
    96aa:	41 5c                	pop    r12
    96ac:	41 5d                	pop    r13
    96ae:	41 5e                	pop    r14
    96b0:	41 5f                	pop    r15
    96b2:	c3                   	ret    
    96b3:	0f 1f 44 00 00       	nop    DWORD PTR [rax+rax*1+0x0]
    96b8:	49 89 f6             	mov    r14,rsi
    96bb:	eb e4                	jmp    96a1 <prepareSeqAdd__11KnDEqKYfU1F7UoiSyJcA+0x141>
    96bd:	0f 1f 00             	nop    DWORD PTR [rax]
    96c0:	48 8d 2c 3f          	lea    rbp,[rdi+rdi*1]
    96c4:	e9 f7 fe ff ff       	jmp    95c0 <prepareSeqAdd__11KnDEqKYfU1F7UoiSyJcA+0x60>
    96c9:	0f 1f 80 00 00 00 00 	nop    DWORD PTR [rax+0x0]
    96d0:	49 0f af fc          	imul   rdi,r12
    96d4:	70 46                	jo     971c <prepareSeqAdd__11KnDEqKYfU1F7UoiSyJcA+0x1bc>
    96d6:	48 89 fb             	mov    rbx,rdi
    96d9:	48 83 c3 08          	add    rbx,0x8
    96dd:	70 3d                	jo     971c <prepareSeqAdd__11KnDEqKYfU1F7UoiSyJcA+0x1bc>
    96df:	4c 0f af e5          	imul   r12,rbp
    96e3:	70 37                	jo     971c <prepareSeqAdd__11KnDEqKYfU1F7UoiSyJcA+0x1bc>
    96e5:	49 83 c4 08          	add    r12,0x8
    96e9:	70 31                	jo     971c <prepareSeqAdd__11KnDEqKYfU1F7UoiSyJcA+0x1bc>
    96eb:	48 85 db             	test   rbx,rbx
    96ee:	0f 88 ec 00 00 00    	js     97e0 <prepareSeqAdd__11KnDEqKYfU1F7UoiSyJcA+0x280>
    96f4:	4d 85 e4             	test   r12,r12
    96f7:	0f 88 b3 00 00 00    	js     97b0 <prepareSeqAdd__11KnDEqKYfU1F7UoiSyJcA+0x250>
    96fd:	75 41                	jne    9740 <prepareSeqAdd__11KnDEqKYfU1F7UoiSyJcA+0x1e0>
    96ff:	48 8d 3d 7a 89 20 00 	lea    rdi,[rip+0x20897a]        # 212080 <allocator__Het9ctRSeaVb4hPekZZNCJQ>
    9706:	4c 89 ee             	mov    rsi,r13
    9709:	e8 72 8a ff ff       	call   2180 <rawDealloc__K7uQ6aTKvW6OnOV8EMoNNQ>
    970e:	48 c7 04 25 00 00 00 	mov    QWORD PTR ds:0x0,0x0
    9715:	00 00 00 00 00 
    971a:	0f 0b                	ud2    
    971c:	e8 1f 01 00 00       	call   9840 <raiseOverflow>
    9721:	45 31 f6             	xor    r14d,r14d
    9724:	e9 78 ff ff ff       	jmp    96a1 <prepareSeqAdd__11KnDEqKYfU1F7UoiSyJcA+0x141>
    9729:	0f 1f 80 00 00 00 00 	nop    DWORD PTR [rax+0x0]
    9730:	bd 04 00 00 00       	mov    ebp,0x4
    9735:	e9 86 fe ff ff       	jmp    95c0 <prepareSeqAdd__11KnDEqKYfU1F7UoiSyJcA+0x60>
    973a:	66 0f 1f 44 00 00    	nop    WORD PTR [rax+rax*1+0x0]
    9740:	48 8d 3d 39 89 20 00 	lea    rdi,[rip+0x208939]        # 212080 <allocator__Het9ctRSeaVb4hPekZZNCJQ>
    9747:	4c 89 e6             	mov    rsi,r12
    974a:	e8 01 c2 ff ff       	call   5950 <rawAlloc__mE4QEVyMvGRVliDWDngZCQ>
    974f:	49 89 c6             	mov    r14,rax
    9752:	4c 89 e8             	mov    rax,r13
    9755:	4c 89 ee             	mov    rsi,r13
    9758:	48 25 00 f0 ff ff    	and    rax,0xfffffffffffff000
    975e:	4c 89 f7             	mov    rdi,r14
    9761:	48 8b 50 08          	mov    rdx,QWORD PTR [rax+0x8]
    9765:	48 8d 42 e0          	lea    rax,[rdx-0x20]
    9769:	48 81 fa c8 0f 00 00 	cmp    rdx,0xfc8
    9770:	48 0f 4f d0          	cmovg  rdx,rax
    9774:	49 39 d4             	cmp    r12,rdx
    9777:	49 0f 4e d4          	cmovle rdx,r12
    977b:	e8 40 72 ff ff       	call   9c0 <memcpy@plt>
    9780:	48 8d 3d f9 88 20 00 	lea    rdi,[rip+0x2088f9]        # 212080 <allocator__Het9ctRSeaVb4hPekZZNCJQ>
    9787:	4c 89 ee             	mov    rsi,r13
    978a:	e8 f1 89 ff ff       	call   2180 <rawDealloc__K7uQ6aTKvW6OnOV8EMoNNQ>
    978f:	4c 39 e3             	cmp    rbx,r12
    9792:	7d 11                	jge    97a5 <prepareSeqAdd__11KnDEqKYfU1F7UoiSyJcA+0x245>
    9794:	4c 89 e2             	mov    rdx,r12
    9797:	49 8d 3c 1e          	lea    rdi,[r14+rbx*1]
    979b:	31 f6                	xor    esi,esi
    979d:	48 29 da             	sub    rdx,rbx
    97a0:	e8 db 71 ff ff       	call   980 <memset@plt>
    97a5:	49 89 2e             	mov    QWORD PTR [r14],rbp
    97a8:	e9 f4 fe ff ff       	jmp    96a1 <prepareSeqAdd__11KnDEqKYfU1F7UoiSyJcA+0x141>
    97ad:	0f 1f 00             	nop    DWORD PTR [rax]
    97b0:	48 ba ff ff ff ff ff 	movabs rdx,0x7fffffffffffffff
    97b7:	ff ff 7f 
    97ba:	31 f6                	xor    esi,esi
    97bc:	4c 89 e7             	mov    rdi,r12
    97bf:	e8 1c f8 ff ff       	call   8fe0 <raiseRangeErrorI>
    97c4:	45 31 f6             	xor    r14d,r14d
    97c7:	e9 d5 fe ff ff       	jmp    96a1 <prepareSeqAdd__11KnDEqKYfU1F7UoiSyJcA+0x141>
    97cc:	0f 1f 40 00          	nop    DWORD PTR [rax+0x0]
    97d0:	45 31 f6             	xor    r14d,r14d
    97d3:	e9 c9 fe ff ff       	jmp    96a1 <prepareSeqAdd__11KnDEqKYfU1F7UoiSyJcA+0x141>
    97d8:	0f 1f 84 00 00 00 00 	nop    DWORD PTR [rax+rax*1+0x0]
    97df:	00 
    97e0:	48 ba ff ff ff ff ff 	movabs rdx,0x7fffffffffffffff
    97e7:	ff ff 7f 
    97ea:	31 f6                	xor    esi,esi
    97ec:	48 89 df             	mov    rdi,rbx
    97ef:	e8 ec f7 ff ff       	call   8fe0 <raiseRangeErrorI>
    97f4:	45 31 f6             	xor    r14d,r14d
    97f7:	e9 a5 fe ff ff       	jmp    96a1 <prepareSeqAdd__11KnDEqKYfU1F7UoiSyJcA+0x141>
    97fc:	48 ba ff ff ff ff ff 	movabs rdx,0x7fffffffffffffff
    9803:	ff ff 7f 
    9806:	31 f6                	xor    esi,esi
    9808:	4c 89 ff             	mov    rdi,r15
    980b:	e8 d0 f7 ff ff       	call   8fe0 <raiseRangeErrorI>
    9810:	45 31 f6             	xor    r14d,r14d
    9813:	e9 89 fe ff ff       	jmp    96a1 <prepareSeqAdd__11KnDEqKYfU1F7UoiSyJcA+0x141>
    9818:	48 89 54 24 08       	mov    QWORD PTR [rsp+0x8],rdx
    981d:	48 89 3c 24          	mov    QWORD PTR [rsp],rdi
    9821:	31 ed                	xor    ebp,ebp
    9823:	e8 18 00 00 00       	call   9840 <raiseOverflow>
    9828:	48 8b 3c 24          	mov    rdi,QWORD PTR [rsp]
    982c:	48 8b 54 24 08       	mov    rdx,QWORD PTR [rsp+0x8]
    9831:	e9 8a fd ff ff       	jmp    95c0 <prepareSeqAdd__11KnDEqKYfU1F7UoiSyJcA+0x60>
    9836:	66 2e 0f 1f 84 00 00 	nop    WORD PTR cs:[rax+rax*1+0x0]
    983d:	00 00 00 

0000000000009840 <raiseOverflow>:
    9840:	48 8b 05 99 88 20 00 	mov    rax,QWORD PTR [rip+0x208899]        # 2120e0 <allocator__Het9ctRSeaVb4hPekZZNCJQ+0x60>
    9847:	41 54                	push   r12
    9849:	48 c7 05 bc bb 20 00 	mov    QWORD PTR [rip+0x20bbbc],0x0        # 215410 <nimInErrorMode__759bT87luu8XGcbkw13FUjA>
    9850:	00 00 00 00 
    9854:	55                   	push   rbp
    9855:	53                   	push   rbx
    9856:	48 85 c0             	test   rax,rax
    9859:	0f 84 a1 01 00 00    	je     9a00 <raiseOverflow+0x1c0>
    985f:	48 8b 50 20          	mov    rdx,QWORD PTR [rax+0x20]
    9863:	48 85 d2             	test   rdx,rdx
    9866:	0f 84 24 01 00 00    	je     9990 <raiseOverflow+0x150>
    986c:	48 8b 0a             	mov    rcx,QWORD PTR [rdx]
    986f:	48 89 48 20          	mov    QWORD PTR [rax+0x20],rcx
    9873:	48 8b 70 28          	mov    rsi,QWORD PTR [rax+0x28]
    9877:	48 8d 4e b0          	lea    rcx,[rsi-0x50]
    987b:	48 89 48 28          	mov    QWORD PTR [rax+0x28],rcx
    987f:	48 83 f9 4f          	cmp    rcx,0x4f
    9883:	7f 3a                	jg     98bf <raiseOverflow+0x7f>
    9885:	48 3b 05 54 88 20 00 	cmp    rax,QWORD PTR [rip+0x208854]        # 2120e0 <allocator__Het9ctRSeaVb4hPekZZNCJQ+0x60>
    988c:	48 8b 48 10          	mov    rcx,QWORD PTR [rax+0x10]
    9890:	0f 84 1a 01 00 00    	je     99b0 <raiseOverflow+0x170>
    9896:	48 8b 70 18          	mov    rsi,QWORD PTR [rax+0x18]
    989a:	48 89 4e 10          	mov    QWORD PTR [rsi+0x10],rcx
    989e:	48 8b 48 10          	mov    rcx,QWORD PTR [rax+0x10]
    98a2:	48 85 c9             	test   rcx,rcx
    98a5:	74 08                	je     98af <raiseOverflow+0x6f>
    98a7:	48 8b 70 18          	mov    rsi,QWORD PTR [rax+0x18]
    98ab:	48 89 71 18          	mov    QWORD PTR [rcx+0x18],rsi
    98af:	48 c7 40 10 00 00 00 	mov    QWORD PTR [rax+0x10],0x0
    98b6:	00 
    98b7:	48 c7 40 18 00 00 00 	mov    QWORD PTR [rax+0x18],0x0
    98be:	00 
    98bf:	66 0f ef c0          	pxor   xmm0,xmm0
    98c3:	48 8d 05 96 bb 20 00 	lea    rax,[rip+0x20bb96]        # 215460 <NTI__Ss6DFlX5iSZpHRZDmP74bg_>
    98ca:	48 83 05 46 b0 20 00 	add    QWORD PTR [rip+0x20b046],0x50        # 214918 <allocator__Het9ctRSeaVb4hPekZZNCJQ+0x2898>
    98d1:	50 
    98d2:	48 8d 5a 08          	lea    rbx,[rdx+0x8]
    98d6:	31 ed                	xor    ebp,ebp
    98d8:	0f 11 02             	movups XMMWORD PTR [rdx],xmm0
    98db:	48 89 42 08          	mov    QWORD PTR [rdx+0x8],rax
    98df:	48 8d 05 a9 59 00 00 	lea    rax,[rip+0x59a9]        # f28f <_IO_stdin_used+0x4f>
    98e6:	0f 11 42 10          	movups XMMWORD PTR [rdx+0x10],xmm0
    98ea:	0f 11 42 30          	movups XMMWORD PTR [rdx+0x30],xmm0
    98ee:	0f 11 42 40          	movups XMMWORD PTR [rdx+0x40],xmm0
    98f2:	48 89 43 10          	mov    QWORD PTR [rbx+0x10],rax
    98f6:	48 8d 05 83 5c 00 00 	lea    rax,[rip+0x5c83]        # f580 <TM__Q5wkpxktOdTGvlSRo9bzt9aw_47>
    98fd:	48 c7 43 18 12 00 00 	mov    QWORD PTR [rbx+0x18],0x12
    9904:	00 
    9905:	48 89 43 20          	mov    QWORD PTR [rbx+0x20],rax
    9909:	48 8b 43 30          	mov    rax,QWORD PTR [rbx+0x30]
    990d:	48 85 c0             	test   rax,rax
    9910:	0f 84 ba 00 00 00    	je     99d0 <raiseOverflow+0x190>
    9916:	49 89 ec             	mov    r12,rbp
    9919:	49 83 c4 01          	add    r12,0x1
    991d:	0f 80 cf 00 00 00    	jo     99f2 <raiseOverflow+0x1b2>
    9923:	4c 3b 20             	cmp    r12,QWORD PTR [rax]
    9926:	0f 8f 44 01 00 00    	jg     9a70 <raiseOverflow+0x230>
    992c:	4c 89 e5             	mov    rbp,r12
    992f:	48 8d 35 3b 59 00 00 	lea    rsi,[rip+0x593b]        # f271 <_IO_stdin_used+0x31>
    9936:	48 89 6b 28          	mov    QWORD PTR [rbx+0x28],rbp
    993a:	48 c7 40 10 31 00 00 	mov    QWORD PTR [rax+0x10],0x31
    9941:	00 
    9942:	48 89 70 08          	mov    QWORD PTR [rax+0x8],rsi
    9946:	48 8d 35 2d 59 00 00 	lea    rsi,[rip+0x592d]        # f27a <_IO_stdin_used+0x3a>
    994d:	48 89 70 18          	mov    QWORD PTR [rax+0x18],rsi
    9951:	48 8b 05 00 bb 20 00 	mov    rax,QWORD PTR [rip+0x20bb00]        # 215458 <localRaiseHook__EIvMhANBvB9cp2Ezvt29cADg>
    9958:	48 85 c0             	test   rax,rax
    995b:	74 09                	je     9966 <raiseOverflow+0x126>
    995d:	48 89 df             	mov    rdi,rbx
    9960:	ff d0                	call   rax
    9962:	84 c0                	test   al,al
    9964:	74 1d                	je     9983 <raiseOverflow+0x143>
    9966:	48 8b 05 4b ba 20 00 	mov    rax,QWORD PTR [rip+0x20ba4b]        # 2153b8 <globalRaiseHook__JbO1ti4ULxrw54m4zNPbpA>
    996d:	48 85 c0             	test   rax,rax
    9970:	74 09                	je     997b <raiseOverflow+0x13b>
    9972:	48 89 df             	mov    rdi,rbx
    9975:	ff d0                	call   rax
    9977:	84 c0                	test   al,al
    9979:	74 08                	je     9983 <raiseOverflow+0x143>
    997b:	48 89 df             	mov    rdi,rbx
    997e:	e8 cd 16 00 00       	call   b050 <raiseExceptionAux__na8C8pUZ9cLQWVwk35l5vfw.part.15>
    9983:	5b                   	pop    rbx
    9984:	5d                   	pop    rbp
    9985:	41 5c                	pop    r12
    9987:	c3                   	ret    
    9988:	0f 1f 84 00 00 00 00 	nop    DWORD PTR [rax+rax*1+0x0]
    998f:	00 
    9990:	48 8b 48 30          	mov    rcx,QWORD PTR [rax+0x30]
    9994:	48 8d 54 08 38       	lea    rdx,[rax+rcx*1+0x38]
    9999:	48 83 c1 50          	add    rcx,0x50
    999d:	48 89 48 30          	mov    QWORD PTR [rax+0x30],rcx
    99a1:	e9 cd fe ff ff       	jmp    9873 <raiseOverflow+0x33>
    99a6:	66 2e 0f 1f 84 00 00 	nop    WORD PTR cs:[rax+rax*1+0x0]
    99ad:	00 00 00 
    99b0:	48 85 c9             	test   rcx,rcx
    99b3:	48 89 0d 26 87 20 00 	mov    QWORD PTR [rip+0x208726],rcx        # 2120e0 <allocator__Het9ctRSeaVb4hPekZZNCJQ+0x60>
    99ba:	0f 84 ef fe ff ff    	je     98af <raiseOverflow+0x6f>
    99c0:	48 c7 41 18 00 00 00 	mov    QWORD PTR [rcx+0x18],0x0
    99c7:	00 
    99c8:	e9 e2 fe ff ff       	jmp    98af <raiseOverflow+0x6f>
    99cd:	0f 1f 00             	nop    DWORD PTR [rax]
    99d0:	31 f6                	xor    esi,esi
    99d2:	48 89 ef             	mov    rdi,rbp
    99d5:	b9 18 00 00 00       	mov    ecx,0x18
    99da:	ba 01 00 00 00       	mov    edx,0x1
    99df:	e8 7c fb ff ff       	call   9560 <prepareSeqAdd__11KnDEqKYfU1F7UoiSyJcA>
    99e4:	48 83 c5 01          	add    rbp,0x1
    99e8:	48 89 43 30          	mov    QWORD PTR [rbx+0x30],rax
    99ec:	0f 81 3d ff ff ff    	jno    992f <raiseOverflow+0xef>
    99f2:	e8 49 fe ff ff       	call   9840 <raiseOverflow>
    99f7:	e9 55 ff ff ff       	jmp    9951 <raiseOverflow+0x111>
    99fc:	0f 1f 40 00          	nop    DWORD PTR [rax+0x0]
    9a00:	48 8d 3d 79 86 20 00 	lea    rdi,[rip+0x208679]        # 212080 <allocator__Het9ctRSeaVb4hPekZZNCJQ>
    9a07:	be 00 10 00 00       	mov    esi,0x1000
    9a0c:	e8 ff af ff ff       	call   4a10 <getBigChunk__stlXHMKRKFIGOvq8t4ynRQ>
    9a11:	48 c7 40 10 00 00 00 	mov    QWORD PTR [rax+0x10],0x0
    9a18:	00 
    9a19:	48 c7 40 20 00 00 00 	mov    QWORD PTR [rax+0x20],0x0
    9a20:	00 
    9a21:	48 c7 40 08 50 00 00 	mov    QWORD PTR [rax+0x8],0x50
    9a28:	00 
    9a29:	48 c7 40 30 50 00 00 	mov    QWORD PTR [rax+0x30],0x50
    9a30:	00 
    9a31:	48 c7 40 28 78 0f 00 	mov    QWORD PTR [rax+0x28],0xf78
    9a38:	00 
    9a39:	48 c7 40 18 00 00 00 	mov    QWORD PTR [rax+0x18],0x0
    9a40:	00 
    9a41:	48 8b 15 98 86 20 00 	mov    rdx,QWORD PTR [rip+0x208698]        # 2120e0 <allocator__Het9ctRSeaVb4hPekZZNCJQ+0x60>
    9a48:	48 89 50 10          	mov    QWORD PTR [rax+0x10],rdx
    9a4c:	48 8b 15 8d 86 20 00 	mov    rdx,QWORD PTR [rip+0x20868d]        # 2120e0 <allocator__Het9ctRSeaVb4hPekZZNCJQ+0x60>
    9a53:	48 85 d2             	test   rdx,rdx
    9a56:	74 04                	je     9a5c <raiseOverflow+0x21c>
    9a58:	48 89 42 18          	mov    QWORD PTR [rdx+0x18],rax
    9a5c:	48 89 05 7d 86 20 00 	mov    QWORD PTR [rip+0x20867d],rax        # 2120e0 <allocator__Het9ctRSeaVb4hPekZZNCJQ+0x60>
    9a63:	48 8d 50 38          	lea    rdx,[rax+0x38]
    9a67:	48 8b 48 28          	mov    rcx,QWORD PTR [rax+0x28]
    9a6b:	e9 0f fe ff ff       	jmp    987f <raiseOverflow+0x3f>
    9a70:	b9 18 00 00 00       	mov    ecx,0x18
    9a75:	ba 01 00 00 00       	mov    edx,0x1
    9a7a:	48 89 c6             	mov    rsi,rax
    9a7d:	48 89 ef             	mov    rdi,rbp
    9a80:	e8 db fa ff ff       	call   9560 <prepareSeqAdd__11KnDEqKYfU1F7UoiSyJcA>
    9a85:	48 89 43 30          	mov    QWORD PTR [rbx+0x30],rax
    9a89:	e9 9e fe ff ff       	jmp    992c <raiseOverflow+0xec>
    9a8e:	66 90                	xchg   ax,ax

0000000000009a90 <rawNewString>:
    9a90:	41 55                	push   r13
    9a92:	41 54                	push   r12
    9a94:	55                   	push   rbp
    9a95:	53                   	push   rbx
    9a96:	66 0f ef c0          	pxor   xmm0,xmm0
    9a9a:	48 83 ec 38          	sub    rsp,0x38
    9a9e:	64 48 8b 04 25 28 00 	mov    rax,QWORD PTR fs:0x28
    9aa5:	00 00 
    9aa7:	48 89 44 24 28       	mov    QWORD PTR [rsp+0x28],rax
    9aac:	31 c0                	xor    eax,eax
    9aae:	48 85 ff             	test   rdi,rdi
    9ab1:	4c 8d 64 24 10       	lea    r12,[rsp+0x10]
    9ab6:	0f 29 44 24 10       	movaps XMMWORD PTR [rsp+0x10],xmm0
    9abb:	0f 8e 9f 00 00 00    	jle    9b60 <rawNewString+0xd0>
    9ac1:	48 89 fa             	mov    rdx,rdi
    9ac4:	48 89 fd             	mov    rbp,rdi
    9ac7:	48 83 c2 01          	add    rdx,0x1
    9acb:	70 6c                	jo     9b39 <rawNewString+0xa9>
    9acd:	48 89 d3             	mov    rbx,rdx
    9ad0:	48 83 c3 08          	add    rbx,0x8
    9ad4:	70 63                	jo     9b39 <rawNewString+0xa9>
    9ad6:	48 85 db             	test   rbx,rbx
    9ad9:	78 65                	js     9b40 <rawNewString+0xb0>
    9adb:	48 8d 3d 9e 85 20 00 	lea    rdi,[rip+0x20859e]        # 212080 <allocator__Het9ctRSeaVb4hPekZZNCJQ>
    9ae2:	48 89 de             	mov    rsi,rbx
    9ae5:	e8 66 be ff ff       	call   5950 <rawAlloc__mE4QEVyMvGRVliDWDngZCQ>
    9aea:	48 89 da             	mov    rdx,rbx
    9aed:	49 89 c5             	mov    r13,rax
    9af0:	31 f6                	xor    esi,esi
    9af2:	48 89 c7             	mov    rdi,rax
    9af5:	e8 86 6e ff ff       	call   980 <memset@plt>
    9afa:	49 89 6d 00          	mov    QWORD PTR [r13+0x0],rbp
    9afe:	4c 89 e7             	mov    rdi,r12
    9b01:	e8 9a f2 ff ff       	call   8da0 <chckNil>
    9b06:	48 c7 44 24 10 00 00 	mov    QWORD PTR [rsp+0x10],0x0
    9b0d:	00 00 
    9b0f:	4c 89 6c 24 18       	mov    QWORD PTR [rsp+0x18],r13
    9b14:	48 8b 4c 24 28       	mov    rcx,QWORD PTR [rsp+0x28]
    9b19:	64 48 33 0c 25 28 00 	xor    rcx,QWORD PTR fs:0x28
    9b20:	00 00 
    9b22:	48 8b 44 24 10       	mov    rax,QWORD PTR [rsp+0x10]
    9b27:	48 8b 54 24 18       	mov    rdx,QWORD PTR [rsp+0x18]
    9b2c:	75 4a                	jne    9b78 <rawNewString+0xe8>
    9b2e:	48 83 c4 38          	add    rsp,0x38
    9b32:	5b                   	pop    rbx
    9b33:	5d                   	pop    rbp
    9b34:	41 5c                	pop    r12
    9b36:	41 5d                	pop    r13
    9b38:	c3                   	ret    
    9b39:	e8 02 fd ff ff       	call   9840 <raiseOverflow>
    9b3e:	eb d4                	jmp    9b14 <rawNewString+0x84>
    9b40:	48 ba ff ff ff ff ff 	movabs rdx,0x7fffffffffffffff
    9b47:	ff ff 7f 
    9b4a:	31 f6                	xor    esi,esi
    9b4c:	48 89 df             	mov    rdi,rbx
    9b4f:	e8 8c f4 ff ff       	call   8fe0 <raiseRangeErrorI>
    9b54:	eb be                	jmp    9b14 <rawNewString+0x84>
    9b56:	66 2e 0f 1f 84 00 00 	nop    WORD PTR cs:[rax+rax*1+0x0]
    9b5d:	00 00 00 
    9b60:	4c 89 e7             	mov    rdi,r12
    9b63:	0f 29 04 24          	movaps XMMWORD PTR [rsp],xmm0
    9b67:	e8 34 f2 ff ff       	call   8da0 <chckNil>
    9b6c:	66 0f 6f 04 24       	movdqa xmm0,XMMWORD PTR [rsp]
    9b71:	0f 29 44 24 10       	movaps XMMWORD PTR [rsp+0x10],xmm0
    9b76:	eb 9c                	jmp    9b14 <rawNewString+0x84>
    9b78:	e8 e3 6d ff ff       	call   960 <__stack_chk_fail@plt>
    9b7d:	0f 1f 00             	nop    DWORD PTR [rax]

0000000000009b80 <nimNewObj>:
    9b80:	41 56                	push   r14
    9b82:	41 55                	push   r13
    9b84:	41 54                	push   r12
    9b86:	55                   	push   rbp
    9b87:	49 89 fc             	mov    r12,rdi
    9b8a:	53                   	push   rbx
    9b8b:	48 83 ec 10          	sub    rsp,0x10
    9b8f:	49 83 c4 08          	add    r12,0x8
    9b93:	0f 80 f8 03 00 00    	jo     9f91 <nimNewObj+0x411>
    9b99:	4d 85 e4             	test   r12,r12
    9b9c:	0f 88 de 02 00 00    	js     9e80 <nimNewObj+0x300>
    9ba2:	48 8d 47 0f          	lea    rax,[rdi+0xf]
    9ba6:	49 89 c5             	mov    r13,rax
    9ba9:	49 83 e5 f8          	and    r13,0xfffffffffffffff8
    9bad:	49 81 fd c8 0f 00 00 	cmp    r13,0xfc8
    9bb4:	0f 8e e6 00 00 00    	jle    9ca0 <nimNewObj+0x120>
    9bba:	48 8d 5f 28          	lea    rbx,[rdi+0x28]
    9bbe:	48 8d 3d bb 84 20 00 	lea    rdi,[rip+0x2084bb]        # 212080 <allocator__Het9ctRSeaVb4hPekZZNCJQ>
    9bc5:	48 81 fb 00 00 00 3f 	cmp    rbx,0x3f000000
    9bcc:	48 89 de             	mov    rsi,rbx
    9bcf:	0f 8e 53 01 00 00    	jle    9d28 <nimNewObj+0x1a8>
    9bd5:	e8 96 b8 ff ff       	call   5470 <getHugeChunk__stlXHMKRKFIGOvq8t4ynRQ_3>
    9bda:	48 8b 35 47 b5 20 00 	mov    rsi,QWORD PTR [rip+0x20b547]        # 215128 <allocator__Het9ctRSeaVb4hPekZZNCJQ+0x30a8>
    9be1:	49 89 c5             	mov    r13,rax
    9be4:	49 8d 6d 20          	lea    rbp,[r13+0x20]
    9be8:	48 85 f6             	test   rsi,rsi
    9beb:	0f 84 53 01 00 00    	je     9d44 <nimNewObj+0x1c4>
    9bf1:	48 8b 06             	mov    rax,QWORD PTR [rsi]
    9bf4:	48 01 eb             	add    rbx,rbp
    9bf7:	48 39 c6             	cmp    rsi,rax
    9bfa:	0f 84 30 02 00 00    	je     9e30 <nimNewObj+0x2b0>
    9c00:	48 3b 6e 10          	cmp    rbp,QWORD PTR [rsi+0x10]
    9c04:	0f 82 02 02 00 00    	jb     9e0c <nimNewObj+0x28c>
    9c0a:	0f 87 f8 01 00 00    	ja     9e08 <nimNewObj+0x288>
    9c10:	48 8b 56 20          	mov    rdx,QWORD PTR [rsi+0x20]
    9c14:	48 39 50 20          	cmp    QWORD PTR [rax+0x20],rdx
    9c18:	75 24                	jne    9c3e <nimNewObj+0xbe>
    9c1a:	48 89 05 07 b5 20 00 	mov    QWORD PTR [rip+0x20b507],rax        # 215128 <allocator__Het9ctRSeaVb4hPekZZNCJQ+0x30a8>
    9c21:	48 8b 40 08          	mov    rax,QWORD PTR [rax+0x8]
    9c25:	48 89 06             	mov    QWORD PTR [rsi],rax
    9c28:	48 8b 05 f9 b4 20 00 	mov    rax,QWORD PTR [rip+0x20b4f9]        # 215128 <allocator__Het9ctRSeaVb4hPekZZNCJQ+0x30a8>
    9c2f:	48 89 70 08          	mov    QWORD PTR [rax+0x8],rsi
    9c33:	48 8b 35 ee b4 20 00 	mov    rsi,QWORD PTR [rip+0x20b4ee]        # 215128 <allocator__Het9ctRSeaVb4hPekZZNCJQ+0x30a8>
    9c3a:	48 8b 56 20          	mov    rdx,QWORD PTR [rsi+0x20]
    9c3e:	48 8b 46 08          	mov    rax,QWORD PTR [rsi+0x8]
    9c42:	48 8b 48 08          	mov    rcx,QWORD PTR [rax+0x8]
    9c46:	48 39 51 20          	cmp    QWORD PTR [rcx+0x20],rdx
    9c4a:	75 24                	jne    9c70 <nimNewObj+0xf0>
    9c4c:	48 89 05 d5 b4 20 00 	mov    QWORD PTR [rip+0x20b4d5],rax        # 215128 <allocator__Het9ctRSeaVb4hPekZZNCJQ+0x30a8>
    9c53:	48 8b 00             	mov    rax,QWORD PTR [rax]
    9c56:	48 89 46 08          	mov    QWORD PTR [rsi+0x8],rax
    9c5a:	48 8b 05 c7 b4 20 00 	mov    rax,QWORD PTR [rip+0x20b4c7]        # 215128 <allocator__Het9ctRSeaVb4hPekZZNCJQ+0x30a8>
    9c61:	48 89 30             	mov    QWORD PTR [rax],rsi
    9c64:	48 8b 05 bd b4 20 00 	mov    rax,QWORD PTR [rip+0x20b4bd]        # 215128 <allocator__Het9ctRSeaVb4hPekZZNCJQ+0x30a8>
    9c6b:	48 83 40 20 01       	add    QWORD PTR [rax+0x20],0x1
    9c70:	49 8b 45 08          	mov    rax,QWORD PTR [r13+0x8]
    9c74:	48 01 05 9d ac 20 00 	add    QWORD PTR [rip+0x20ac9d],rax        # 214918 <allocator__Het9ctRSeaVb4hPekZZNCJQ+0x2898>
    9c7b:	4c 89 e2             	mov    rdx,r12
    9c7e:	31 f6                	xor    esi,esi
    9c80:	48 89 ef             	mov    rdi,rbp
    9c83:	e8 f8 6c ff ff       	call   980 <memset@plt>
    9c88:	48 8d 45 08          	lea    rax,[rbp+0x8]
    9c8c:	48 83 c4 10          	add    rsp,0x10
    9c90:	5b                   	pop    rbx
    9c91:	5d                   	pop    rbp
    9c92:	41 5c                	pop    r12
    9c94:	41 5d                	pop    r13
    9c96:	41 5e                	pop    r14
    9c98:	c3                   	ret    
    9c99:	0f 1f 80 00 00 00 00 	nop    DWORD PTR [rax+0x0]
    9ca0:	48 c1 f8 03          	sar    rax,0x3
    9ca4:	4c 8d 35 d5 83 20 00 	lea    r14,[rip+0x2083d5]        # 212080 <allocator__Het9ctRSeaVb4hPekZZNCJQ>
    9cab:	48 8d 58 02          	lea    rbx,[rax+0x2]
    9caf:	49 8b 04 de          	mov    rax,QWORD PTR [r14+rbx*8]
    9cb3:	48 85 c0             	test   rax,rax
    9cb6:	0f 84 b4 00 00 00    	je     9d70 <nimNewObj+0x1f0>
    9cbc:	48 8b 68 20          	mov    rbp,QWORD PTR [rax+0x20]
    9cc0:	48 85 ed             	test   rbp,rbp
    9cc3:	0f 84 27 01 00 00    	je     9df0 <nimNewObj+0x270>
    9cc9:	48 8b 55 00          	mov    rdx,QWORD PTR [rbp+0x0]
    9ccd:	48 89 50 20          	mov    QWORD PTR [rax+0x20],rdx
    9cd1:	48 8b 50 28          	mov    rdx,QWORD PTR [rax+0x28]
    9cd5:	4c 29 ea             	sub    rdx,r13
    9cd8:	49 39 d5             	cmp    r13,rdx
    9cdb:	48 89 50 28          	mov    QWORD PTR [rax+0x28],rdx
    9cdf:	7e 37                	jle    9d18 <nimNewObj+0x198>
    9ce1:	49 3b 04 de          	cmp    rax,QWORD PTR [r14+rbx*8]
    9ce5:	48 8b 50 10          	mov    rdx,QWORD PTR [rax+0x10]
    9ce9:	0f 84 e5 00 00 00    	je     9dd4 <nimNewObj+0x254>
    9cef:	48 8b 48 18          	mov    rcx,QWORD PTR [rax+0x18]
    9cf3:	48 89 51 10          	mov    QWORD PTR [rcx+0x10],rdx
    9cf7:	48 8b 50 10          	mov    rdx,QWORD PTR [rax+0x10]
    9cfb:	48 85 d2             	test   rdx,rdx
    9cfe:	74 08                	je     9d08 <nimNewObj+0x188>
    9d00:	48 8b 48 18          	mov    rcx,QWORD PTR [rax+0x18]
    9d04:	48 89 4a 18          	mov    QWORD PTR [rdx+0x18],rcx
    9d08:	48 c7 40 10 00 00 00 	mov    QWORD PTR [rax+0x10],0x0
    9d0f:	00 
    9d10:	48 c7 40 18 00 00 00 	mov    QWORD PTR [rax+0x18],0x0
    9d17:	00 
    9d18:	4c 01 2d f9 ab 20 00 	add    QWORD PTR [rip+0x20abf9],r13        # 214918 <allocator__Het9ctRSeaVb4hPekZZNCJQ+0x2898>
    9d1f:	e9 57 ff ff ff       	jmp    9c7b <nimNewObj+0xfb>
    9d24:	0f 1f 40 00          	nop    DWORD PTR [rax+0x0]
    9d28:	e8 e3 ac ff ff       	call   4a10 <getBigChunk__stlXHMKRKFIGOvq8t4ynRQ>
    9d2d:	48 8b 35 f4 b3 20 00 	mov    rsi,QWORD PTR [rip+0x20b3f4]        # 215128 <allocator__Het9ctRSeaVb4hPekZZNCJQ+0x30a8>
    9d34:	49 89 c5             	mov    r13,rax
    9d37:	49 8d 6d 20          	lea    rbp,[r13+0x20]
    9d3b:	48 85 f6             	test   rsi,rsi
    9d3e:	0f 85 ad fe ff ff    	jne    9bf1 <nimNewObj+0x71>
    9d44:	48 8b 05 0d b4 20 00 	mov    rax,QWORD PTR [rip+0x20b40d]        # 215158 <allocator__Het9ctRSeaVb4hPekZZNCJQ+0x30d8>
    9d4b:	48 8d 15 06 b4 20 00 	lea    rdx,[rip+0x20b406]        # 215158 <allocator__Het9ctRSeaVb4hPekZZNCJQ+0x30d8>
    9d52:	48 85 c0             	test   rax,rax
    9d55:	0f 84 55 01 00 00    	je     9eb0 <nimNewObj+0x330>
    9d5b:	48 89 15 c6 b3 20 00 	mov    QWORD PTR [rip+0x20b3c6],rdx        # 215128 <allocator__Het9ctRSeaVb4hPekZZNCJQ+0x30a8>
    9d62:	48 8d 35 ef b3 20 00 	lea    rsi,[rip+0x20b3ef]        # 215158 <allocator__Het9ctRSeaVb4hPekZZNCJQ+0x30d8>
    9d69:	e9 86 fe ff ff       	jmp    9bf4 <nimNewObj+0x74>
    9d6e:	66 90                	xchg   ax,ax
    9d70:	be 00 10 00 00       	mov    esi,0x1000
    9d75:	4c 89 f7             	mov    rdi,r14
    9d78:	e8 93 ac ff ff       	call   4a10 <getBigChunk__stlXHMKRKFIGOvq8t4ynRQ>
    9d7d:	ba c8 0f 00 00       	mov    edx,0xfc8
    9d82:	48 c7 40 10 00 00 00 	mov    QWORD PTR [rax+0x10],0x0
    9d89:	00 
    9d8a:	48 c7 40 20 00 00 00 	mov    QWORD PTR [rax+0x20],0x0
    9d91:	00 
    9d92:	4c 29 ea             	sub    rdx,r13
    9d95:	4c 89 68 08          	mov    QWORD PTR [rax+0x8],r13
    9d99:	4c 89 68 30          	mov    QWORD PTR [rax+0x30],r13
    9d9d:	48 89 50 28          	mov    QWORD PTR [rax+0x28],rdx
    9da1:	48 c7 40 18 00 00 00 	mov    QWORD PTR [rax+0x18],0x0
    9da8:	00 
    9da9:	49 8b 14 de          	mov    rdx,QWORD PTR [r14+rbx*8]
    9dad:	48 89 50 10          	mov    QWORD PTR [rax+0x10],rdx
    9db1:	49 8b 14 de          	mov    rdx,QWORD PTR [r14+rbx*8]
    9db5:	48 85 d2             	test   rdx,rdx
    9db8:	74 04                	je     9dbe <nimNewObj+0x23e>
    9dba:	48 89 42 18          	mov    QWORD PTR [rdx+0x18],rax
    9dbe:	49 89 04 de          	mov    QWORD PTR [r14+rbx*8],rax
    9dc2:	4c 3b 68 28          	cmp    r13,QWORD PTR [rax+0x28]
    9dc6:	48 8d 68 38          	lea    rbp,[rax+0x38]
    9dca:	0f 8e 48 ff ff ff    	jle    9d18 <nimNewObj+0x198>
    9dd0:	48 8b 50 10          	mov    rdx,QWORD PTR [rax+0x10]
    9dd4:	48 85 d2             	test   rdx,rdx
    9dd7:	49 89 14 de          	mov    QWORD PTR [r14+rbx*8],rdx
    9ddb:	0f 84 27 ff ff ff    	je     9d08 <nimNewObj+0x188>
    9de1:	48 c7 42 18 00 00 00 	mov    QWORD PTR [rdx+0x18],0x0
    9de8:	00 
    9de9:	e9 1a ff ff ff       	jmp    9d08 <nimNewObj+0x188>
    9dee:	66 90                	xchg   ax,ax
    9df0:	48 8b 50 30          	mov    rdx,QWORD PTR [rax+0x30]
    9df4:	48 8d 6c 10 38       	lea    rbp,[rax+rdx*1+0x38]
    9df9:	4c 01 ea             	add    rdx,r13
    9dfc:	48 89 50 30          	mov    QWORD PTR [rax+0x30],rdx
    9e00:	e9 cc fe ff ff       	jmp    9cd1 <nimNewObj+0x151>
    9e05:	0f 1f 00             	nop    DWORD PTR [rax]
    9e08:	48 83 c6 08          	add    rsi,0x8
    9e0c:	48 8d 3d 6d 82 20 00 	lea    rdi,[rip+0x20826d]        # 212080 <allocator__Het9ctRSeaVb4hPekZZNCJQ>
    9e13:	48 89 d9             	mov    rcx,rbx
    9e16:	48 89 ea             	mov    rdx,rbp
    9e19:	e8 62 b9 ff ff       	call   5780 <add__3D9aOyz4rDquPZKBlqn0xig>
    9e1e:	48 8b 35 03 b3 20 00 	mov    rsi,QWORD PTR [rip+0x20b303]        # 215128 <allocator__Het9ctRSeaVb4hPekZZNCJQ+0x30a8>
    9e25:	48 8b 06             	mov    rax,QWORD PTR [rsi]
    9e28:	e9 e3 fd ff ff       	jmp    9c10 <nimNewObj+0x90>
    9e2d:	0f 1f 00             	nop    DWORD PTR [rax]
    9e30:	48 8b 05 09 b3 20 00 	mov    rax,QWORD PTR [rip+0x20b309]        # 215140 <allocator__Het9ctRSeaVb4hPekZZNCJQ+0x30c0>
    9e37:	48 85 c0             	test   rax,rax
    9e3a:	0f 84 90 00 00 00    	je     9ed0 <nimNewObj+0x350>
    9e40:	48 8b 10             	mov    rdx,QWORD PTR [rax]
    9e43:	48 89 15 f6 b2 20 00 	mov    QWORD PTR [rip+0x20b2f6],rdx        # 215140 <allocator__Het9ctRSeaVb4hPekZZNCJQ+0x30c0>
    9e4a:	48 89 68 10          	mov    QWORD PTR [rax+0x10],rbp
    9e4e:	48 89 58 18          	mov    QWORD PTR [rax+0x18],rbx
    9e52:	48 8d 15 ff b2 20 00 	lea    rdx,[rip+0x20b2ff]        # 215158 <allocator__Het9ctRSeaVb4hPekZZNCJQ+0x30d8>
    9e59:	48 83 3d f7 b2 20 00 	cmp    QWORD PTR [rip+0x20b2f7],0x0        # 215158 <allocator__Het9ctRSeaVb4hPekZZNCJQ+0x30d8>
    9e60:	00 
    9e61:	74 3d                	je     9ea0 <nimNewObj+0x320>
    9e63:	48 89 10             	mov    QWORD PTR [rax],rdx
    9e66:	48 89 50 08          	mov    QWORD PTR [rax+0x8],rdx
    9e6a:	48 c7 40 20 01 00 00 	mov    QWORD PTR [rax+0x20],0x1
    9e71:	00 
    9e72:	48 89 05 af b2 20 00 	mov    QWORD PTR [rip+0x20b2af],rax        # 215128 <allocator__Het9ctRSeaVb4hPekZZNCJQ+0x30a8>
    9e79:	e9 f2 fd ff ff       	jmp    9c70 <nimNewObj+0xf0>
    9e7e:	66 90                	xchg   ax,ax
    9e80:	48 ba ff ff ff ff ff 	movabs rdx,0x7fffffffffffffff
    9e87:	ff ff 7f 
    9e8a:	31 f6                	xor    esi,esi
    9e8c:	4c 89 e7             	mov    rdi,r12
    9e8f:	e8 4c f1 ff ff       	call   8fe0 <raiseRangeErrorI>
    9e94:	31 c0                	xor    eax,eax
    9e96:	e9 f1 fd ff ff       	jmp    9c8c <nimNewObj+0x10c>
    9e9b:	0f 1f 44 00 00       	nop    DWORD PTR [rax+rax*1+0x0]
    9ea0:	48 89 15 b1 b2 20 00 	mov    QWORD PTR [rip+0x20b2b1],rdx        # 215158 <allocator__Het9ctRSeaVb4hPekZZNCJQ+0x30d8>
    9ea7:	48 89 15 b2 b2 20 00 	mov    QWORD PTR [rip+0x20b2b2],rdx        # 215160 <allocator__Het9ctRSeaVb4hPekZZNCJQ+0x30e0>
    9eae:	eb b3                	jmp    9e63 <nimNewObj+0x2e3>
    9eb0:	48 89 15 a1 b2 20 00 	mov    QWORD PTR [rip+0x20b2a1],rdx        # 215158 <allocator__Het9ctRSeaVb4hPekZZNCJQ+0x30d8>
    9eb7:	48 89 15 a2 b2 20 00 	mov    QWORD PTR [rip+0x20b2a2],rdx        # 215160 <allocator__Het9ctRSeaVb4hPekZZNCJQ+0x30e0>
    9ebe:	48 89 d0             	mov    rax,rdx
    9ec1:	e9 95 fe ff ff       	jmp    9d5b <nimNewObj+0x1db>
    9ec6:	66 2e 0f 1f 84 00 00 	nop    WORD PTR cs:[rax+rax*1+0x0]
    9ecd:	00 00 00 
    9ed0:	4c 8b 35 21 aa 20 00 	mov    r14,QWORD PTR [rip+0x20aa21]        # 2148f8 <allocator__Het9ctRSeaVb4hPekZZNCJQ+0x2878>
    9ed7:	4d 85 f6             	test   r14,r14
    9eda:	74 3b                	je     9f17 <nimNewObj+0x397>
    9edc:	49 8b 16             	mov    rdx,QWORD PTR [r14]
    9edf:	48 83 fa 27          	cmp    rdx,0x27
    9ee3:	7e 32                	jle    9f17 <nimNewObj+0x397>
    9ee5:	49 8b 46 08          	mov    rax,QWORD PTR [r14+0x8]
    9ee9:	48 83 ea 28          	sub    rdx,0x28
    9eed:	49 89 16             	mov    QWORD PTR [r14],rdx
    9ef0:	66 0f ef c0          	pxor   xmm0,xmm0
    9ef4:	48 8b 15 fd a9 20 00 	mov    rdx,QWORD PTR [rip+0x20a9fd]        # 2148f8 <allocator__Het9ctRSeaVb4hPekZZNCJQ+0x2878>
    9efb:	4c 01 f0             	add    rax,r14
    9efe:	48 83 42 08 28       	add    QWORD PTR [rdx+0x8],0x28
    9f03:	48 c7 40 20 00 00 00 	mov    QWORD PTR [rax+0x20],0x0
    9f0a:	00 
    9f0b:	0f 11 00             	movups XMMWORD PTR [rax],xmm0
    9f0e:	0f 11 40 10          	movups XMMWORD PTR [rax+0x10],xmm0
    9f12:	e9 33 ff ff ff       	jmp    9e4a <nimNewObj+0x2ca>
    9f17:	45 31 c9             	xor    r9d,r9d
    9f1a:	ba 03 00 00 00       	mov    edx,0x3
    9f1f:	31 ff                	xor    edi,edi
    9f21:	41 b8 ff ff ff ff    	mov    r8d,0xffffffff
    9f27:	b9 22 00 00 00       	mov    ecx,0x22
    9f2c:	be 00 10 00 00       	mov    esi,0x1000
    9f31:	e8 3a 6a ff ff       	call   970 <mmap@plt>
    9f36:	48 8d 50 ff          	lea    rdx,[rax-0x1]
    9f3a:	48 83 fa fd          	cmp    rdx,0xfffffffffffffffd
    9f3e:	76 0f                	jbe    9f4f <nimNewObj+0x3cf>
    9f40:	48 89 44 24 08       	mov    QWORD PTR [rsp+0x8],rax
    9f45:	e8 b6 71 ff ff       	call   1100 <raiseOutOfMem__mMRdr4sgmnykA9aWeM9aDZlw>
    9f4a:	48 8b 44 24 08       	mov    rax,QWORD PTR [rsp+0x8]
    9f4f:	48 89 05 a2 a9 20 00 	mov    QWORD PTR [rip+0x20a9a2],rax        # 2148f8 <allocator__Het9ctRSeaVb4hPekZZNCJQ+0x2878>
    9f56:	48 81 05 9f a9 20 00 	add    QWORD PTR [rip+0x20a99f],0x1000        # 214900 <allocator__Het9ctRSeaVb4hPekZZNCJQ+0x2880>
    9f5d:	00 10 00 00 
    9f61:	48 c7 00 e8 0f 00 00 	mov    QWORD PTR [rax],0xfe8
    9f68:	48 8b 05 89 a9 20 00 	mov    rax,QWORD PTR [rip+0x20a989]        # 2148f8 <allocator__Het9ctRSeaVb4hPekZZNCJQ+0x2878>
    9f6f:	48 c7 40 08 18 00 00 	mov    QWORD PTR [rax+0x8],0x18
    9f76:	00 
    9f77:	48 8b 05 7a a9 20 00 	mov    rax,QWORD PTR [rip+0x20a97a]        # 2148f8 <allocator__Het9ctRSeaVb4hPekZZNCJQ+0x2878>
    9f7e:	4c 89 70 10          	mov    QWORD PTR [rax+0x10],r14
    9f82:	4c 8b 35 6f a9 20 00 	mov    r14,QWORD PTR [rip+0x20a96f]        # 2148f8 <allocator__Het9ctRSeaVb4hPekZZNCJQ+0x2878>
    9f89:	49 8b 16             	mov    rdx,QWORD PTR [r14]
    9f8c:	e9 54 ff ff ff       	jmp    9ee5 <nimNewObj+0x365>
    9f91:	e8 aa f8 ff ff       	call   9840 <raiseOverflow>
    9f96:	31 c0                	xor    eax,eax
    9f98:	e9 ef fc ff ff       	jmp    9c8c <nimNewObj+0x10c>
    9f9d:	0f 1f 00             	nop    DWORD PTR [rax]

0000000000009fa0 <prepareAdd>:
    9fa0:	41 57                	push   r15
    9fa2:	41 56                	push   r14
    9fa4:	41 55                	push   r13
    9fa6:	41 54                	push   r12
    9fa8:	49 89 fc             	mov    r12,rdi
    9fab:	55                   	push   rbp
    9fac:	53                   	push   rbx
    9fad:	48 89 f5             	mov    rbp,rsi
    9fb0:	48 83 ec 18          	sub    rsp,0x18
    9fb4:	4c 8b 6f 08          	mov    r13,QWORD PTR [rdi+0x8]
    9fb8:	48 8b 37             	mov    rsi,QWORD PTR [rdi]
    9fbb:	4d 85 ed             	test   r13,r13
    9fbe:	0f 84 bc 00 00 00    	je     a080 <prepareAdd+0xe0>
    9fc4:	49 8b 45 00          	mov    rax,QWORD PTR [r13+0x0]
    9fc8:	48 bb 00 00 00 00 00 	movabs rbx,0x4000000000000000
    9fcf:	00 00 40 
    9fd2:	48 21 c3             	and    rbx,rax
    9fd5:	0f 85 a5 00 00 00    	jne    a080 <prepareAdd+0xe0>
    9fdb:	48 01 ee             	add    rsi,rbp
    9fde:	0f 80 a1 00 00 00    	jo     a085 <prepareAdd+0xe5>
    9fe4:	48 ba ff ff ff ff ff 	movabs rdx,0xbfffffffffffffff
    9feb:	ff ff bf 
    9fee:	48 21 d0             	and    rax,rdx
    9ff1:	48 39 c6             	cmp    rsi,rax
    9ff4:	0f 8e 8c 01 00 00    	jle    a186 <prepareAdd+0x1e6>
    9ffa:	48 85 c0             	test   rax,rax
    9ffd:	0f 8e bd 01 00 00    	jle    a1c0 <prepareAdd+0x220>
    a003:	48 3d ff ff 00 00    	cmp    rax,0xffff
    a009:	0f 8f d1 01 00 00    	jg     a1e0 <prepareAdd+0x240>
    a00f:	48 8d 1c 00          	lea    rbx,[rax+rax*1]
    a013:	48 83 c0 09          	add    rax,0x9
    a017:	48 89 c5             	mov    rbp,rax
    a01a:	0f 88 e0 01 00 00    	js     a200 <prepareAdd+0x260>
    a020:	48 39 de             	cmp    rsi,rbx
    a023:	48 0f 4d de          	cmovge rbx,rsi
    a027:	48 89 df             	mov    rdi,rbx
    a02a:	48 83 c7 01          	add    rdi,0x1
    a02e:	70 55                	jo     a085 <prepareAdd+0xe5>
    a030:	48 83 c7 08          	add    rdi,0x8
    a034:	49 89 fd             	mov    r13,rdi
    a037:	70 4c                	jo     a085 <prepareAdd+0xe5>
    a039:	48 85 ff             	test   rdi,rdi
    a03c:	0f 88 8e 01 00 00    	js     a1d0 <prepareAdd+0x230>
    a042:	4d 8b 74 24 08       	mov    r14,QWORD PTR [r12+0x8]
    a047:	0f 85 c5 00 00 00    	jne    a112 <prepareAdd+0x172>
    a04d:	4d 85 f6             	test   r14,r14
    a050:	74 0f                	je     a061 <prepareAdd+0xc1>
    a052:	48 8d 3d 27 80 20 00 	lea    rdi,[rip+0x208027]        # 212080 <allocator__Het9ctRSeaVb4hPekZZNCJQ>
    a059:	4c 89 f6             	mov    rsi,r14
    a05c:	e8 1f 81 ff ff       	call   2180 <rawDealloc__K7uQ6aTKvW6OnOV8EMoNNQ>
    a061:	49 c7 44 24 08 00 00 	mov    QWORD PTR [r12+0x8],0x0
    a068:	00 00 
    a06a:	48 c7 04 25 00 00 00 	mov    QWORD PTR ds:0x0,0x0
    a071:	00 00 00 00 00 
    a076:	0f 0b                	ud2    
    a078:	0f 1f 84 00 00 00 00 	nop    DWORD PTR [rax+rax*1+0x0]
    a07f:	00 
    a080:	48 01 ee             	add    rsi,rbp
    a083:	71 1b                	jno    a0a0 <prepareAdd+0x100>
    a085:	48 83 c4 18          	add    rsp,0x18
    a089:	5b                   	pop    rbx
    a08a:	5d                   	pop    rbp
    a08b:	41 5c                	pop    r12
    a08d:	41 5d                	pop    r13
    a08f:	41 5e                	pop    r14
    a091:	41 5f                	pop    r15
    a093:	e9 a8 f7 ff ff       	jmp    9840 <raiseOverflow>
    a098:	0f 1f 84 00 00 00 00 	nop    DWORD PTR [rax+rax*1+0x0]
    a09f:	00 
    a0a0:	48 83 c6 01          	add    rsi,0x1
    a0a4:	70 df                	jo     a085 <prepareAdd+0xe5>
    a0a6:	48 89 f3             	mov    rbx,rsi
    a0a9:	48 83 c3 08          	add    rbx,0x8
    a0ad:	70 d6                	jo     a085 <prepareAdd+0xe5>
    a0af:	48 85 db             	test   rbx,rbx
    a0b2:	0f 88 e0 00 00 00    	js     a198 <prepareAdd+0x1f8>
    a0b8:	48 8d 3d c1 7f 20 00 	lea    rdi,[rip+0x207fc1]        # 212080 <allocator__Het9ctRSeaVb4hPekZZNCJQ>
    a0bf:	48 89 de             	mov    rsi,rbx
    a0c2:	e8 89 b8 ff ff       	call   5950 <rawAlloc__mE4QEVyMvGRVliDWDngZCQ>
    a0c7:	31 f6                	xor    esi,esi
    a0c9:	48 89 da             	mov    rdx,rbx
    a0cc:	48 89 c7             	mov    rdi,rax
    a0cf:	e8 ac 68 ff ff       	call   980 <memset@plt>
    a0d4:	48 89 ee             	mov    rsi,rbp
    a0d7:	49 03 34 24          	add    rsi,QWORD PTR [r12]
    a0db:	49 89 44 24 08       	mov    QWORD PTR [r12+0x8],rax
    a0e0:	70 a3                	jo     a085 <prepareAdd+0xe5>
    a0e2:	48 89 30             	mov    QWORD PTR [rax],rsi
    a0e5:	49 8b 14 24          	mov    rdx,QWORD PTR [r12]
    a0e9:	48 85 d2             	test   rdx,rdx
    a0ec:	0f 8e 94 00 00 00    	jle    a186 <prepareAdd+0x1e6>
    a0f2:	49 8b 7c 24 08       	mov    rdi,QWORD PTR [r12+0x8]
    a0f7:	48 83 c4 18          	add    rsp,0x18
    a0fb:	49 8d 75 08          	lea    rsi,[r13+0x8]
    a0ff:	5b                   	pop    rbx
    a100:	5d                   	pop    rbp
    a101:	41 5c                	pop    r12
    a103:	41 5d                	pop    r13
    a105:	41 5e                	pop    r14
    a107:	41 5f                	pop    r15
    a109:	48 83 c7 08          	add    rdi,0x8
    a10d:	e9 ae 68 ff ff       	jmp    9c0 <memcpy@plt>
    a112:	48 89 fe             	mov    rsi,rdi
    a115:	48 8d 3d 64 7f 20 00 	lea    rdi,[rip+0x207f64]        # 212080 <allocator__Het9ctRSeaVb4hPekZZNCJQ>
    a11c:	e8 2f b8 ff ff       	call   5950 <rawAlloc__mE4QEVyMvGRVliDWDngZCQ>
    a121:	4d 85 f6             	test   r14,r14
    a124:	49 89 c7             	mov    r15,rax
    a127:	74 3f                	je     a168 <prepareAdd+0x1c8>
    a129:	4c 89 f0             	mov    rax,r14
    a12c:	4c 89 f6             	mov    rsi,r14
    a12f:	4c 89 ff             	mov    rdi,r15
    a132:	48 25 00 f0 ff ff    	and    rax,0xfffffffffffff000
    a138:	48 8b 40 08          	mov    rax,QWORD PTR [rax+0x8]
    a13c:	48 8d 50 e0          	lea    rdx,[rax-0x20]
    a140:	48 3d c8 0f 00 00    	cmp    rax,0xfc8
    a146:	48 0f 4f c2          	cmovg  rax,rdx
    a14a:	49 39 c5             	cmp    r13,rax
    a14d:	49 0f 4e c5          	cmovle rax,r13
    a151:	48 89 c2             	mov    rdx,rax
    a154:	e8 67 68 ff ff       	call   9c0 <memcpy@plt>
    a159:	48 8d 3d 20 7f 20 00 	lea    rdi,[rip+0x207f20]        # 212080 <allocator__Het9ctRSeaVb4hPekZZNCJQ>
    a160:	4c 89 f6             	mov    rsi,r14
    a163:	e8 18 80 ff ff       	call   2180 <rawDealloc__K7uQ6aTKvW6OnOV8EMoNNQ>
    a168:	4c 39 ed             	cmp    rbp,r13
    a16b:	7d 11                	jge    a17e <prepareAdd+0x1de>
    a16d:	4c 89 ea             	mov    rdx,r13
    a170:	49 8d 3c 2f          	lea    rdi,[r15+rbp*1]
    a174:	31 f6                	xor    esi,esi
    a176:	48 29 ea             	sub    rdx,rbp
    a179:	e8 02 68 ff ff       	call   980 <memset@plt>
    a17e:	4d 89 7c 24 08       	mov    QWORD PTR [r12+0x8],r15
    a183:	49 89 1f             	mov    QWORD PTR [r15],rbx
    a186:	48 83 c4 18          	add    rsp,0x18
    a18a:	5b                   	pop    rbx
    a18b:	5d                   	pop    rbp
    a18c:	41 5c                	pop    r12
    a18e:	41 5d                	pop    r13
    a190:	41 5e                	pop    r14
    a192:	41 5f                	pop    r15
    a194:	c3                   	ret    
    a195:	0f 1f 00             	nop    DWORD PTR [rax]
    a198:	48 ba ff ff ff ff ff 	movabs rdx,0x7fffffffffffffff
    a19f:	ff ff 7f 
    a1a2:	31 f6                	xor    esi,esi
    a1a4:	48 89 df             	mov    rdi,rbx
    a1a7:	48 83 c4 18          	add    rsp,0x18
    a1ab:	5b                   	pop    rbx
    a1ac:	5d                   	pop    rbp
    a1ad:	41 5c                	pop    r12
    a1af:	41 5d                	pop    r13
    a1b1:	41 5e                	pop    r14
    a1b3:	41 5f                	pop    r15
    a1b5:	e9 26 ee ff ff       	jmp    8fe0 <raiseRangeErrorI>
    a1ba:	66 0f 1f 44 00 00    	nop    WORD PTR [rax+rax*1+0x0]
    a1c0:	bb 04 00 00 00       	mov    ebx,0x4
    a1c5:	e9 49 fe ff ff       	jmp    a013 <prepareAdd+0x73>
    a1ca:	66 0f 1f 44 00 00    	nop    WORD PTR [rax+rax*1+0x0]
    a1d0:	48 ba ff ff ff ff ff 	movabs rdx,0x7fffffffffffffff
    a1d7:	ff ff 7f 
    a1da:	31 f6                	xor    esi,esi
    a1dc:	eb c9                	jmp    a1a7 <prepareAdd+0x207>
    a1de:	66 90                	xchg   ax,ax
    a1e0:	48 6b d0 03          	imul   rdx,rax,0x3
    a1e4:	70 2b                	jo     a211 <prepareAdd+0x271>
    a1e6:	48 89 d3             	mov    rbx,rdx
    a1e9:	48 c1 eb 3f          	shr    rbx,0x3f
    a1ed:	48 01 d3             	add    rbx,rdx
    a1f0:	48 d1 fb             	sar    rbx,1
    a1f3:	e9 1b fe ff ff       	jmp    a013 <prepareAdd+0x73>
    a1f8:	0f 1f 84 00 00 00 00 	nop    DWORD PTR [rax+rax*1+0x0]
    a1ff:	00 
    a200:	48 ba ff ff ff ff ff 	movabs rdx,0x7fffffffffffffff
    a207:	ff ff 7f 
    a20a:	31 f6                	xor    esi,esi
    a20c:	48 89 ef             	mov    rdi,rbp
    a20f:	eb 96                	jmp    a1a7 <prepareAdd+0x207>
    a211:	48 89 74 24 08       	mov    QWORD PTR [rsp+0x8],rsi
    a216:	48 89 04 24          	mov    QWORD PTR [rsp],rax
    a21a:	e8 21 f6 ff ff       	call   9840 <raiseOverflow>
    a21f:	48 8b 04 24          	mov    rax,QWORD PTR [rsp]
    a223:	48 8b 74 24 08       	mov    rsi,QWORD PTR [rsp+0x8]
    a228:	e9 e6 fd ff ff       	jmp    a013 <prepareAdd+0x73>
    a22d:	0f 1f 00             	nop    DWORD PTR [rax]

000000000000a230 <setLengthStrV2>:
    a230:	55                   	push   rbp
    a231:	53                   	push   rbx
    a232:	48 89 fd             	mov    rbp,rdi
    a235:	48 89 f3             	mov    rbx,rsi
    a238:	48 83 ec 08          	sub    rsp,0x8
    a23c:	48 85 f6             	test   rsi,rsi
    a23f:	75 2f                	jne    a270 <setLengthStrV2+0x40>
    a241:	48 8b 77 08          	mov    rsi,QWORD PTR [rdi+0x8]
    a245:	48 85 f6             	test   rsi,rsi
    a248:	74 0f                	je     a259 <setLengthStrV2+0x29>
    a24a:	48 b8 00 00 00 00 00 	movabs rax,0x4000000000000000
    a251:	00 00 40 
    a254:	48 85 06             	test   QWORD PTR [rsi],rax
    a257:	74 67                	je     a2c0 <setLengthStrV2+0x90>
    a259:	48 c7 45 08 00 00 00 	mov    QWORD PTR [rbp+0x8],0x0
    a260:	00 
    a261:	48 89 5d 00          	mov    QWORD PTR [rbp+0x0],rbx
    a265:	48 83 c4 08          	add    rsp,0x8
    a269:	5b                   	pop    rbx
    a26a:	5d                   	pop    rbp
    a26b:	c3                   	ret    
    a26c:	0f 1f 40 00          	nop    DWORD PTR [rax+0x0]
    a270:	48 8b 07             	mov    rax,QWORD PTR [rdi]
    a273:	48 39 f0             	cmp    rax,rsi
    a276:	7d 28                	jge    a2a0 <setLengthStrV2+0x70>
    a278:	48 89 de             	mov    rsi,rbx
    a27b:	48 29 c6             	sub    rsi,rax
    a27e:	70 4e                	jo     a2ce <setLengthStrV2+0x9e>
    a280:	48 89 ef             	mov    rdi,rbp
    a283:	e8 18 fd ff ff       	call   9fa0 <prepareAdd>
    a288:	48 8b 55 08          	mov    rdx,QWORD PTR [rbp+0x8]
    a28c:	c6 44 1a 08 00       	mov    BYTE PTR [rdx+rbx*1+0x8],0x0
    a291:	48 89 5d 00          	mov    QWORD PTR [rbp+0x0],rbx
    a295:	48 83 c4 08          	add    rsp,0x8
    a299:	5b                   	pop    rbx
    a29a:	5d                   	pop    rbp
    a29b:	c3                   	ret    
    a29c:	0f 1f 40 00          	nop    DWORD PTR [rax+0x0]
    a2a0:	48 8b 57 08          	mov    rdx,QWORD PTR [rdi+0x8]
    a2a4:	48 85 d2             	test   rdx,rdx
    a2a7:	74 cf                	je     a278 <setLengthStrV2+0x48>
    a2a9:	48 b9 00 00 00 00 00 	movabs rcx,0x4000000000000000
    a2b0:	00 00 40 
    a2b3:	48 85 0a             	test   QWORD PTR [rdx],rcx
    a2b6:	74 d4                	je     a28c <setLengthStrV2+0x5c>
    a2b8:	eb be                	jmp    a278 <setLengthStrV2+0x48>
    a2ba:	66 0f 1f 44 00 00    	nop    WORD PTR [rax+rax*1+0x0]
    a2c0:	48 8d 3d b9 7d 20 00 	lea    rdi,[rip+0x207db9]        # 212080 <allocator__Het9ctRSeaVb4hPekZZNCJQ>
    a2c7:	e8 b4 7e ff ff       	call   2180 <rawDealloc__K7uQ6aTKvW6OnOV8EMoNNQ>
    a2cc:	eb 8b                	jmp    a259 <setLengthStrV2+0x29>
    a2ce:	58                   	pop    rax
    a2cf:	5b                   	pop    rbx
    a2d0:	5d                   	pop    rbp
    a2d1:	e9 6a f5 ff ff       	jmp    9840 <raiseOverflow>
    a2d6:	66 2e 0f 1f 84 00 00 	nop    WORD PTR cs:[rax+rax*1+0x0]
    a2dd:	00 00 00 

000000000000a2e0 <nimPrepareStrMutationV2>:
    a2e0:	41 54                	push   r12
    a2e2:	55                   	push   rbp
    a2e3:	53                   	push   rbx
    a2e4:	4c 8b 67 08          	mov    r12,QWORD PTR [rdi+0x8]
    a2e8:	4d 85 e4             	test   r12,r12
    a2eb:	0f 84 7f 00 00 00    	je     a370 <nimPrepareStrMutationV2+0x90>
    a2f1:	48 b8 00 00 00 00 00 	movabs rax,0x4000000000000000
    a2f8:	00 00 40 
    a2fb:	49 85 04 24          	test   QWORD PTR [r12],rax
    a2ff:	74 6f                	je     a370 <nimPrepareStrMutationV2+0x90>
    a301:	48 8b 17             	mov    rdx,QWORD PTR [rdi]
    a304:	48 83 c2 01          	add    rdx,0x1
    a308:	70 6b                	jo     a375 <nimPrepareStrMutationV2+0x95>
    a30a:	48 89 d3             	mov    rbx,rdx
    a30d:	48 83 c3 08          	add    rbx,0x8
    a311:	70 62                	jo     a375 <nimPrepareStrMutationV2+0x95>
    a313:	48 85 db             	test   rbx,rbx
    a316:	78 68                	js     a380 <nimPrepareStrMutationV2+0xa0>
    a318:	48 89 fd             	mov    rbp,rdi
    a31b:	48 8d 3d 5e 7d 20 00 	lea    rdi,[rip+0x207d5e]        # 212080 <allocator__Het9ctRSeaVb4hPekZZNCJQ>
    a322:	48 89 de             	mov    rsi,rbx
    a325:	e8 26 b6 ff ff       	call   5950 <rawAlloc__mE4QEVyMvGRVliDWDngZCQ>
    a32a:	31 f6                	xor    esi,esi
    a32c:	48 89 da             	mov    rdx,rbx
    a32f:	48 89 c7             	mov    rdi,rax
    a332:	e8 49 66 ff ff       	call   980 <memset@plt>
    a337:	48 89 c1             	mov    rcx,rax
    a33a:	48 89 45 08          	mov    QWORD PTR [rbp+0x8],rax
    a33e:	48 8b 45 00          	mov    rax,QWORD PTR [rbp+0x0]
    a342:	48 89 01             	mov    QWORD PTR [rcx],rax
    a345:	48 8b 45 00          	mov    rax,QWORD PTR [rbp+0x0]
    a349:	48 83 c0 01          	add    rax,0x1
    a34d:	70 26                	jo     a375 <nimPrepareStrMutationV2+0x95>
    a34f:	48 85 c0             	test   rax,rax
    a352:	78 4c                	js     a3a0 <nimPrepareStrMutationV2+0xc0>
    a354:	48 8b 7d 08          	mov    rdi,QWORD PTR [rbp+0x8]
    a358:	49 8d 74 24 08       	lea    rsi,[r12+0x8]
    a35d:	48 89 c2             	mov    rdx,rax
    a360:	5b                   	pop    rbx
    a361:	5d                   	pop    rbp
    a362:	41 5c                	pop    r12
    a364:	48 83 c7 08          	add    rdi,0x8
    a368:	e9 53 66 ff ff       	jmp    9c0 <memcpy@plt>
    a36d:	0f 1f 00             	nop    DWORD PTR [rax]
    a370:	5b                   	pop    rbx
    a371:	5d                   	pop    rbp
    a372:	41 5c                	pop    r12
    a374:	c3                   	ret    
    a375:	5b                   	pop    rbx
    a376:	5d                   	pop    rbp
    a377:	41 5c                	pop    r12
    a379:	e9 c2 f4 ff ff       	jmp    9840 <raiseOverflow>
    a37e:	66 90                	xchg   ax,ax
    a380:	48 89 df             	mov    rdi,rbx
    a383:	48 ba ff ff ff ff ff 	movabs rdx,0x7fffffffffffffff
    a38a:	ff ff 7f 
    a38d:	31 f6                	xor    esi,esi
    a38f:	5b                   	pop    rbx
    a390:	5d                   	pop    rbp
    a391:	41 5c                	pop    r12
    a393:	e9 48 ec ff ff       	jmp    8fe0 <raiseRangeErrorI>
    a398:	0f 1f 84 00 00 00 00 	nop    DWORD PTR [rax+rax*1+0x0]
    a39f:	00 
    a3a0:	5b                   	pop    rbx
    a3a1:	5d                   	pop    rbp
    a3a2:	41 5c                	pop    r12
    a3a4:	48 ba ff ff ff ff ff 	movabs rdx,0x7fffffffffffffff
    a3ab:	ff ff 7f 
    a3ae:	31 f6                	xor    esi,esi
    a3b0:	48 89 c7             	mov    rdi,rax
    a3b3:	e9 28 ec ff ff       	jmp    8fe0 <raiseRangeErrorI>
    a3b8:	0f 1f 84 00 00 00 00 	nop    DWORD PTR [rax+rax*1+0x0]
    a3bf:	00 

000000000000a3c0 <newSeqPayload>:
    a3c0:	41 57                	push   r15
    a3c2:	41 56                	push   r14
    a3c4:	41 55                	push   r13
    a3c6:	41 54                	push   r12
    a3c8:	55                   	push   rbp
    a3c9:	53                   	push   rbx
    a3ca:	48 83 ec 18          	sub    rsp,0x18
    a3ce:	48 85 ff             	test   rdi,rdi
    a3d1:	0f 8e 19 03 00 00    	jle    a6f0 <newSeqPayload+0x330>
    a3d7:	48 0f af f7          	imul   rsi,rdi
    a3db:	48 89 fd             	mov    rbp,rdi
    a3de:	0f 80 29 02 00 00    	jo     a60d <newSeqPayload+0x24d>
    a3e4:	49 89 f5             	mov    r13,rsi
    a3e7:	49 83 c5 08          	add    r13,0x8
    a3eb:	0f 80 1c 02 00 00    	jo     a60d <newSeqPayload+0x24d>
    a3f1:	4d 85 ed             	test   r13,r13
    a3f4:	0f 88 16 03 00 00    	js     a710 <newSeqPayload+0x350>
    a3fa:	48 8d 46 0f          	lea    rax,[rsi+0xf]
    a3fe:	49 89 c6             	mov    r14,rax
    a401:	49 83 e6 f8          	and    r14,0xfffffffffffffff8
    a405:	49 81 fe c8 0f 00 00 	cmp    r14,0xfc8
    a40c:	0f 8e ce 00 00 00    	jle    a4e0 <newSeqPayload+0x120>
    a412:	48 8d 5e 28          	lea    rbx,[rsi+0x28]
    a416:	48 8d 3d 63 7c 20 00 	lea    rdi,[rip+0x207c63]        # 212080 <allocator__Het9ctRSeaVb4hPekZZNCJQ>
    a41d:	48 81 fb 00 00 00 3f 	cmp    rbx,0x3f000000
    a424:	48 89 de             	mov    rsi,rbx
    a427:	0f 8e 5b 01 00 00    	jle    a588 <newSeqPayload+0x1c8>
    a42d:	e8 3e b0 ff ff       	call   5470 <getHugeChunk__stlXHMKRKFIGOvq8t4ynRQ_3>
    a432:	48 8b 35 ef ac 20 00 	mov    rsi,QWORD PTR [rip+0x20acef]        # 215128 <allocator__Het9ctRSeaVb4hPekZZNCJQ+0x30a8>
    a439:	49 89 c6             	mov    r14,rax
    a43c:	4d 8d 66 20          	lea    r12,[r14+0x20]
    a440:	48 85 f6             	test   rsi,rsi
    a443:	0f 84 5b 01 00 00    	je     a5a4 <newSeqPayload+0x1e4>
    a449:	48 8b 06             	mov    rax,QWORD PTR [rsi]
    a44c:	4c 01 e3             	add    rbx,r12
    a44f:	48 39 c6             	cmp    rsi,rax
    a452:	0f 84 48 02 00 00    	je     a6a0 <newSeqPayload+0x2e0>
    a458:	4c 3b 66 10          	cmp    r12,QWORD PTR [rsi+0x10]
    a45c:	0f 82 8a 01 00 00    	jb     a5ec <newSeqPayload+0x22c>
    a462:	0f 87 80 01 00 00    	ja     a5e8 <newSeqPayload+0x228>
    a468:	48 8b 56 20          	mov    rdx,QWORD PTR [rsi+0x20]
    a46c:	48 39 50 20          	cmp    QWORD PTR [rax+0x20],rdx
    a470:	75 24                	jne    a496 <newSeqPayload+0xd6>
    a472:	48 89 05 af ac 20 00 	mov    QWORD PTR [rip+0x20acaf],rax        # 215128 <allocator__Het9ctRSeaVb4hPekZZNCJQ+0x30a8>
    a479:	48 8b 40 08          	mov    rax,QWORD PTR [rax+0x8]
    a47d:	48 89 06             	mov    QWORD PTR [rsi],rax
    a480:	48 8b 05 a1 ac 20 00 	mov    rax,QWORD PTR [rip+0x20aca1]        # 215128 <allocator__Het9ctRSeaVb4hPekZZNCJQ+0x30a8>
    a487:	48 89 70 08          	mov    QWORD PTR [rax+0x8],rsi
    a48b:	48 8b 35 96 ac 20 00 	mov    rsi,QWORD PTR [rip+0x20ac96]        # 215128 <allocator__Het9ctRSeaVb4hPekZZNCJQ+0x30a8>
    a492:	48 8b 56 20          	mov    rdx,QWORD PTR [rsi+0x20]
    a496:	48 8b 46 08          	mov    rax,QWORD PTR [rsi+0x8]
    a49a:	48 8b 48 08          	mov    rcx,QWORD PTR [rax+0x8]
    a49e:	48 39 51 20          	cmp    QWORD PTR [rcx+0x20],rdx
    a4a2:	75 24                	jne    a4c8 <newSeqPayload+0x108>
    a4a4:	48 89 05 7d ac 20 00 	mov    QWORD PTR [rip+0x20ac7d],rax        # 215128 <allocator__Het9ctRSeaVb4hPekZZNCJQ+0x30a8>
    a4ab:	48 8b 00             	mov    rax,QWORD PTR [rax]
    a4ae:	48 89 46 08          	mov    QWORD PTR [rsi+0x8],rax
    a4b2:	48 8b 05 6f ac 20 00 	mov    rax,QWORD PTR [rip+0x20ac6f]        # 215128 <allocator__Het9ctRSeaVb4hPekZZNCJQ+0x30a8>
    a4b9:	48 89 30             	mov    QWORD PTR [rax],rsi
    a4bc:	48 8b 05 65 ac 20 00 	mov    rax,QWORD PTR [rip+0x20ac65]        # 215128 <allocator__Het9ctRSeaVb4hPekZZNCJQ+0x30a8>
    a4c3:	48 83 40 20 01       	add    QWORD PTR [rax+0x20],0x1
    a4c8:	49 8b 46 08          	mov    rax,QWORD PTR [r14+0x8]
    a4cc:	48 01 05 45 a4 20 00 	add    QWORD PTR [rip+0x20a445],rax        # 214918 <allocator__Het9ctRSeaVb4hPekZZNCJQ+0x2898>
    a4d3:	e9 87 00 00 00       	jmp    a55f <newSeqPayload+0x19f>
    a4d8:	0f 1f 84 00 00 00 00 	nop    DWORD PTR [rax+rax*1+0x0]
    a4df:	00 
    a4e0:	48 c1 f8 03          	sar    rax,0x3
    a4e4:	4c 8d 3d 95 7b 20 00 	lea    r15,[rip+0x207b95]        # 212080 <allocator__Het9ctRSeaVb4hPekZZNCJQ>
    a4eb:	48 8d 58 02          	lea    rbx,[rax+0x2]
    a4ef:	49 8b 04 df          	mov    rax,QWORD PTR [r15+rbx*8]
    a4f3:	48 85 c0             	test   rax,rax
    a4f6:	0f 84 24 01 00 00    	je     a620 <newSeqPayload+0x260>
    a4fc:	4c 8b 60 20          	mov    r12,QWORD PTR [rax+0x20]
    a500:	4d 85 e4             	test   r12,r12
    a503:	0f 84 c7 00 00 00    	je     a5d0 <newSeqPayload+0x210>
    a509:	49 8b 14 24          	mov    rdx,QWORD PTR [r12]
    a50d:	48 89 50 20          	mov    QWORD PTR [rax+0x20],rdx
    a511:	48 8b 50 28          	mov    rdx,QWORD PTR [rax+0x28]
    a515:	4c 29 f2             	sub    rdx,r14
    a518:	49 39 d6             	cmp    r14,rdx
    a51b:	48 89 50 28          	mov    QWORD PTR [rax+0x28],rdx
    a51f:	7e 37                	jle    a558 <newSeqPayload+0x198>
    a521:	49 3b 04 df          	cmp    rax,QWORD PTR [r15+rbx*8]
    a525:	48 8b 50 10          	mov    rdx,QWORD PTR [rax+0x10]
    a529:	0f 84 55 01 00 00    	je     a684 <newSeqPayload+0x2c4>
    a52f:	48 8b 48 18          	mov    rcx,QWORD PTR [rax+0x18]
    a533:	48 89 51 10          	mov    QWORD PTR [rcx+0x10],rdx
    a537:	48 8b 50 10          	mov    rdx,QWORD PTR [rax+0x10]
    a53b:	48 85 d2             	test   rdx,rdx
    a53e:	74 08                	je     a548 <newSeqPayload+0x188>
    a540:	48 8b 48 18          	mov    rcx,QWORD PTR [rax+0x18]
    a544:	48 89 4a 18          	mov    QWORD PTR [rdx+0x18],rcx
    a548:	48 c7 40 10 00 00 00 	mov    QWORD PTR [rax+0x10],0x0
    a54f:	00 
    a550:	48 c7 40 18 00 00 00 	mov    QWORD PTR [rax+0x18],0x0
    a557:	00 
    a558:	4c 01 35 b9 a3 20 00 	add    QWORD PTR [rip+0x20a3b9],r14        # 214918 <allocator__Het9ctRSeaVb4hPekZZNCJQ+0x2898>
    a55f:	4c 89 ea             	mov    rdx,r13
    a562:	31 f6                	xor    esi,esi
    a564:	4c 89 e7             	mov    rdi,r12
    a567:	e8 14 64 ff ff       	call   980 <memset@plt>
    a56c:	49 89 2c 24          	mov    QWORD PTR [r12],rbp
    a570:	48 83 c4 18          	add    rsp,0x18
    a574:	4c 89 e0             	mov    rax,r12
    a577:	5b                   	pop    rbx
    a578:	5d                   	pop    rbp
    a579:	41 5c                	pop    r12
    a57b:	41 5d                	pop    r13
    a57d:	41 5e                	pop    r14
    a57f:	41 5f                	pop    r15
    a581:	c3                   	ret    
    a582:	66 0f 1f 44 00 00    	nop    WORD PTR [rax+rax*1+0x0]
    a588:	e8 83 a4 ff ff       	call   4a10 <getBigChunk__stlXHMKRKFIGOvq8t4ynRQ>
    a58d:	48 8b 35 94 ab 20 00 	mov    rsi,QWORD PTR [rip+0x20ab94]        # 215128 <allocator__Het9ctRSeaVb4hPekZZNCJQ+0x30a8>
    a594:	49 89 c6             	mov    r14,rax
    a597:	4d 8d 66 20          	lea    r12,[r14+0x20]
    a59b:	48 85 f6             	test   rsi,rsi
    a59e:	0f 85 a5 fe ff ff    	jne    a449 <newSeqPayload+0x89>
    a5a4:	48 8b 05 ad ab 20 00 	mov    rax,QWORD PTR [rip+0x20abad]        # 215158 <allocator__Het9ctRSeaVb4hPekZZNCJQ+0x30d8>
    a5ab:	48 8d 15 a6 ab 20 00 	lea    rdx,[rip+0x20aba6]        # 215158 <allocator__Het9ctRSeaVb4hPekZZNCJQ+0x30d8>
    a5b2:	48 85 c0             	test   rax,rax
    a5b5:	0f 84 75 01 00 00    	je     a730 <newSeqPayload+0x370>
    a5bb:	48 89 15 66 ab 20 00 	mov    QWORD PTR [rip+0x20ab66],rdx        # 215128 <allocator__Het9ctRSeaVb4hPekZZNCJQ+0x30a8>
    a5c2:	48 8d 35 8f ab 20 00 	lea    rsi,[rip+0x20ab8f]        # 215158 <allocator__Het9ctRSeaVb4hPekZZNCJQ+0x30d8>
    a5c9:	e9 7e fe ff ff       	jmp    a44c <newSeqPayload+0x8c>
    a5ce:	66 90                	xchg   ax,ax
    a5d0:	48 8b 50 30          	mov    rdx,QWORD PTR [rax+0x30]
    a5d4:	4c 8d 64 10 38       	lea    r12,[rax+rdx*1+0x38]
    a5d9:	4c 01 f2             	add    rdx,r14
    a5dc:	48 89 50 30          	mov    QWORD PTR [rax+0x30],rdx
    a5e0:	e9 2c ff ff ff       	jmp    a511 <newSeqPayload+0x151>
    a5e5:	0f 1f 00             	nop    DWORD PTR [rax]
    a5e8:	48 83 c6 08          	add    rsi,0x8
    a5ec:	48 8d 3d 8d 7a 20 00 	lea    rdi,[rip+0x207a8d]        # 212080 <allocator__Het9ctRSeaVb4hPekZZNCJQ>
    a5f3:	48 89 d9             	mov    rcx,rbx
    a5f6:	4c 89 e2             	mov    rdx,r12
    a5f9:	e8 82 b1 ff ff       	call   5780 <add__3D9aOyz4rDquPZKBlqn0xig>
    a5fe:	48 8b 35 23 ab 20 00 	mov    rsi,QWORD PTR [rip+0x20ab23]        # 215128 <allocator__Het9ctRSeaVb4hPekZZNCJQ+0x30a8>
    a605:	48 8b 06             	mov    rax,QWORD PTR [rsi]
    a608:	e9 5b fe ff ff       	jmp    a468 <newSeqPayload+0xa8>
    a60d:	e8 2e f2 ff ff       	call   9840 <raiseOverflow>
    a612:	45 31 e4             	xor    r12d,r12d
    a615:	e9 56 ff ff ff       	jmp    a570 <newSeqPayload+0x1b0>
    a61a:	66 0f 1f 44 00 00    	nop    WORD PTR [rax+rax*1+0x0]
    a620:	be 00 10 00 00       	mov    esi,0x1000
    a625:	4c 89 ff             	mov    rdi,r15
    a628:	e8 e3 a3 ff ff       	call   4a10 <getBigChunk__stlXHMKRKFIGOvq8t4ynRQ>
    a62d:	ba c8 0f 00 00       	mov    edx,0xfc8
    a632:	48 c7 40 10 00 00 00 	mov    QWORD PTR [rax+0x10],0x0
    a639:	00 
    a63a:	48 c7 40 20 00 00 00 	mov    QWORD PTR [rax+0x20],0x0
    a641:	00 
    a642:	4c 29 f2             	sub    rdx,r14
    a645:	4c 89 70 08          	mov    QWORD PTR [rax+0x8],r14
    a649:	4c 89 70 30          	mov    QWORD PTR [rax+0x30],r14
    a64d:	48 89 50 28          	mov    QWORD PTR [rax+0x28],rdx
    a651:	48 c7 40 18 00 00 00 	mov    QWORD PTR [rax+0x18],0x0
    a658:	00 
    a659:	49 8b 14 df          	mov    rdx,QWORD PTR [r15+rbx*8]
    a65d:	48 89 50 10          	mov    QWORD PTR [rax+0x10],rdx
    a661:	49 8b 14 df          	mov    rdx,QWORD PTR [r15+rbx*8]
    a665:	48 85 d2             	test   rdx,rdx
    a668:	74 04                	je     a66e <newSeqPayload+0x2ae>
    a66a:	48 89 42 18          	mov    QWORD PTR [rdx+0x18],rax
    a66e:	49 89 04 df          	mov    QWORD PTR [r15+rbx*8],rax
    a672:	4c 39 70 28          	cmp    QWORD PTR [rax+0x28],r14
    a676:	4c 8d 60 38          	lea    r12,[rax+0x38]
    a67a:	0f 8d d8 fe ff ff    	jge    a558 <newSeqPayload+0x198>
    a680:	48 8b 50 10          	mov    rdx,QWORD PTR [rax+0x10]
    a684:	48 85 d2             	test   rdx,rdx
    a687:	49 89 14 df          	mov    QWORD PTR [r15+rbx*8],rdx
    a68b:	0f 84 b7 fe ff ff    	je     a548 <newSeqPayload+0x188>
    a691:	48 c7 42 18 00 00 00 	mov    QWORD PTR [rdx+0x18],0x0
    a698:	00 
    a699:	e9 aa fe ff ff       	jmp    a548 <newSeqPayload+0x188>
    a69e:	66 90                	xchg   ax,ax
    a6a0:	48 8b 05 99 aa 20 00 	mov    rax,QWORD PTR [rip+0x20aa99]        # 215140 <allocator__Het9ctRSeaVb4hPekZZNCJQ+0x30c0>
    a6a7:	48 85 c0             	test   rax,rax
    a6aa:	0f 84 a0 00 00 00    	je     a750 <newSeqPayload+0x390>
    a6b0:	48 8b 10             	mov    rdx,QWORD PTR [rax]
    a6b3:	48 89 15 86 aa 20 00 	mov    QWORD PTR [rip+0x20aa86],rdx        # 215140 <allocator__Het9ctRSeaVb4hPekZZNCJQ+0x30c0>
    a6ba:	4c 89 60 10          	mov    QWORD PTR [rax+0x10],r12
    a6be:	48 89 58 18          	mov    QWORD PTR [rax+0x18],rbx
    a6c2:	48 8d 15 8f aa 20 00 	lea    rdx,[rip+0x20aa8f]        # 215158 <allocator__Het9ctRSeaVb4hPekZZNCJQ+0x30d8>
    a6c9:	48 83 3d 87 aa 20 00 	cmp    QWORD PTR [rip+0x20aa87],0x0        # 215158 <allocator__Het9ctRSeaVb4hPekZZNCJQ+0x30d8>
    a6d0:	00 
    a6d1:	74 2d                	je     a700 <newSeqPayload+0x340>
    a6d3:	48 89 10             	mov    QWORD PTR [rax],rdx
    a6d6:	48 89 50 08          	mov    QWORD PTR [rax+0x8],rdx
    a6da:	48 c7 40 20 01 00 00 	mov    QWORD PTR [rax+0x20],0x1
    a6e1:	00 
    a6e2:	48 89 05 3f aa 20 00 	mov    QWORD PTR [rip+0x20aa3f],rax        # 215128 <allocator__Het9ctRSeaVb4hPekZZNCJQ+0x30a8>
    a6e9:	e9 da fd ff ff       	jmp    a4c8 <newSeqPayload+0x108>
    a6ee:	66 90                	xchg   ax,ax
    a6f0:	45 31 e4             	xor    r12d,r12d
    a6f3:	e9 78 fe ff ff       	jmp    a570 <newSeqPayload+0x1b0>
    a6f8:	0f 1f 84 00 00 00 00 	nop    DWORD PTR [rax+rax*1+0x0]
    a6ff:	00 
    a700:	48 89 15 51 aa 20 00 	mov    QWORD PTR [rip+0x20aa51],rdx        # 215158 <allocator__Het9ctRSeaVb4hPekZZNCJQ+0x30d8>
    a707:	48 89 15 52 aa 20 00 	mov    QWORD PTR [rip+0x20aa52],rdx        # 215160 <allocator__Het9ctRSeaVb4hPekZZNCJQ+0x30e0>
    a70e:	eb c3                	jmp    a6d3 <newSeqPayload+0x313>
    a710:	48 ba ff ff ff ff ff 	movabs rdx,0x7fffffffffffffff
    a717:	ff ff 7f 
    a71a:	31 f6                	xor    esi,esi
    a71c:	4c 89 ef             	mov    rdi,r13
    a71f:	e8 bc e8 ff ff       	call   8fe0 <raiseRangeErrorI>
    a724:	45 31 e4             	xor    r12d,r12d
    a727:	e9 44 fe ff ff       	jmp    a570 <newSeqPayload+0x1b0>
    a72c:	0f 1f 40 00          	nop    DWORD PTR [rax+0x0]
    a730:	48 89 15 21 aa 20 00 	mov    QWORD PTR [rip+0x20aa21],rdx        # 215158 <allocator__Het9ctRSeaVb4hPekZZNCJQ+0x30d8>
    a737:	48 89 15 22 aa 20 00 	mov    QWORD PTR [rip+0x20aa22],rdx        # 215160 <allocator__Het9ctRSeaVb4hPekZZNCJQ+0x30e0>
    a73e:	48 89 d0             	mov    rax,rdx
    a741:	e9 75 fe ff ff       	jmp    a5bb <newSeqPayload+0x1fb>
    a746:	66 2e 0f 1f 84 00 00 	nop    WORD PTR cs:[rax+rax*1+0x0]
    a74d:	00 00 00 
    a750:	4c 8b 3d a1 a1 20 00 	mov    r15,QWORD PTR [rip+0x20a1a1]        # 2148f8 <allocator__Het9ctRSeaVb4hPekZZNCJQ+0x2878>
    a757:	4d 85 ff             	test   r15,r15
    a75a:	74 3b                	je     a797 <newSeqPayload+0x3d7>
    a75c:	49 8b 17             	mov    rdx,QWORD PTR [r15]
    a75f:	48 83 fa 27          	cmp    rdx,0x27
    a763:	7e 32                	jle    a797 <newSeqPayload+0x3d7>
    a765:	49 8b 47 08          	mov    rax,QWORD PTR [r15+0x8]
    a769:	48 83 ea 28          	sub    rdx,0x28
    a76d:	49 89 17             	mov    QWORD PTR [r15],rdx
    a770:	66 0f ef c0          	pxor   xmm0,xmm0
    a774:	48 8b 15 7d a1 20 00 	mov    rdx,QWORD PTR [rip+0x20a17d]        # 2148f8 <allocator__Het9ctRSeaVb4hPekZZNCJQ+0x2878>
    a77b:	4c 01 f8             	add    rax,r15
    a77e:	48 83 42 08 28       	add    QWORD PTR [rdx+0x8],0x28
    a783:	48 c7 40 20 00 00 00 	mov    QWORD PTR [rax+0x20],0x0
    a78a:	00 
    a78b:	0f 11 00             	movups XMMWORD PTR [rax],xmm0
    a78e:	0f 11 40 10          	movups XMMWORD PTR [rax+0x10],xmm0
    a792:	e9 23 ff ff ff       	jmp    a6ba <newSeqPayload+0x2fa>
    a797:	45 31 c9             	xor    r9d,r9d
    a79a:	ba 03 00 00 00       	mov    edx,0x3
    a79f:	31 ff                	xor    edi,edi
    a7a1:	41 b8 ff ff ff ff    	mov    r8d,0xffffffff
    a7a7:	b9 22 00 00 00       	mov    ecx,0x22
    a7ac:	be 00 10 00 00       	mov    esi,0x1000
    a7b1:	e8 ba 61 ff ff       	call   970 <mmap@plt>
    a7b6:	48 8d 50 ff          	lea    rdx,[rax-0x1]
    a7ba:	48 83 fa fd          	cmp    rdx,0xfffffffffffffffd
    a7be:	76 0f                	jbe    a7cf <newSeqPayload+0x40f>
    a7c0:	48 89 44 24 08       	mov    QWORD PTR [rsp+0x8],rax
    a7c5:	e8 36 69 ff ff       	call   1100 <raiseOutOfMem__mMRdr4sgmnykA9aWeM9aDZlw>
    a7ca:	48 8b 44 24 08       	mov    rax,QWORD PTR [rsp+0x8]
    a7cf:	48 89 05 22 a1 20 00 	mov    QWORD PTR [rip+0x20a122],rax        # 2148f8 <allocator__Het9ctRSeaVb4hPekZZNCJQ+0x2878>
    a7d6:	48 81 05 1f a1 20 00 	add    QWORD PTR [rip+0x20a11f],0x1000        # 214900 <allocator__Het9ctRSeaVb4hPekZZNCJQ+0x2880>
    a7dd:	00 10 00 00 
    a7e1:	48 c7 00 e8 0f 00 00 	mov    QWORD PTR [rax],0xfe8
    a7e8:	48 8b 05 09 a1 20 00 	mov    rax,QWORD PTR [rip+0x20a109]        # 2148f8 <allocator__Het9ctRSeaVb4hPekZZNCJQ+0x2878>
    a7ef:	48 c7 40 08 18 00 00 	mov    QWORD PTR [rax+0x8],0x18
    a7f6:	00 
    a7f7:	48 8b 05 fa a0 20 00 	mov    rax,QWORD PTR [rip+0x20a0fa]        # 2148f8 <allocator__Het9ctRSeaVb4hPekZZNCJQ+0x2878>
    a7fe:	4c 89 78 10          	mov    QWORD PTR [rax+0x10],r15
    a802:	4c 8b 3d ef a0 20 00 	mov    r15,QWORD PTR [rip+0x20a0ef]        # 2148f8 <allocator__Het9ctRSeaVb4hPekZZNCJQ+0x2878>
    a809:	49 8b 17             	mov    rdx,QWORD PTR [r15]
    a80c:	e9 54 ff ff ff       	jmp    a765 <newSeqPayload+0x3a5>
    a811:	0f 1f 44 00 00       	nop    DWORD PTR [rax+rax*1+0x0]
    a816:	66 2e 0f 1f 84 00 00 	nop    WORD PTR cs:[rax+rax*1+0x0]
    a81d:	00 00 00 

000000000000a820 <eqdestroy___p2qOs6FbMz4AMrZbQK62BQ>:
    a820:	55                   	push   rbp
    a821:	53                   	push   rbx
    a822:	48 89 fb             	mov    rbx,rdi
    a825:	48 83 ec 08          	sub    rsp,0x8
    a829:	48 8b 7f 08          	mov    rdi,QWORD PTR [rdi+0x8]
    a82d:	48 85 ff             	test   rdi,rdi
    a830:	74 22                	je     a854 <eqdestroy___p2qOs6FbMz4AMrZbQK62BQ+0x34>
    a832:	48 8b 47 f8          	mov    rax,QWORD PTR [rdi-0x8]
    a836:	48 8d 6f f8          	lea    rbp,[rdi-0x8]
    a83a:	48 a9 f8 ff ff ff    	test   rax,0xfffffffffffffff8
    a840:	0f 84 b2 00 00 00    	je     a8f8 <eqdestroy___p2qOs6FbMz4AMrZbQK62BQ+0xd8>
    a846:	48 83 e8 08          	sub    rax,0x8
    a84a:	0f 80 31 01 00 00    	jo     a981 <eqdestroy___p2qOs6FbMz4AMrZbQK62BQ+0x161>
    a850:	48 89 47 f8          	mov    QWORD PTR [rdi-0x8],rax
    a854:	48 8b 73 20          	mov    rsi,QWORD PTR [rbx+0x20]
    a858:	48 85 f6             	test   rsi,rsi
    a85b:	74 13                	je     a870 <eqdestroy___p2qOs6FbMz4AMrZbQK62BQ+0x50>
    a85d:	48 b8 00 00 00 00 00 	movabs rax,0x4000000000000000
    a864:	00 00 40 
    a867:	48 85 06             	test   QWORD PTR [rsi],rax
    a86a:	0f 84 e8 00 00 00    	je     a958 <eqdestroy___p2qOs6FbMz4AMrZbQK62BQ+0x138>
    a870:	48 8b 73 30          	mov    rsi,QWORD PTR [rbx+0x30]
    a874:	48 85 f6             	test   rsi,rsi
    a877:	74 13                	je     a88c <eqdestroy___p2qOs6FbMz4AMrZbQK62BQ+0x6c>
    a879:	48 b8 00 00 00 00 00 	movabs rax,0x4000000000000000
    a880:	00 00 40 
    a883:	48 85 06             	test   QWORD PTR [rsi],rax
    a886:	0f 84 a4 00 00 00    	je     a930 <eqdestroy___p2qOs6FbMz4AMrZbQK62BQ+0x110>
    a88c:	48 8b 7b 40          	mov    rdi,QWORD PTR [rbx+0x40]
    a890:	48 85 ff             	test   rdi,rdi
    a893:	74 1e                	je     a8b3 <eqdestroy___p2qOs6FbMz4AMrZbQK62BQ+0x93>
    a895:	48 8b 47 f8          	mov    rax,QWORD PTR [rdi-0x8]
    a899:	48 8d 6f f8          	lea    rbp,[rdi-0x8]
    a89d:	48 a9 f8 ff ff ff    	test   rax,0xfffffffffffffff8
    a8a3:	74 1b                	je     a8c0 <eqdestroy___p2qOs6FbMz4AMrZbQK62BQ+0xa0>
    a8a5:	48 83 e8 08          	sub    rax,0x8
    a8a9:	0f 80 ca 00 00 00    	jo     a979 <eqdestroy___p2qOs6FbMz4AMrZbQK62BQ+0x159>
    a8af:	48 89 47 f8          	mov    QWORD PTR [rdi-0x8],rax
    a8b3:	48 83 c4 08          	add    rsp,0x8
    a8b7:	5b                   	pop    rbx
    a8b8:	5d                   	pop    rbp
    a8b9:	c3                   	ret    
    a8ba:	66 0f 1f 44 00 00    	nop    WORD PTR [rax+rax*1+0x0]
    a8c0:	48 8b 07             	mov    rax,QWORD PTR [rdi]
    a8c3:	48 8b 00             	mov    rax,QWORD PTR [rax]
    a8c6:	48 85 c0             	test   rax,rax
    a8c9:	74 0c                	je     a8d7 <eqdestroy___p2qOs6FbMz4AMrZbQK62BQ+0xb7>
    a8cb:	ff d0                	call   rax
    a8cd:	48 83 3d 3b ab 20 00 	cmp    QWORD PTR [rip+0x20ab3b],0x0        # 215410 <nimInErrorMode__759bT87luu8XGcbkw13FUjA>
    a8d4:	00 
    a8d5:	75 0f                	jne    a8e6 <eqdestroy___p2qOs6FbMz4AMrZbQK62BQ+0xc6>
    a8d7:	48 8d 3d a2 77 20 00 	lea    rdi,[rip+0x2077a2]        # 212080 <allocator__Het9ctRSeaVb4hPekZZNCJQ>
    a8de:	48 89 ee             	mov    rsi,rbp
    a8e1:	e8 9a 78 ff ff       	call   2180 <rawDealloc__K7uQ6aTKvW6OnOV8EMoNNQ>
    a8e6:	48 c7 43 40 00 00 00 	mov    QWORD PTR [rbx+0x40],0x0
    a8ed:	00 
    a8ee:	48 83 c4 08          	add    rsp,0x8
    a8f2:	5b                   	pop    rbx
    a8f3:	5d                   	pop    rbp
    a8f4:	c3                   	ret    
    a8f5:	0f 1f 00             	nop    DWORD PTR [rax]
    a8f8:	48 8b 07             	mov    rax,QWORD PTR [rdi]
    a8fb:	48 8b 00             	mov    rax,QWORD PTR [rax]
    a8fe:	48 85 c0             	test   rax,rax
    a901:	74 0c                	je     a90f <eqdestroy___p2qOs6FbMz4AMrZbQK62BQ+0xef>
    a903:	ff d0                	call   rax
    a905:	48 83 3d 03 ab 20 00 	cmp    QWORD PTR [rip+0x20ab03],0x0        # 215410 <nimInErrorMode__759bT87luu8XGcbkw13FUjA>
    a90c:	00 
    a90d:	75 0f                	jne    a91e <eqdestroy___p2qOs6FbMz4AMrZbQK62BQ+0xfe>
    a90f:	48 8d 3d 6a 77 20 00 	lea    rdi,[rip+0x20776a]        # 212080 <allocator__Het9ctRSeaVb4hPekZZNCJQ>
    a916:	48 89 ee             	mov    rsi,rbp
    a919:	e8 62 78 ff ff       	call   2180 <rawDealloc__K7uQ6aTKvW6OnOV8EMoNNQ>
    a91e:	48 c7 43 08 00 00 00 	mov    QWORD PTR [rbx+0x8],0x0
    a925:	00 
    a926:	e9 29 ff ff ff       	jmp    a854 <eqdestroy___p2qOs6FbMz4AMrZbQK62BQ+0x34>
    a92b:	0f 1f 44 00 00       	nop    DWORD PTR [rax+rax*1+0x0]
    a930:	48 8d 3d 49 77 20 00 	lea    rdi,[rip+0x207749]        # 212080 <allocator__Het9ctRSeaVb4hPekZZNCJQ>
    a937:	e8 44 78 ff ff       	call   2180 <rawDealloc__K7uQ6aTKvW6OnOV8EMoNNQ>
    a93c:	48 c7 43 30 00 00 00 	mov    QWORD PTR [rbx+0x30],0x0
    a943:	00 
    a944:	48 c7 43 28 00 00 00 	mov    QWORD PTR [rbx+0x28],0x0
    a94b:	00 
    a94c:	e9 3b ff ff ff       	jmp    a88c <eqdestroy___p2qOs6FbMz4AMrZbQK62BQ+0x6c>
    a951:	0f 1f 80 00 00 00 00 	nop    DWORD PTR [rax+0x0]
    a958:	48 8d 3d 21 77 20 00 	lea    rdi,[rip+0x207721]        # 212080 <allocator__Het9ctRSeaVb4hPekZZNCJQ>
    a95f:	e8 1c 78 ff ff       	call   2180 <rawDealloc__K7uQ6aTKvW6OnOV8EMoNNQ>
    a964:	48 c7 43 20 00 00 00 	mov    QWORD PTR [rbx+0x20],0x0
    a96b:	00 
    a96c:	48 c7 43 18 00 00 00 	mov    QWORD PTR [rbx+0x18],0x0
    a973:	00 
    a974:	e9 f7 fe ff ff       	jmp    a870 <eqdestroy___p2qOs6FbMz4AMrZbQK62BQ+0x50>
    a979:	58                   	pop    rax
    a97a:	5b                   	pop    rbx
    a97b:	5d                   	pop    rbp
    a97c:	e9 bf ee ff ff       	jmp    9840 <raiseOverflow>
    a981:	e8 ba ee ff ff       	call   9840 <raiseOverflow>
    a986:	e9 c9 fe ff ff       	jmp    a854 <eqdestroy___p2qOs6FbMz4AMrZbQK62BQ+0x34>
    a98b:	0f 1f 44 00 00       	nop    DWORD PTR [rax+rax*1+0x0]

000000000000a990 <eqdestroy___sS6ejz4UvAmG5PeEn1axqQ>:
    a990:	55                   	push   rbp
    a991:	53                   	push   rbx
    a992:	48 89 fb             	mov    rbx,rdi
    a995:	48 83 ec 08          	sub    rsp,0x8
    a999:	48 8b 7f 08          	mov    rdi,QWORD PTR [rdi+0x8]
    a99d:	48 85 ff             	test   rdi,rdi
    a9a0:	74 22                	je     a9c4 <eqdestroy___sS6ejz4UvAmG5PeEn1axqQ+0x34>
    a9a2:	48 8b 47 f8          	mov    rax,QWORD PTR [rdi-0x8]
    a9a6:	48 8d 6f f8          	lea    rbp,[rdi-0x8]
    a9aa:	48 a9 f8 ff ff ff    	test   rax,0xfffffffffffffff8
    a9b0:	0f 84 b2 00 00 00    	je     aa68 <eqdestroy___sS6ejz4UvAmG5PeEn1axqQ+0xd8>
    a9b6:	48 83 e8 08          	sub    rax,0x8
    a9ba:	0f 80 31 01 00 00    	jo     aaf1 <eqdestroy___sS6ejz4UvAmG5PeEn1axqQ+0x161>
    a9c0:	48 89 47 f8          	mov    QWORD PTR [rdi-0x8],rax
    a9c4:	48 8b 73 20          	mov    rsi,QWORD PTR [rbx+0x20]
    a9c8:	48 85 f6             	test   rsi,rsi
    a9cb:	74 13                	je     a9e0 <eqdestroy___sS6ejz4UvAmG5PeEn1axqQ+0x50>
    a9cd:	48 b8 00 00 00 00 00 	movabs rax,0x4000000000000000
    a9d4:	00 00 40 
    a9d7:	48 85 06             	test   QWORD PTR [rsi],rax
    a9da:	0f 84 e8 00 00 00    	je     aac8 <eqdestroy___sS6ejz4UvAmG5PeEn1axqQ+0x138>
    a9e0:	48 8b 73 30          	mov    rsi,QWORD PTR [rbx+0x30]
    a9e4:	48 85 f6             	test   rsi,rsi
    a9e7:	74 13                	je     a9fc <eqdestroy___sS6ejz4UvAmG5PeEn1axqQ+0x6c>
    a9e9:	48 b8 00 00 00 00 00 	movabs rax,0x4000000000000000
    a9f0:	00 00 40 
    a9f3:	48 85 06             	test   QWORD PTR [rsi],rax
    a9f6:	0f 84 a4 00 00 00    	je     aaa0 <eqdestroy___sS6ejz4UvAmG5PeEn1axqQ+0x110>
    a9fc:	48 8b 7b 40          	mov    rdi,QWORD PTR [rbx+0x40]
    aa00:	48 85 ff             	test   rdi,rdi
    aa03:	74 1e                	je     aa23 <eqdestroy___sS6ejz4UvAmG5PeEn1axqQ+0x93>
    aa05:	48 8b 47 f8          	mov    rax,QWORD PTR [rdi-0x8]
    aa09:	48 8d 6f f8          	lea    rbp,[rdi-0x8]
    aa0d:	48 a9 f8 ff ff ff    	test   rax,0xfffffffffffffff8
    aa13:	74 1b                	je     aa30 <eqdestroy___sS6ejz4UvAmG5PeEn1axqQ+0xa0>
    aa15:	48 83 e8 08          	sub    rax,0x8
    aa19:	0f 80 ca 00 00 00    	jo     aae9 <eqdestroy___sS6ejz4UvAmG5PeEn1axqQ+0x159>
    aa1f:	48 89 47 f8          	mov    QWORD PTR [rdi-0x8],rax
    aa23:	48 83 c4 08          	add    rsp,0x8
    aa27:	5b                   	pop    rbx
    aa28:	5d                   	pop    rbp
    aa29:	c3                   	ret    
    aa2a:	66 0f 1f 44 00 00    	nop    WORD PTR [rax+rax*1+0x0]
    aa30:	48 8b 07             	mov    rax,QWORD PTR [rdi]
    aa33:	48 8b 00             	mov    rax,QWORD PTR [rax]
    aa36:	48 85 c0             	test   rax,rax
    aa39:	74 0c                	je     aa47 <eqdestroy___sS6ejz4UvAmG5PeEn1axqQ+0xb7>
    aa3b:	ff d0                	call   rax
    aa3d:	48 83 3d cb a9 20 00 	cmp    QWORD PTR [rip+0x20a9cb],0x0        # 215410 <nimInErrorMode__759bT87luu8XGcbkw13FUjA>
    aa44:	00 
    aa45:	75 0f                	jne    aa56 <eqdestroy___sS6ejz4UvAmG5PeEn1axqQ+0xc6>
    aa47:	48 8d 3d 32 76 20 00 	lea    rdi,[rip+0x207632]        # 212080 <allocator__Het9ctRSeaVb4hPekZZNCJQ>
    aa4e:	48 89 ee             	mov    rsi,rbp
    aa51:	e8 2a 77 ff ff       	call   2180 <rawDealloc__K7uQ6aTKvW6OnOV8EMoNNQ>
    aa56:	48 c7 43 40 00 00 00 	mov    QWORD PTR [rbx+0x40],0x0
    aa5d:	00 
    aa5e:	48 83 c4 08          	add    rsp,0x8
    aa62:	5b                   	pop    rbx
    aa63:	5d                   	pop    rbp
    aa64:	c3                   	ret    
    aa65:	0f 1f 00             	nop    DWORD PTR [rax]
    aa68:	48 8b 07             	mov    rax,QWORD PTR [rdi]
    aa6b:	48 8b 00             	mov    rax,QWORD PTR [rax]
    aa6e:	48 85 c0             	test   rax,rax
    aa71:	74 0c                	je     aa7f <eqdestroy___sS6ejz4UvAmG5PeEn1axqQ+0xef>
    aa73:	ff d0                	call   rax
    aa75:	48 83 3d 93 a9 20 00 	cmp    QWORD PTR [rip+0x20a993],0x0        # 215410 <nimInErrorMode__759bT87luu8XGcbkw13FUjA>
    aa7c:	00 
    aa7d:	75 0f                	jne    aa8e <eqdestroy___sS6ejz4UvAmG5PeEn1axqQ+0xfe>
    aa7f:	48 8d 3d fa 75 20 00 	lea    rdi,[rip+0x2075fa]        # 212080 <allocator__Het9ctRSeaVb4hPekZZNCJQ>
    aa86:	48 89 ee             	mov    rsi,rbp
    aa89:	e8 f2 76 ff ff       	call   2180 <rawDealloc__K7uQ6aTKvW6OnOV8EMoNNQ>
    aa8e:	48 c7 43 08 00 00 00 	mov    QWORD PTR [rbx+0x8],0x0
    aa95:	00 
    aa96:	e9 29 ff ff ff       	jmp    a9c4 <eqdestroy___sS6ejz4UvAmG5PeEn1axqQ+0x34>
    aa9b:	0f 1f 44 00 00       	nop    DWORD PTR [rax+rax*1+0x0]
    aaa0:	48 8d 3d d9 75 20 00 	lea    rdi,[rip+0x2075d9]        # 212080 <allocator__Het9ctRSeaVb4hPekZZNCJQ>
    aaa7:	e8 d4 76 ff ff       	call   2180 <rawDealloc__K7uQ6aTKvW6OnOV8EMoNNQ>
    aaac:	48 c7 43 30 00 00 00 	mov    QWORD PTR [rbx+0x30],0x0
    aab3:	00 
    aab4:	48 c7 43 28 00 00 00 	mov    QWORD PTR [rbx+0x28],0x0
    aabb:	00 
    aabc:	e9 3b ff ff ff       	jmp    a9fc <eqdestroy___sS6ejz4UvAmG5PeEn1axqQ+0x6c>
    aac1:	0f 1f 80 00 00 00 00 	nop    DWORD PTR [rax+0x0]
    aac8:	48 8d 3d b1 75 20 00 	lea    rdi,[rip+0x2075b1]        # 212080 <allocator__Het9ctRSeaVb4hPekZZNCJQ>
    aacf:	e8 ac 76 ff ff       	call   2180 <rawDealloc__K7uQ6aTKvW6OnOV8EMoNNQ>
    aad4:	48 c7 43 20 00 00 00 	mov    QWORD PTR [rbx+0x20],0x0
    aadb:	00 
    aadc:	48 c7 43 18 00 00 00 	mov    QWORD PTR [rbx+0x18],0x0
    aae3:	00 
    aae4:	e9 f7 fe ff ff       	jmp    a9e0 <eqdestroy___sS6ejz4UvAmG5PeEn1axqQ+0x50>
    aae9:	58                   	pop    rax
    aaea:	5b                   	pop    rbx
    aaeb:	5d                   	pop    rbp
    aaec:	e9 4f ed ff ff       	jmp    9840 <raiseOverflow>
    aaf1:	e8 4a ed ff ff       	call   9840 <raiseOverflow>
    aaf6:	e9 c9 fe ff ff       	jmp    a9c4 <eqdestroy___sS6ejz4UvAmG5PeEn1axqQ+0x34>
    aafb:	0f 1f 44 00 00       	nop    DWORD PTR [rax+rax*1+0x0]

000000000000ab00 <eqdestroy___sRq6fVNuRqehA44ZL38Jbw>:
    ab00:	55                   	push   rbp
    ab01:	53                   	push   rbx
    ab02:	48 89 fb             	mov    rbx,rdi
    ab05:	48 83 ec 08          	sub    rsp,0x8
    ab09:	48 8b 7f 08          	mov    rdi,QWORD PTR [rdi+0x8]
    ab0d:	48 85 ff             	test   rdi,rdi
    ab10:	74 22                	je     ab34 <eqdestroy___sRq6fVNuRqehA44ZL38Jbw+0x34>
    ab12:	48 8b 47 f8          	mov    rax,QWORD PTR [rdi-0x8]
    ab16:	48 8d 6f f8          	lea    rbp,[rdi-0x8]
    ab1a:	48 a9 f8 ff ff ff    	test   rax,0xfffffffffffffff8
    ab20:	0f 84 b2 00 00 00    	je     abd8 <eqdestroy___sRq6fVNuRqehA44ZL38Jbw+0xd8>
    ab26:	48 83 e8 08          	sub    rax,0x8
    ab2a:	0f 80 31 01 00 00    	jo     ac61 <eqdestroy___sRq6fVNuRqehA44ZL38Jbw+0x161>
    ab30:	48 89 47 f8          	mov    QWORD PTR [rdi-0x8],rax
    ab34:	48 8b 73 20          	mov    rsi,QWORD PTR [rbx+0x20]
    ab38:	48 85 f6             	test   rsi,rsi
    ab3b:	74 13                	je     ab50 <eqdestroy___sRq6fVNuRqehA44ZL38Jbw+0x50>
    ab3d:	48 b8 00 00 00 00 00 	movabs rax,0x4000000000000000
    ab44:	00 00 40 
    ab47:	48 85 06             	test   QWORD PTR [rsi],rax
    ab4a:	0f 84 e8 00 00 00    	je     ac38 <eqdestroy___sRq6fVNuRqehA44ZL38Jbw+0x138>
    ab50:	48 8b 73 30          	mov    rsi,QWORD PTR [rbx+0x30]
    ab54:	48 85 f6             	test   rsi,rsi
    ab57:	74 13                	je     ab6c <eqdestroy___sRq6fVNuRqehA44ZL38Jbw+0x6c>
    ab59:	48 b8 00 00 00 00 00 	movabs rax,0x4000000000000000
    ab60:	00 00 40 
    ab63:	48 85 06             	test   QWORD PTR [rsi],rax
    ab66:	0f 84 a4 00 00 00    	je     ac10 <eqdestroy___sRq6fVNuRqehA44ZL38Jbw+0x110>
    ab6c:	48 8b 7b 40          	mov    rdi,QWORD PTR [rbx+0x40]
    ab70:	48 85 ff             	test   rdi,rdi
    ab73:	74 1e                	je     ab93 <eqdestroy___sRq6fVNuRqehA44ZL38Jbw+0x93>
    ab75:	48 8b 47 f8          	mov    rax,QWORD PTR [rdi-0x8]
    ab79:	48 8d 6f f8          	lea    rbp,[rdi-0x8]
    ab7d:	48 a9 f8 ff ff ff    	test   rax,0xfffffffffffffff8
    ab83:	74 1b                	je     aba0 <eqdestroy___sRq6fVNuRqehA44ZL38Jbw+0xa0>
    ab85:	48 83 e8 08          	sub    rax,0x8
    ab89:	0f 80 ca 00 00 00    	jo     ac59 <eqdestroy___sRq6fVNuRqehA44ZL38Jbw+0x159>
    ab8f:	48 89 47 f8          	mov    QWORD PTR [rdi-0x8],rax
    ab93:	48 83 c4 08          	add    rsp,0x8
    ab97:	5b                   	pop    rbx
    ab98:	5d                   	pop    rbp
    ab99:	c3                   	ret    
    ab9a:	66 0f 1f 44 00 00    	nop    WORD PTR [rax+rax*1+0x0]
    aba0:	48 8b 07             	mov    rax,QWORD PTR [rdi]
    aba3:	48 8b 00             	mov    rax,QWORD PTR [rax]
    aba6:	48 85 c0             	test   rax,rax
    aba9:	74 0c                	je     abb7 <eqdestroy___sRq6fVNuRqehA44ZL38Jbw+0xb7>
    abab:	ff d0                	call   rax
    abad:	48 83 3d 5b a8 20 00 	cmp    QWORD PTR [rip+0x20a85b],0x0        # 215410 <nimInErrorMode__759bT87luu8XGcbkw13FUjA>
    abb4:	00 
    abb5:	75 0f                	jne    abc6 <eqdestroy___sRq6fVNuRqehA44ZL38Jbw+0xc6>
    abb7:	48 8d 3d c2 74 20 00 	lea    rdi,[rip+0x2074c2]        # 212080 <allocator__Het9ctRSeaVb4hPekZZNCJQ>
    abbe:	48 89 ee             	mov    rsi,rbp
    abc1:	e8 ba 75 ff ff       	call   2180 <rawDealloc__K7uQ6aTKvW6OnOV8EMoNNQ>
    abc6:	48 c7 43 40 00 00 00 	mov    QWORD PTR [rbx+0x40],0x0
    abcd:	00 
    abce:	48 83 c4 08          	add    rsp,0x8
    abd2:	5b                   	pop    rbx
    abd3:	5d                   	pop    rbp
    abd4:	c3                   	ret    
    abd5:	0f 1f 00             	nop    DWORD PTR [rax]
    abd8:	48 8b 07             	mov    rax,QWORD PTR [rdi]
    abdb:	48 8b 00             	mov    rax,QWORD PTR [rax]
    abde:	48 85 c0             	test   rax,rax
    abe1:	74 0c                	je     abef <eqdestroy___sRq6fVNuRqehA44ZL38Jbw+0xef>
    abe3:	ff d0                	call   rax
    abe5:	48 83 3d 23 a8 20 00 	cmp    QWORD PTR [rip+0x20a823],0x0        # 215410 <nimInErrorMode__759bT87luu8XGcbkw13FUjA>
    abec:	00 
    abed:	75 0f                	jne    abfe <eqdestroy___sRq6fVNuRqehA44ZL38Jbw+0xfe>
    abef:	48 8d 3d 8a 74 20 00 	lea    rdi,[rip+0x20748a]        # 212080 <allocator__Het9ctRSeaVb4hPekZZNCJQ>
    abf6:	48 89 ee             	mov    rsi,rbp
    abf9:	e8 82 75 ff ff       	call   2180 <rawDealloc__K7uQ6aTKvW6OnOV8EMoNNQ>
    abfe:	48 c7 43 08 00 00 00 	mov    QWORD PTR [rbx+0x8],0x0
    ac05:	00 
    ac06:	e9 29 ff ff ff       	jmp    ab34 <eqdestroy___sRq6fVNuRqehA44ZL38Jbw+0x34>
    ac0b:	0f 1f 44 00 00       	nop    DWORD PTR [rax+rax*1+0x0]
    ac10:	48 8d 3d 69 74 20 00 	lea    rdi,[rip+0x207469]        # 212080 <allocator__Het9ctRSeaVb4hPekZZNCJQ>
    ac17:	e8 64 75 ff ff       	call   2180 <rawDealloc__K7uQ6aTKvW6OnOV8EMoNNQ>
    ac1c:	48 c7 43 30 00 00 00 	mov    QWORD PTR [rbx+0x30],0x0
    ac23:	00 
    ac24:	48 c7 43 28 00 00 00 	mov    QWORD PTR [rbx+0x28],0x0
    ac2b:	00 
    ac2c:	e9 3b ff ff ff       	jmp    ab6c <eqdestroy___sRq6fVNuRqehA44ZL38Jbw+0x6c>
    ac31:	0f 1f 80 00 00 00 00 	nop    DWORD PTR [rax+0x0]
    ac38:	48 8d 3d 41 74 20 00 	lea    rdi,[rip+0x207441]        # 212080 <allocator__Het9ctRSeaVb4hPekZZNCJQ>
    ac3f:	e8 3c 75 ff ff       	call   2180 <rawDealloc__K7uQ6aTKvW6OnOV8EMoNNQ>
    ac44:	48 c7 43 20 00 00 00 	mov    QWORD PTR [rbx+0x20],0x0
    ac4b:	00 
    ac4c:	48 c7 43 18 00 00 00 	mov    QWORD PTR [rbx+0x18],0x0
    ac53:	00 
    ac54:	e9 f7 fe ff ff       	jmp    ab50 <eqdestroy___sRq6fVNuRqehA44ZL38Jbw+0x50>
    ac59:	58                   	pop    rax
    ac5a:	5b                   	pop    rbx
    ac5b:	5d                   	pop    rbp
    ac5c:	e9 df eb ff ff       	jmp    9840 <raiseOverflow>
    ac61:	e8 da eb ff ff       	call   9840 <raiseOverflow>
    ac66:	e9 c9 fe ff ff       	jmp    ab34 <eqdestroy___sRq6fVNuRqehA44ZL38Jbw+0x34>
    ac6b:	0f 1f 44 00 00       	nop    DWORD PTR [rax+rax*1+0x0]

000000000000ac70 <eqdestroy___CiaBzGuSuzPVhX0vLVmlsg>:
    ac70:	55                   	push   rbp
    ac71:	53                   	push   rbx
    ac72:	48 89 fb             	mov    rbx,rdi
    ac75:	48 83 ec 08          	sub    rsp,0x8
    ac79:	48 8b 7f 08          	mov    rdi,QWORD PTR [rdi+0x8]
    ac7d:	48 85 ff             	test   rdi,rdi
    ac80:	74 22                	je     aca4 <eqdestroy___CiaBzGuSuzPVhX0vLVmlsg+0x34>
    ac82:	48 8b 47 f8          	mov    rax,QWORD PTR [rdi-0x8]
    ac86:	48 8d 6f f8          	lea    rbp,[rdi-0x8]
    ac8a:	48 a9 f8 ff ff ff    	test   rax,0xfffffffffffffff8
    ac90:	0f 84 b2 00 00 00    	je     ad48 <eqdestroy___CiaBzGuSuzPVhX0vLVmlsg+0xd8>
    ac96:	48 83 e8 08          	sub    rax,0x8
    ac9a:	0f 80 31 01 00 00    	jo     add1 <eqdestroy___CiaBzGuSuzPVhX0vLVmlsg+0x161>
    aca0:	48 89 47 f8          	mov    QWORD PTR [rdi-0x8],rax
    aca4:	48 8b 73 20          	mov    rsi,QWORD PTR [rbx+0x20]
    aca8:	48 85 f6             	test   rsi,rsi
    acab:	74 13                	je     acc0 <eqdestroy___CiaBzGuSuzPVhX0vLVmlsg+0x50>
    acad:	48 b8 00 00 00 00 00 	movabs rax,0x4000000000000000
    acb4:	00 00 40 
    acb7:	48 85 06             	test   QWORD PTR [rsi],rax
    acba:	0f 84 e8 00 00 00    	je     ada8 <eqdestroy___CiaBzGuSuzPVhX0vLVmlsg+0x138>
    acc0:	48 8b 73 30          	mov    rsi,QWORD PTR [rbx+0x30]
    acc4:	48 85 f6             	test   rsi,rsi
    acc7:	74 13                	je     acdc <eqdestroy___CiaBzGuSuzPVhX0vLVmlsg+0x6c>
    acc9:	48 b8 00 00 00 00 00 	movabs rax,0x4000000000000000
    acd0:	00 00 40 
    acd3:	48 85 06             	test   QWORD PTR [rsi],rax
    acd6:	0f 84 a4 00 00 00    	je     ad80 <eqdestroy___CiaBzGuSuzPVhX0vLVmlsg+0x110>
    acdc:	48 8b 7b 40          	mov    rdi,QWORD PTR [rbx+0x40]
    ace0:	48 85 ff             	test   rdi,rdi
    ace3:	74 1e                	je     ad03 <eqdestroy___CiaBzGuSuzPVhX0vLVmlsg+0x93>
    ace5:	48 8b 47 f8          	mov    rax,QWORD PTR [rdi-0x8]
    ace9:	48 8d 6f f8          	lea    rbp,[rdi-0x8]
    aced:	48 a9 f8 ff ff ff    	test   rax,0xfffffffffffffff8
    acf3:	74 1b                	je     ad10 <eqdestroy___CiaBzGuSuzPVhX0vLVmlsg+0xa0>
    acf5:	48 83 e8 08          	sub    rax,0x8
    acf9:	0f 80 ca 00 00 00    	jo     adc9 <eqdestroy___CiaBzGuSuzPVhX0vLVmlsg+0x159>
    acff:	48 89 47 f8          	mov    QWORD PTR [rdi-0x8],rax
    ad03:	48 83 c4 08          	add    rsp,0x8
    ad07:	5b                   	pop    rbx
    ad08:	5d                   	pop    rbp
    ad09:	c3                   	ret    
    ad0a:	66 0f 1f 44 00 00    	nop    WORD PTR [rax+rax*1+0x0]
    ad10:	48 8b 07             	mov    rax,QWORD PTR [rdi]
    ad13:	48 8b 00             	mov    rax,QWORD PTR [rax]
    ad16:	48 85 c0             	test   rax,rax
    ad19:	74 0c                	je     ad27 <eqdestroy___CiaBzGuSuzPVhX0vLVmlsg+0xb7>
    ad1b:	ff d0                	call   rax
    ad1d:	48 83 3d eb a6 20 00 	cmp    QWORD PTR [rip+0x20a6eb],0x0        # 215410 <nimInErrorMode__759bT87luu8XGcbkw13FUjA>
    ad24:	00 
    ad25:	75 0f                	jne    ad36 <eqdestroy___CiaBzGuSuzPVhX0vLVmlsg+0xc6>
    ad27:	48 8d 3d 52 73 20 00 	lea    rdi,[rip+0x207352]        # 212080 <allocator__Het9ctRSeaVb4hPekZZNCJQ>
    ad2e:	48 89 ee             	mov    rsi,rbp
    ad31:	e8 4a 74 ff ff       	call   2180 <rawDealloc__K7uQ6aTKvW6OnOV8EMoNNQ>
    ad36:	48 c7 43 40 00 00 00 	mov    QWORD PTR [rbx+0x40],0x0
    ad3d:	00 
    ad3e:	48 83 c4 08          	add    rsp,0x8
    ad42:	5b                   	pop    rbx
    ad43:	5d                   	pop    rbp
    ad44:	c3                   	ret    
    ad45:	0f 1f 00             	nop    DWORD PTR [rax]
    ad48:	48 8b 07             	mov    rax,QWORD PTR [rdi]
    ad4b:	48 8b 00             	mov    rax,QWORD PTR [rax]
    ad4e:	48 85 c0             	test   rax,rax
    ad51:	74 0c                	je     ad5f <eqdestroy___CiaBzGuSuzPVhX0vLVmlsg+0xef>
    ad53:	ff d0                	call   rax
    ad55:	48 83 3d b3 a6 20 00 	cmp    QWORD PTR [rip+0x20a6b3],0x0        # 215410 <nimInErrorMode__759bT87luu8XGcbkw13FUjA>
    ad5c:	00 
    ad5d:	75 0f                	jne    ad6e <eqdestroy___CiaBzGuSuzPVhX0vLVmlsg+0xfe>
    ad5f:	48 8d 3d 1a 73 20 00 	lea    rdi,[rip+0x20731a]        # 212080 <allocator__Het9ctRSeaVb4hPekZZNCJQ>
    ad66:	48 89 ee             	mov    rsi,rbp
    ad69:	e8 12 74 ff ff       	call   2180 <rawDealloc__K7uQ6aTKvW6OnOV8EMoNNQ>
    ad6e:	48 c7 43 08 00 00 00 	mov    QWORD PTR [rbx+0x8],0x0
    ad75:	00 
    ad76:	e9 29 ff ff ff       	jmp    aca4 <eqdestroy___CiaBzGuSuzPVhX0vLVmlsg+0x34>
    ad7b:	0f 1f 44 00 00       	nop    DWORD PTR [rax+rax*1+0x0]
    ad80:	48 8d 3d f9 72 20 00 	lea    rdi,[rip+0x2072f9]        # 212080 <allocator__Het9ctRSeaVb4hPekZZNCJQ>
    ad87:	e8 f4 73 ff ff       	call   2180 <rawDealloc__K7uQ6aTKvW6OnOV8EMoNNQ>
    ad8c:	48 c7 43 30 00 00 00 	mov    QWORD PTR [rbx+0x30],0x0
    ad93:	00 
    ad94:	48 c7 43 28 00 00 00 	mov    QWORD PTR [rbx+0x28],0x0
    ad9b:	00 
    ad9c:	e9 3b ff ff ff       	jmp    acdc <eqdestroy___CiaBzGuSuzPVhX0vLVmlsg+0x6c>
    ada1:	0f 1f 80 00 00 00 00 	nop    DWORD PTR [rax+0x0]
    ada8:	48 8d 3d d1 72 20 00 	lea    rdi,[rip+0x2072d1]        # 212080 <allocator__Het9ctRSeaVb4hPekZZNCJQ>
    adaf:	e8 cc 73 ff ff       	call   2180 <rawDealloc__K7uQ6aTKvW6OnOV8EMoNNQ>
    adb4:	48 c7 43 20 00 00 00 	mov    QWORD PTR [rbx+0x20],0x0
    adbb:	00 
    adbc:	48 c7 43 18 00 00 00 	mov    QWORD PTR [rbx+0x18],0x0
    adc3:	00 
    adc4:	e9 f7 fe ff ff       	jmp    acc0 <eqdestroy___CiaBzGuSuzPVhX0vLVmlsg+0x50>
    adc9:	58                   	pop    rax
    adca:	5b                   	pop    rbx
    adcb:	5d                   	pop    rbp
    adcc:	e9 6f ea ff ff       	jmp    9840 <raiseOverflow>
    add1:	e8 6a ea ff ff       	call   9840 <raiseOverflow>
    add6:	e9 c9 fe ff ff       	jmp    aca4 <eqdestroy___CiaBzGuSuzPVhX0vLVmlsg+0x34>
    addb:	0f 1f 44 00 00       	nop    DWORD PTR [rax+rax*1+0x0]

000000000000ade0 <eqdestroy___SJcVq9aHUKEeQF6mKDkE6pw>:
    ade0:	55                   	push   rbp
    ade1:	53                   	push   rbx
    ade2:	48 89 fb             	mov    rbx,rdi
    ade5:	48 83 ec 08          	sub    rsp,0x8
    ade9:	48 8b 7f 08          	mov    rdi,QWORD PTR [rdi+0x8]
    aded:	48 85 ff             	test   rdi,rdi
    adf0:	74 22                	je     ae14 <eqdestroy___SJcVq9aHUKEeQF6mKDkE6pw+0x34>
    adf2:	48 8b 47 f8          	mov    rax,QWORD PTR [rdi-0x8]
    adf6:	48 8d 6f f8          	lea    rbp,[rdi-0x8]
    adfa:	48 a9 f8 ff ff ff    	test   rax,0xfffffffffffffff8
    ae00:	0f 84 b2 00 00 00    	je     aeb8 <eqdestroy___SJcVq9aHUKEeQF6mKDkE6pw+0xd8>
    ae06:	48 83 e8 08          	sub    rax,0x8
    ae0a:	0f 80 31 01 00 00    	jo     af41 <eqdestroy___SJcVq9aHUKEeQF6mKDkE6pw+0x161>
    ae10:	48 89 47 f8          	mov    QWORD PTR [rdi-0x8],rax
    ae14:	48 8b 73 20          	mov    rsi,QWORD PTR [rbx+0x20]
    ae18:	48 85 f6             	test   rsi,rsi
    ae1b:	74 13                	je     ae30 <eqdestroy___SJcVq9aHUKEeQF6mKDkE6pw+0x50>
    ae1d:	48 b8 00 00 00 00 00 	movabs rax,0x4000000000000000
    ae24:	00 00 40 
    ae27:	48 85 06             	test   QWORD PTR [rsi],rax
    ae2a:	0f 84 e8 00 00 00    	je     af18 <eqdestroy___SJcVq9aHUKEeQF6mKDkE6pw+0x138>
    ae30:	48 8b 73 30          	mov    rsi,QWORD PTR [rbx+0x30]
    ae34:	48 85 f6             	test   rsi,rsi
    ae37:	74 13                	je     ae4c <eqdestroy___SJcVq9aHUKEeQF6mKDkE6pw+0x6c>
    ae39:	48 b8 00 00 00 00 00 	movabs rax,0x4000000000000000
    ae40:	00 00 40 
    ae43:	48 85 06             	test   QWORD PTR [rsi],rax
    ae46:	0f 84 a4 00 00 00    	je     aef0 <eqdestroy___SJcVq9aHUKEeQF6mKDkE6pw+0x110>
    ae4c:	48 8b 7b 40          	mov    rdi,QWORD PTR [rbx+0x40]
    ae50:	48 85 ff             	test   rdi,rdi
    ae53:	74 1e                	je     ae73 <eqdestroy___SJcVq9aHUKEeQF6mKDkE6pw+0x93>
    ae55:	48 8b 47 f8          	mov    rax,QWORD PTR [rdi-0x8]
    ae59:	48 8d 6f f8          	lea    rbp,[rdi-0x8]
    ae5d:	48 a9 f8 ff ff ff    	test   rax,0xfffffffffffffff8
    ae63:	74 1b                	je     ae80 <eqdestroy___SJcVq9aHUKEeQF6mKDkE6pw+0xa0>
    ae65:	48 83 e8 08          	sub    rax,0x8
    ae69:	0f 80 ca 00 00 00    	jo     af39 <eqdestroy___SJcVq9aHUKEeQF6mKDkE6pw+0x159>
    ae6f:	48 89 47 f8          	mov    QWORD PTR [rdi-0x8],rax
    ae73:	48 83 c4 08          	add    rsp,0x8
    ae77:	5b                   	pop    rbx
    ae78:	5d                   	pop    rbp
    ae79:	c3                   	ret    
    ae7a:	66 0f 1f 44 00 00    	nop    WORD PTR [rax+rax*1+0x0]
    ae80:	48 8b 07             	mov    rax,QWORD PTR [rdi]
    ae83:	48 8b 00             	mov    rax,QWORD PTR [rax]
    ae86:	48 85 c0             	test   rax,rax
    ae89:	74 0c                	je     ae97 <eqdestroy___SJcVq9aHUKEeQF6mKDkE6pw+0xb7>
    ae8b:	ff d0                	call   rax
    ae8d:	48 83 3d 7b a5 20 00 	cmp    QWORD PTR [rip+0x20a57b],0x0        # 215410 <nimInErrorMode__759bT87luu8XGcbkw13FUjA>
    ae94:	00 
    ae95:	75 0f                	jne    aea6 <eqdestroy___SJcVq9aHUKEeQF6mKDkE6pw+0xc6>
    ae97:	48 8d 3d e2 71 20 00 	lea    rdi,[rip+0x2071e2]        # 212080 <allocator__Het9ctRSeaVb4hPekZZNCJQ>
    ae9e:	48 89 ee             	mov    rsi,rbp
    aea1:	e8 da 72 ff ff       	call   2180 <rawDealloc__K7uQ6aTKvW6OnOV8EMoNNQ>
    aea6:	48 c7 43 40 00 00 00 	mov    QWORD PTR [rbx+0x40],0x0
    aead:	00 
    aeae:	48 83 c4 08          	add    rsp,0x8
    aeb2:	5b                   	pop    rbx
    aeb3:	5d                   	pop    rbp
    aeb4:	c3                   	ret    
    aeb5:	0f 1f 00             	nop    DWORD PTR [rax]
    aeb8:	48 8b 07             	mov    rax,QWORD PTR [rdi]
    aebb:	48 8b 00             	mov    rax,QWORD PTR [rax]
    aebe:	48 85 c0             	test   rax,rax
    aec1:	74 0c                	je     aecf <eqdestroy___SJcVq9aHUKEeQF6mKDkE6pw+0xef>
    aec3:	ff d0                	call   rax
    aec5:	48 83 3d 43 a5 20 00 	cmp    QWORD PTR [rip+0x20a543],0x0        # 215410 <nimInErrorMode__759bT87luu8XGcbkw13FUjA>
    aecc:	00 
    aecd:	75 0f                	jne    aede <eqdestroy___SJcVq9aHUKEeQF6mKDkE6pw+0xfe>
    aecf:	48 8d 3d aa 71 20 00 	lea    rdi,[rip+0x2071aa]        # 212080 <allocator__Het9ctRSeaVb4hPekZZNCJQ>
    aed6:	48 89 ee             	mov    rsi,rbp
    aed9:	e8 a2 72 ff ff       	call   2180 <rawDealloc__K7uQ6aTKvW6OnOV8EMoNNQ>
    aede:	48 c7 43 08 00 00 00 	mov    QWORD PTR [rbx+0x8],0x0
    aee5:	00 
    aee6:	e9 29 ff ff ff       	jmp    ae14 <eqdestroy___SJcVq9aHUKEeQF6mKDkE6pw+0x34>
    aeeb:	0f 1f 44 00 00       	nop    DWORD PTR [rax+rax*1+0x0]
    aef0:	48 8d 3d 89 71 20 00 	lea    rdi,[rip+0x207189]        # 212080 <allocator__Het9ctRSeaVb4hPekZZNCJQ>
    aef7:	e8 84 72 ff ff       	call   2180 <rawDealloc__K7uQ6aTKvW6OnOV8EMoNNQ>
    aefc:	48 c7 43 30 00 00 00 	mov    QWORD PTR [rbx+0x30],0x0
    af03:	00 
    af04:	48 c7 43 28 00 00 00 	mov    QWORD PTR [rbx+0x28],0x0
    af0b:	00 
    af0c:	e9 3b ff ff ff       	jmp    ae4c <eqdestroy___SJcVq9aHUKEeQF6mKDkE6pw+0x6c>
    af11:	0f 1f 80 00 00 00 00 	nop    DWORD PTR [rax+0x0]
    af18:	48 8d 3d 61 71 20 00 	lea    rdi,[rip+0x207161]        # 212080 <allocator__Het9ctRSeaVb4hPekZZNCJQ>
    af1f:	e8 5c 72 ff ff       	call   2180 <rawDealloc__K7uQ6aTKvW6OnOV8EMoNNQ>
    af24:	48 c7 43 20 00 00 00 	mov    QWORD PTR [rbx+0x20],0x0
    af2b:	00 
    af2c:	48 c7 43 18 00 00 00 	mov    QWORD PTR [rbx+0x18],0x0
    af33:	00 
    af34:	e9 f7 fe ff ff       	jmp    ae30 <eqdestroy___SJcVq9aHUKEeQF6mKDkE6pw+0x50>
    af39:	58                   	pop    rax
    af3a:	5b                   	pop    rbx
    af3b:	5d                   	pop    rbp
    af3c:	e9 ff e8 ff ff       	jmp    9840 <raiseOverflow>
    af41:	e8 fa e8 ff ff       	call   9840 <raiseOverflow>
    af46:	e9 c9 fe ff ff       	jmp    ae14 <eqdestroy___SJcVq9aHUKEeQF6mKDkE6pw+0x34>
    af4b:	0f 1f 44 00 00       	nop    DWORD PTR [rax+rax*1+0x0]

000000000000af50 <eqsink___rR9boD7urcxl7uyUtE46AOA_2>:
    af50:	41 54                	push   r12
    af52:	55                   	push   rbp
    af53:	48 89 f5             	mov    rbp,rsi
    af56:	53                   	push   rbx
    af57:	48 89 fb             	mov    rbx,rdi
    af5a:	48 8b 3f             	mov    rdi,QWORD PTR [rdi]
    af5d:	48 85 ff             	test   rdi,rdi
    af60:	74 1a                	je     af7c <eqsink___rR9boD7urcxl7uyUtE46AOA_2+0x2c>
    af62:	48 8b 47 f8          	mov    rax,QWORD PTR [rdi-0x8]
    af66:	4c 8d 67 f8          	lea    r12,[rdi-0x8]
    af6a:	48 a9 f8 ff ff ff    	test   rax,0xfffffffffffffff8
    af70:	74 16                	je     af88 <eqsink___rR9boD7urcxl7uyUtE46AOA_2+0x38>
    af72:	48 83 e8 08          	sub    rax,0x8
    af76:	70 3e                	jo     afb6 <eqsink___rR9boD7urcxl7uyUtE46AOA_2+0x66>
    af78:	48 89 47 f8          	mov    QWORD PTR [rdi-0x8],rax
    af7c:	48 89 2b             	mov    QWORD PTR [rbx],rbp
    af7f:	5b                   	pop    rbx
    af80:	5d                   	pop    rbp
    af81:	41 5c                	pop    r12
    af83:	c3                   	ret    
    af84:	0f 1f 40 00          	nop    DWORD PTR [rax+0x0]
    af88:	48 8b 07             	mov    rax,QWORD PTR [rdi]
    af8b:	48 8b 00             	mov    rax,QWORD PTR [rax]
    af8e:	48 85 c0             	test   rax,rax
    af91:	74 0c                	je     af9f <eqsink___rR9boD7urcxl7uyUtE46AOA_2+0x4f>
    af93:	ff d0                	call   rax
    af95:	48 83 3d 73 a4 20 00 	cmp    QWORD PTR [rip+0x20a473],0x0        # 215410 <nimInErrorMode__759bT87luu8XGcbkw13FUjA>
    af9c:	00 
    af9d:	75 dd                	jne    af7c <eqsink___rR9boD7urcxl7uyUtE46AOA_2+0x2c>
    af9f:	48 8d 3d da 70 20 00 	lea    rdi,[rip+0x2070da]        # 212080 <allocator__Het9ctRSeaVb4hPekZZNCJQ>
    afa6:	4c 89 e6             	mov    rsi,r12
    afa9:	e8 d2 71 ff ff       	call   2180 <rawDealloc__K7uQ6aTKvW6OnOV8EMoNNQ>
    afae:	48 89 2b             	mov    QWORD PTR [rbx],rbp
    afb1:	5b                   	pop    rbx
    afb2:	5d                   	pop    rbp
    afb3:	41 5c                	pop    r12
    afb5:	c3                   	ret    
    afb6:	e8 85 e8 ff ff       	call   9840 <raiseOverflow>
    afbb:	eb bf                	jmp    af7c <eqsink___rR9boD7urcxl7uyUtE46AOA_2+0x2c>
    afbd:	0f 1f 00             	nop    DWORD PTR [rax]

000000000000afc0 <eq___rR9boD7urcxl7uyUtE46AOA>:
    afc0:	48 85 f6             	test   rsi,rsi
    afc3:	41 54                	push   r12
    afc5:	55                   	push   rbp
    afc6:	48 89 fd             	mov    rbp,rdi
    afc9:	53                   	push   rbx
    afca:	48 89 f3             	mov    rbx,rsi
    afcd:	74 0e                	je     afdd <eq___rR9boD7urcxl7uyUtE46AOA+0x1d>
    afcf:	48 8b 46 f8          	mov    rax,QWORD PTR [rsi-0x8]
    afd3:	48 83 c0 08          	add    rax,0x8
    afd7:	70 66                	jo     b03f <eq___rR9boD7urcxl7uyUtE46AOA+0x7f>
    afd9:	48 89 46 f8          	mov    QWORD PTR [rsi-0x8],rax
    afdd:	48 8b 7d 00          	mov    rdi,QWORD PTR [rbp+0x0]
    afe1:	48 85 ff             	test   rdi,rdi
    afe4:	74 1a                	je     b000 <eq___rR9boD7urcxl7uyUtE46AOA+0x40>
    afe6:	48 8b 47 f8          	mov    rax,QWORD PTR [rdi-0x8]
    afea:	4c 8d 67 f8          	lea    r12,[rdi-0x8]
    afee:	48 a9 f8 ff ff ff    	test   rax,0xfffffffffffffff8
    aff4:	74 1a                	je     b010 <eq___rR9boD7urcxl7uyUtE46AOA+0x50>
    aff6:	48 83 e8 08          	sub    rax,0x8
    affa:	70 4a                	jo     b046 <eq___rR9boD7urcxl7uyUtE46AOA+0x86>
    affc:	48 89 47 f8          	mov    QWORD PTR [rdi-0x8],rax
    b000:	48 89 5d 00          	mov    QWORD PTR [rbp+0x0],rbx
    b004:	5b                   	pop    rbx
    b005:	5d                   	pop    rbp
    b006:	41 5c                	pop    r12
    b008:	c3                   	ret    
    b009:	0f 1f 80 00 00 00 00 	nop    DWORD PTR [rax+0x0]
    b010:	48 8b 07             	mov    rax,QWORD PTR [rdi]
    b013:	48 8b 00             	mov    rax,QWORD PTR [rax]
    b016:	48 85 c0             	test   rax,rax
    b019:	74 0c                	je     b027 <eq___rR9boD7urcxl7uyUtE46AOA+0x67>
    b01b:	ff d0                	call   rax
    b01d:	48 83 3d eb a3 20 00 	cmp    QWORD PTR [rip+0x20a3eb],0x0        # 215410 <nimInErrorMode__759bT87luu8XGcbkw13FUjA>
    b024:	00 
    b025:	75 d9                	jne    b000 <eq___rR9boD7urcxl7uyUtE46AOA+0x40>
    b027:	48 8d 3d 52 70 20 00 	lea    rdi,[rip+0x207052]        # 212080 <allocator__Het9ctRSeaVb4hPekZZNCJQ>
    b02e:	4c 89 e6             	mov    rsi,r12
    b031:	e8 4a 71 ff ff       	call   2180 <rawDealloc__K7uQ6aTKvW6OnOV8EMoNNQ>
    b036:	48 89 5d 00          	mov    QWORD PTR [rbp+0x0],rbx
    b03a:	5b                   	pop    rbx
    b03b:	5d                   	pop    rbp
    b03c:	41 5c                	pop    r12
    b03e:	c3                   	ret    
    b03f:	e8 fc e7 ff ff       	call   9840 <raiseOverflow>
    b044:	eb 97                	jmp    afdd <eq___rR9boD7urcxl7uyUtE46AOA+0x1d>
    b046:	e8 f5 e7 ff ff       	call   9840 <raiseOverflow>
    b04b:	eb b3                	jmp    b000 <eq___rR9boD7urcxl7uyUtE46AOA+0x40>
    b04d:	0f 1f 00             	nop    DWORD PTR [rax]

000000000000b050 <raiseExceptionAux__na8C8pUZ9cLQWVwk35l5vfw.part.15>:
    b050:	41 54                	push   r12
    b052:	55                   	push   rbp
    b053:	53                   	push   rbx
    b054:	48 8b 1d 0d 70 20 00 	mov    rbx,QWORD PTR [rip+0x20700d]        # 212068 <currException__9bVPeDJlYTi9bQApZpfH8wjg>
    b05b:	48 8b 05 ae a3 20 00 	mov    rax,QWORD PTR [rip+0x20a3ae]        # 215410 <nimInErrorMode__759bT87luu8XGcbkw13FUjA>
    b062:	48 39 fb             	cmp    rbx,rdi
    b065:	74 7d                	je     b0e4 <raiseExceptionAux__na8C8pUZ9cLQWVwk35l5vfw.part.15+0x94>
    b067:	48 85 db             	test   rbx,rbx
    b06a:	48 89 fd             	mov    rbp,rdi
    b06d:	74 12                	je     b081 <raiseExceptionAux__na8C8pUZ9cLQWVwk35l5vfw.part.15+0x31>
    b06f:	48 8b 43 f8          	mov    rax,QWORD PTR [rbx-0x8]
    b073:	48 83 c0 08          	add    rax,0x8
    b077:	0f 80 15 01 00 00    	jo     b192 <raiseExceptionAux__na8C8pUZ9cLQWVwk35l5vfw.part.15+0x142>
    b07d:	48 89 43 f8          	mov    QWORD PTR [rbx-0x8],rax
    b081:	48 8b 7d 40          	mov    rdi,QWORD PTR [rbp+0x40]
    b085:	48 85 ff             	test   rdi,rdi
    b088:	74 1e                	je     b0a8 <raiseExceptionAux__na8C8pUZ9cLQWVwk35l5vfw.part.15+0x58>
    b08a:	48 8b 47 f8          	mov    rax,QWORD PTR [rdi-0x8]
    b08e:	4c 8d 67 f8          	lea    r12,[rdi-0x8]
    b092:	48 a9 f8 ff ff ff    	test   rax,0xfffffffffffffff8
    b098:	74 76                	je     b110 <raiseExceptionAux__na8C8pUZ9cLQWVwk35l5vfw.part.15+0xc0>
    b09a:	48 83 e8 08          	sub    rax,0x8
    b09e:	0f 80 e4 00 00 00    	jo     b188 <raiseExceptionAux__na8C8pUZ9cLQWVwk35l5vfw.part.15+0x138>
    b0a4:	48 89 47 f8          	mov    QWORD PTR [rdi-0x8],rax
    b0a8:	48 8b 3d b9 6f 20 00 	mov    rdi,QWORD PTR [rip+0x206fb9]        # 212068 <currException__9bVPeDJlYTi9bQApZpfH8wjg>
    b0af:	48 89 5d 40          	mov    QWORD PTR [rbp+0x40],rbx
    b0b3:	48 85 ff             	test   rdi,rdi
    b0b6:	74 48                	je     b100 <raiseExceptionAux__na8C8pUZ9cLQWVwk35l5vfw.part.15+0xb0>
    b0b8:	48 8b 47 f8          	mov    rax,QWORD PTR [rdi-0x8]
    b0bc:	48 8d 5f f8          	lea    rbx,[rdi-0x8]
    b0c0:	48 a9 f8 ff ff ff    	test   rax,0xfffffffffffffff8
    b0c6:	0f 84 84 00 00 00    	je     b150 <raiseExceptionAux__na8C8pUZ9cLQWVwk35l5vfw.part.15+0x100>
    b0cc:	48 83 e8 08          	sub    rax,0x8
    b0d0:	70 22                	jo     b0f4 <raiseExceptionAux__na8C8pUZ9cLQWVwk35l5vfw.part.15+0xa4>
    b0d2:	48 89 47 f8          	mov    QWORD PTR [rdi-0x8],rax
    b0d6:	48 8b 05 33 a3 20 00 	mov    rax,QWORD PTR [rip+0x20a333]        # 215410 <nimInErrorMode__759bT87luu8XGcbkw13FUjA>
    b0dd:	48 89 2d 84 6f 20 00 	mov    QWORD PTR [rip+0x206f84],rbp        # 212068 <currException__9bVPeDJlYTi9bQApZpfH8wjg>
    b0e4:	48 83 c0 01          	add    rax,0x1
    b0e8:	5b                   	pop    rbx
    b0e9:	48 89 05 20 a3 20 00 	mov    QWORD PTR [rip+0x20a320],rax        # 215410 <nimInErrorMode__759bT87luu8XGcbkw13FUjA>
    b0f0:	5d                   	pop    rbp
    b0f1:	41 5c                	pop    r12
    b0f3:	c3                   	ret    
    b0f4:	e8 47 e7 ff ff       	call   9840 <raiseOverflow>
    b0f9:	0f 1f 80 00 00 00 00 	nop    DWORD PTR [rax+0x0]
    b100:	48 8b 05 09 a3 20 00 	mov    rax,QWORD PTR [rip+0x20a309]        # 215410 <nimInErrorMode__759bT87luu8XGcbkw13FUjA>
    b107:	eb d4                	jmp    b0dd <raiseExceptionAux__na8C8pUZ9cLQWVwk35l5vfw.part.15+0x8d>
    b109:	0f 1f 80 00 00 00 00 	nop    DWORD PTR [rax+0x0]
    b110:	48 8b 07             	mov    rax,QWORD PTR [rdi]
    b113:	48 8b 00             	mov    rax,QWORD PTR [rax]
    b116:	48 85 c0             	test   rax,rax
    b119:	74 0c                	je     b127 <raiseExceptionAux__na8C8pUZ9cLQWVwk35l5vfw.part.15+0xd7>
    b11b:	ff d0                	call   rax
    b11d:	48 83 3d eb a2 20 00 	cmp    QWORD PTR [rip+0x20a2eb],0x0        # 215410 <nimInErrorMode__759bT87luu8XGcbkw13FUjA>
    b124:	00 
    b125:	75 81                	jne    b0a8 <raiseExceptionAux__na8C8pUZ9cLQWVwk35l5vfw.part.15+0x58>
    b127:	48 8d 3d 52 6f 20 00 	lea    rdi,[rip+0x206f52]        # 212080 <allocator__Het9ctRSeaVb4hPekZZNCJQ>
    b12e:	4c 89 e6             	mov    rsi,r12
    b131:	e8 4a 70 ff ff       	call   2180 <rawDealloc__K7uQ6aTKvW6OnOV8EMoNNQ>
    b136:	48 8b 3d 2b 6f 20 00 	mov    rdi,QWORD PTR [rip+0x206f2b]        # 212068 <currException__9bVPeDJlYTi9bQApZpfH8wjg>
    b13d:	48 89 5d 40          	mov    QWORD PTR [rbp+0x40],rbx
    b141:	48 85 ff             	test   rdi,rdi
    b144:	0f 85 6e ff ff ff    	jne    b0b8 <raiseExceptionAux__na8C8pUZ9cLQWVwk35l5vfw.part.15+0x68>
    b14a:	eb b4                	jmp    b100 <raiseExceptionAux__na8C8pUZ9cLQWVwk35l5vfw.part.15+0xb0>
    b14c:	0f 1f 40 00          	nop    DWORD PTR [rax+0x0]
    b150:	48 8b 07             	mov    rax,QWORD PTR [rdi]
    b153:	48 8b 00             	mov    rax,QWORD PTR [rax]
    b156:	48 85 c0             	test   rax,rax
    b159:	74 12                	je     b16d <raiseExceptionAux__na8C8pUZ9cLQWVwk35l5vfw.part.15+0x11d>
    b15b:	ff d0                	call   rax
    b15d:	48 8b 05 ac a2 20 00 	mov    rax,QWORD PTR [rip+0x20a2ac]        # 215410 <nimInErrorMode__759bT87luu8XGcbkw13FUjA>
    b164:	48 85 c0             	test   rax,rax
    b167:	0f 85 70 ff ff ff    	jne    b0dd <raiseExceptionAux__na8C8pUZ9cLQWVwk35l5vfw.part.15+0x8d>
    b16d:	48 8d 3d 0c 6f 20 00 	lea    rdi,[rip+0x206f0c]        # 212080 <allocator__Het9ctRSeaVb4hPekZZNCJQ>
    b174:	48 89 de             	mov    rsi,rbx
    b177:	e8 04 70 ff ff       	call   2180 <rawDealloc__K7uQ6aTKvW6OnOV8EMoNNQ>
    b17c:	48 8b 05 8d a2 20 00 	mov    rax,QWORD PTR [rip+0x20a28d]        # 215410 <nimInErrorMode__759bT87luu8XGcbkw13FUjA>
    b183:	e9 55 ff ff ff       	jmp    b0dd <raiseExceptionAux__na8C8pUZ9cLQWVwk35l5vfw.part.15+0x8d>
    b188:	e8 b3 e6 ff ff       	call   9840 <raiseOverflow>
    b18d:	e9 16 ff ff ff       	jmp    b0a8 <raiseExceptionAux__na8C8pUZ9cLQWVwk35l5vfw.part.15+0x58>
    b192:	e8 a9 e6 ff ff       	call   9840 <raiseOverflow>
    b197:	e9 e5 fe ff ff       	jmp    b081 <raiseExceptionAux__na8C8pUZ9cLQWVwk35l5vfw.part.15+0x31>
    b19c:	0f 1f 40 00          	nop    DWORD PTR [rax+0x0]

000000000000b1a0 <raiseDivByZero>:
    b1a0:	48 8b 05 39 6f 20 00 	mov    rax,QWORD PTR [rip+0x206f39]        # 2120e0 <allocator__Het9ctRSeaVb4hPekZZNCJQ+0x60>
    b1a7:	41 54                	push   r12
    b1a9:	48 c7 05 5c a2 20 00 	mov    QWORD PTR [rip+0x20a25c],0x0        # 215410 <nimInErrorMode__759bT87luu8XGcbkw13FUjA>
    b1b0:	00 00 00 00 
    b1b4:	55                   	push   rbp
    b1b5:	53                   	push   rbx
    b1b6:	48 85 c0             	test   rax,rax
    b1b9:	0f 84 a1 01 00 00    	je     b360 <raiseDivByZero+0x1c0>
    b1bf:	48 8b 50 20          	mov    rdx,QWORD PTR [rax+0x20]
    b1c3:	48 85 d2             	test   rdx,rdx
    b1c6:	0f 84 24 01 00 00    	je     b2f0 <raiseDivByZero+0x150>
    b1cc:	48 8b 0a             	mov    rcx,QWORD PTR [rdx]
    b1cf:	48 89 48 20          	mov    QWORD PTR [rax+0x20],rcx
    b1d3:	48 8b 70 28          	mov    rsi,QWORD PTR [rax+0x28]
    b1d7:	48 8d 4e b0          	lea    rcx,[rsi-0x50]
    b1db:	48 89 48 28          	mov    QWORD PTR [rax+0x28],rcx
    b1df:	48 83 f9 4f          	cmp    rcx,0x4f
    b1e3:	7f 3a                	jg     b21f <raiseDivByZero+0x7f>
    b1e5:	48 3b 05 f4 6e 20 00 	cmp    rax,QWORD PTR [rip+0x206ef4]        # 2120e0 <allocator__Het9ctRSeaVb4hPekZZNCJQ+0x60>
    b1ec:	48 8b 48 10          	mov    rcx,QWORD PTR [rax+0x10]
    b1f0:	0f 84 1a 01 00 00    	je     b310 <raiseDivByZero+0x170>
    b1f6:	48 8b 70 18          	mov    rsi,QWORD PTR [rax+0x18]
    b1fa:	48 89 4e 10          	mov    QWORD PTR [rsi+0x10],rcx
    b1fe:	48 8b 48 10          	mov    rcx,QWORD PTR [rax+0x10]
    b202:	48 85 c9             	test   rcx,rcx
    b205:	74 08                	je     b20f <raiseDivByZero+0x6f>
    b207:	48 8b 70 18          	mov    rsi,QWORD PTR [rax+0x18]
    b20b:	48 89 71 18          	mov    QWORD PTR [rcx+0x18],rsi
    b20f:	48 c7 40 10 00 00 00 	mov    QWORD PTR [rax+0x10],0x0
    b216:	00 
    b217:	48 c7 40 18 00 00 00 	mov    QWORD PTR [rax+0x18],0x0
    b21e:	00 
    b21f:	66 0f ef c0          	pxor   xmm0,xmm0
    b223:	48 8d 05 76 a2 20 00 	lea    rax,[rip+0x20a276]        # 2154a0 <NTI__vASt1Zy2CLWqyBeLxcXqow_>
    b22a:	48 83 05 e6 96 20 00 	add    QWORD PTR [rip+0x2096e6],0x50        # 214918 <allocator__Het9ctRSeaVb4hPekZZNCJQ+0x2898>
    b231:	50 
    b232:	48 8d 5a 08          	lea    rbx,[rdx+0x8]
    b236:	31 ed                	xor    ebp,ebp
    b238:	0f 11 02             	movups XMMWORD PTR [rdx],xmm0
    b23b:	48 89 42 08          	mov    QWORD PTR [rdx+0x8],rax
    b23f:	48 8d 05 57 40 00 00 	lea    rax,[rip+0x4057]        # f29d <_IO_stdin_used+0x5d>
    b246:	0f 11 42 10          	movups XMMWORD PTR [rdx+0x10],xmm0
    b24a:	0f 11 42 30          	movups XMMWORD PTR [rdx+0x30],xmm0
    b24e:	0f 11 42 40          	movups XMMWORD PTR [rdx+0x40],xmm0
    b252:	48 89 43 10          	mov    QWORD PTR [rbx+0x10],rax
    b256:	48 8d 05 63 43 00 00 	lea    rax,[rip+0x4363]        # f5c0 <TM__Q5wkpxktOdTGvlSRo9bzt9aw_21>
    b25d:	48 c7 43 18 10 00 00 	mov    QWORD PTR [rbx+0x18],0x10
    b264:	00 
    b265:	48 89 43 20          	mov    QWORD PTR [rbx+0x20],rax
    b269:	48 8b 43 30          	mov    rax,QWORD PTR [rbx+0x30]
    b26d:	48 85 c0             	test   rax,rax
    b270:	0f 84 ba 00 00 00    	je     b330 <raiseDivByZero+0x190>
    b276:	49 89 ec             	mov    r12,rbp
    b279:	49 83 c4 01          	add    r12,0x1
    b27d:	0f 80 cf 00 00 00    	jo     b352 <raiseDivByZero+0x1b2>
    b283:	4c 3b 20             	cmp    r12,QWORD PTR [rax]
    b286:	0f 8f 44 01 00 00    	jg     b3d0 <raiseDivByZero+0x230>
    b28c:	4c 89 e5             	mov    rbp,r12
    b28f:	48 8d 35 db 3f 00 00 	lea    rsi,[rip+0x3fdb]        # f271 <_IO_stdin_used+0x31>
    b296:	48 89 6b 28          	mov    QWORD PTR [rbx+0x28],rbp
    b29a:	48 c7 40 10 31 00 00 	mov    QWORD PTR [rax+0x10],0x31
    b2a1:	00 
    b2a2:	48 89 70 08          	mov    QWORD PTR [rax+0x8],rsi
    b2a6:	48 8d 35 cd 3f 00 00 	lea    rsi,[rip+0x3fcd]        # f27a <_IO_stdin_used+0x3a>
    b2ad:	48 89 70 18          	mov    QWORD PTR [rax+0x18],rsi
    b2b1:	48 8b 05 a0 a1 20 00 	mov    rax,QWORD PTR [rip+0x20a1a0]        # 215458 <localRaiseHook__EIvMhANBvB9cp2Ezvt29cADg>
    b2b8:	48 85 c0             	test   rax,rax
    b2bb:	74 09                	je     b2c6 <raiseDivByZero+0x126>
    b2bd:	48 89 df             	mov    rdi,rbx
    b2c0:	ff d0                	call   rax
    b2c2:	84 c0                	test   al,al
    b2c4:	74 1d                	je     b2e3 <raiseDivByZero+0x143>
    b2c6:	48 8b 05 eb a0 20 00 	mov    rax,QWORD PTR [rip+0x20a0eb]        # 2153b8 <globalRaiseHook__JbO1ti4ULxrw54m4zNPbpA>
    b2cd:	48 85 c0             	test   rax,rax
    b2d0:	74 09                	je     b2db <raiseDivByZero+0x13b>
    b2d2:	48 89 df             	mov    rdi,rbx
    b2d5:	ff d0                	call   rax
    b2d7:	84 c0                	test   al,al
    b2d9:	74 08                	je     b2e3 <raiseDivByZero+0x143>
    b2db:	48 89 df             	mov    rdi,rbx
    b2de:	e8 6d fd ff ff       	call   b050 <raiseExceptionAux__na8C8pUZ9cLQWVwk35l5vfw.part.15>
    b2e3:	5b                   	pop    rbx
    b2e4:	5d                   	pop    rbp
    b2e5:	41 5c                	pop    r12
    b2e7:	c3                   	ret    
    b2e8:	0f 1f 84 00 00 00 00 	nop    DWORD PTR [rax+rax*1+0x0]
    b2ef:	00 
    b2f0:	48 8b 48 30          	mov    rcx,QWORD PTR [rax+0x30]
    b2f4:	48 8d 54 08 38       	lea    rdx,[rax+rcx*1+0x38]
    b2f9:	48 83 c1 50          	add    rcx,0x50
    b2fd:	48 89 48 30          	mov    QWORD PTR [rax+0x30],rcx
    b301:	e9 cd fe ff ff       	jmp    b1d3 <raiseDivByZero+0x33>
    b306:	66 2e 0f 1f 84 00 00 	nop    WORD PTR cs:[rax+rax*1+0x0]
    b30d:	00 00 00 
    b310:	48 85 c9             	test   rcx,rcx
    b313:	48 89 0d c6 6d 20 00 	mov    QWORD PTR [rip+0x206dc6],rcx        # 2120e0 <allocator__Het9ctRSeaVb4hPekZZNCJQ+0x60>
    b31a:	0f 84 ef fe ff ff    	je     b20f <raiseDivByZero+0x6f>
    b320:	48 c7 41 18 00 00 00 	mov    QWORD PTR [rcx+0x18],0x0
    b327:	00 
    b328:	e9 e2 fe ff ff       	jmp    b20f <raiseDivByZero+0x6f>
    b32d:	0f 1f 00             	nop    DWORD PTR [rax]
    b330:	31 f6                	xor    esi,esi
    b332:	48 89 ef             	mov    rdi,rbp
    b335:	b9 18 00 00 00       	mov    ecx,0x18
    b33a:	ba 01 00 00 00       	mov    edx,0x1
    b33f:	e8 1c e2 ff ff       	call   9560 <prepareSeqAdd__11KnDEqKYfU1F7UoiSyJcA>
    b344:	48 83 c5 01          	add    rbp,0x1
    b348:	48 89 43 30          	mov    QWORD PTR [rbx+0x30],rax
    b34c:	0f 81 3d ff ff ff    	jno    b28f <raiseDivByZero+0xef>
    b352:	e8 e9 e4 ff ff       	call   9840 <raiseOverflow>
    b357:	e9 55 ff ff ff       	jmp    b2b1 <raiseDivByZero+0x111>
    b35c:	0f 1f 40 00          	nop    DWORD PTR [rax+0x0]
    b360:	48 8d 3d 19 6d 20 00 	lea    rdi,[rip+0x206d19]        # 212080 <allocator__Het9ctRSeaVb4hPekZZNCJQ>
    b367:	be 00 10 00 00       	mov    esi,0x1000
    b36c:	e8 9f 96 ff ff       	call   4a10 <getBigChunk__stlXHMKRKFIGOvq8t4ynRQ>
    b371:	48 c7 40 10 00 00 00 	mov    QWORD PTR [rax+0x10],0x0
    b378:	00 
    b379:	48 c7 40 20 00 00 00 	mov    QWORD PTR [rax+0x20],0x0
    b380:	00 
    b381:	48 c7 40 08 50 00 00 	mov    QWORD PTR [rax+0x8],0x50
    b388:	00 
    b389:	48 c7 40 30 50 00 00 	mov    QWORD PTR [rax+0x30],0x50
    b390:	00 
    b391:	48 c7 40 28 78 0f 00 	mov    QWORD PTR [rax+0x28],0xf78
    b398:	00 
    b399:	48 c7 40 18 00 00 00 	mov    QWORD PTR [rax+0x18],0x0
    b3a0:	00 
    b3a1:	48 8b 15 38 6d 20 00 	mov    rdx,QWORD PTR [rip+0x206d38]        # 2120e0 <allocator__Het9ctRSeaVb4hPekZZNCJQ+0x60>
    b3a8:	48 89 50 10          	mov    QWORD PTR [rax+0x10],rdx
    b3ac:	48 8b 15 2d 6d 20 00 	mov    rdx,QWORD PTR [rip+0x206d2d]        # 2120e0 <allocator__Het9ctRSeaVb4hPekZZNCJQ+0x60>
    b3b3:	48 85 d2             	test   rdx,rdx
    b3b6:	74 04                	je     b3bc <raiseDivByZero+0x21c>
    b3b8:	48 89 42 18          	mov    QWORD PTR [rdx+0x18],rax
    b3bc:	48 89 05 1d 6d 20 00 	mov    QWORD PTR [rip+0x206d1d],rax        # 2120e0 <allocator__Het9ctRSeaVb4hPekZZNCJQ+0x60>
    b3c3:	48 8d 50 38          	lea    rdx,[rax+0x38]
    b3c7:	48 8b 48 28          	mov    rcx,QWORD PTR [rax+0x28]
    b3cb:	e9 0f fe ff ff       	jmp    b1df <raiseDivByZero+0x3f>
    b3d0:	b9 18 00 00 00       	mov    ecx,0x18
    b3d5:	ba 01 00 00 00       	mov    edx,0x1
    b3da:	48 89 c6             	mov    rsi,rax
    b3dd:	48 89 ef             	mov    rdi,rbp
    b3e0:	e8 7b e1 ff ff       	call   9560 <prepareSeqAdd__11KnDEqKYfU1F7UoiSyJcA>
    b3e5:	48 89 43 30          	mov    QWORD PTR [rbx+0x30],rax
    b3e9:	e9 9e fe ff ff       	jmp    b28c <raiseDivByZero+0xec>
    b3ee:	66 90                	xchg   ax,ax

000000000000b3f0 <raiseExceptionEx>:
    b3f0:	41 56                	push   r14
    b3f2:	41 55                	push   r13
    b3f4:	41 54                	push   r12
    b3f6:	55                   	push   rbp
    b3f7:	49 89 cc             	mov    r12,rcx
    b3fa:	53                   	push   rbx
    b3fb:	48 89 d5             	mov    rbp,rdx
    b3fe:	48 89 fb             	mov    rbx,rdi
    b401:	48 83 ec 10          	sub    rsp,0x10
    b405:	48 83 7f 10 00       	cmp    QWORD PTR [rdi+0x10],0x0
    b40a:	0f 84 a0 00 00 00    	je     b4b0 <raiseExceptionEx+0xc0>
    b410:	48 85 ed             	test   rbp,rbp
    b413:	74 05                	je     b41a <raiseExceptionEx+0x2a>
    b415:	4d 85 e4             	test   r12,r12
    b418:	75 56                	jne    b470 <raiseExceptionEx+0x80>
    b41a:	48 8b 05 37 a0 20 00 	mov    rax,QWORD PTR [rip+0x20a037]        # 215458 <localRaiseHook__EIvMhANBvB9cp2Ezvt29cADg>
    b421:	48 85 c0             	test   rax,rax
    b424:	74 09                	je     b42f <raiseExceptionEx+0x3f>
    b426:	48 89 df             	mov    rdi,rbx
    b429:	ff d0                	call   rax
    b42b:	84 c0                	test   al,al
    b42d:	74 31                	je     b460 <raiseExceptionEx+0x70>
    b42f:	48 8b 05 82 9f 20 00 	mov    rax,QWORD PTR [rip+0x209f82]        # 2153b8 <globalRaiseHook__JbO1ti4ULxrw54m4zNPbpA>
    b436:	48 85 c0             	test   rax,rax
    b439:	74 09                	je     b444 <raiseExceptionEx+0x54>
    b43b:	48 89 df             	mov    rdi,rbx
    b43e:	ff d0                	call   rax
    b440:	84 c0                	test   al,al
    b442:	74 1c                	je     b460 <raiseExceptionEx+0x70>
    b444:	48 83 c4 10          	add    rsp,0x10
    b448:	48 89 df             	mov    rdi,rbx
    b44b:	5b                   	pop    rbx
    b44c:	5d                   	pop    rbp
    b44d:	41 5c                	pop    r12
    b44f:	41 5d                	pop    r13
    b451:	41 5e                	pop    r14
    b453:	e9 f8 fb ff ff       	jmp    b050 <raiseExceptionAux__na8C8pUZ9cLQWVwk35l5vfw.part.15>
    b458:	0f 1f 84 00 00 00 00 	nop    DWORD PTR [rax+rax*1+0x0]
    b45f:	00 
    b460:	48 83 c4 10          	add    rsp,0x10
    b464:	5b                   	pop    rbx
    b465:	5d                   	pop    rbp
    b466:	41 5c                	pop    r12
    b468:	41 5d                	pop    r13
    b46a:	41 5e                	pop    r14
    b46c:	c3                   	ret    
    b46d:	0f 1f 00             	nop    DWORD PTR [rax]
    b470:	48 8b 43 30          	mov    rax,QWORD PTR [rbx+0x30]
    b474:	4c 8b 6b 28          	mov    r13,QWORD PTR [rbx+0x28]
    b478:	48 85 c0             	test   rax,rax
    b47b:	74 43                	je     b4c0 <raiseExceptionEx+0xd0>
    b47d:	4d 89 ee             	mov    r14,r13
    b480:	49 83 c6 01          	add    r14,0x1
    b484:	70 65                	jo     b4eb <raiseExceptionEx+0xfb>
    b486:	4c 3b 30             	cmp    r14,QWORD PTR [rax]
    b489:	7f 6a                	jg     b4f5 <raiseExceptionEx+0x105>
    b48b:	4b 8d 54 6d 00       	lea    rdx,[r13+r13*2+0x0]
    b490:	4c 89 73 28          	mov    QWORD PTR [rbx+0x28],r14
    b494:	48 8d 44 d0 08       	lea    rax,[rax+rdx*8+0x8]
    b499:	48 89 28             	mov    QWORD PTR [rax],rbp
    b49c:	4c 89 40 08          	mov    QWORD PTR [rax+0x8],r8
    b4a0:	4c 89 60 10          	mov    QWORD PTR [rax+0x10],r12
    b4a4:	e9 71 ff ff ff       	jmp    b41a <raiseExceptionEx+0x2a>
    b4a9:	0f 1f 80 00 00 00 00 	nop    DWORD PTR [rax+0x0]
    b4b0:	48 89 77 10          	mov    QWORD PTR [rdi+0x10],rsi
    b4b4:	e9 57 ff ff ff       	jmp    b410 <raiseExceptionEx+0x20>
    b4b9:	0f 1f 80 00 00 00 00 	nop    DWORD PTR [rax+0x0]
    b4c0:	31 f6                	xor    esi,esi
    b4c2:	b9 18 00 00 00       	mov    ecx,0x18
    b4c7:	ba 01 00 00 00       	mov    edx,0x1
    b4cc:	4c 89 ef             	mov    rdi,r13
    b4cf:	4d 89 ee             	mov    r14,r13
    b4d2:	4c 89 44 24 08       	mov    QWORD PTR [rsp+0x8],r8
    b4d7:	e8 84 e0 ff ff       	call   9560 <prepareSeqAdd__11KnDEqKYfU1F7UoiSyJcA>
    b4dc:	49 83 c6 01          	add    r14,0x1
    b4e0:	48 89 43 30          	mov    QWORD PTR [rbx+0x30],rax
    b4e4:	4c 8b 44 24 08       	mov    r8,QWORD PTR [rsp+0x8]
    b4e9:	71 a0                	jno    b48b <raiseExceptionEx+0x9b>
    b4eb:	e8 50 e3 ff ff       	call   9840 <raiseOverflow>
    b4f0:	e9 25 ff ff ff       	jmp    b41a <raiseExceptionEx+0x2a>
    b4f5:	b9 18 00 00 00       	mov    ecx,0x18
    b4fa:	ba 01 00 00 00       	mov    edx,0x1
    b4ff:	48 89 c6             	mov    rsi,rax
    b502:	4c 89 ef             	mov    rdi,r13
    b505:	4c 89 44 24 08       	mov    QWORD PTR [rsp+0x8],r8
    b50a:	e8 51 e0 ff ff       	call   9560 <prepareSeqAdd__11KnDEqKYfU1F7UoiSyJcA>
    b50f:	4c 8b 44 24 08       	mov    r8,QWORD PTR [rsp+0x8]
    b514:	48 89 43 30          	mov    QWORD PTR [rbx+0x30],rax
    b518:	e9 6e ff ff ff       	jmp    b48b <raiseExceptionEx+0x9b>
    b51d:	0f 1f 00             	nop    DWORD PTR [rax]

000000000000b520 <raiseExceptionAux__na8C8pUZ9cLQWVwk35l5vfw>:
    b520:	48 8b 05 31 9f 20 00 	mov    rax,QWORD PTR [rip+0x209f31]        # 215458 <localRaiseHook__EIvMhANBvB9cp2Ezvt29cADg>
    b527:	41 54                	push   r12
    b529:	55                   	push   rbp
    b52a:	53                   	push   rbx
    b52b:	48 89 fb             	mov    rbx,rdi
    b52e:	48 85 c0             	test   rax,rax
    b531:	74 0a                	je     b53d <raiseExceptionAux__na8C8pUZ9cLQWVwk35l5vfw+0x1d>
    b533:	ff d0                	call   rax
    b535:	84 c0                	test   al,al
    b537:	0f 84 b5 00 00 00    	je     b5f2 <raiseExceptionAux__na8C8pUZ9cLQWVwk35l5vfw+0xd2>
    b53d:	48 8b 05 74 9e 20 00 	mov    rax,QWORD PTR [rip+0x209e74]        # 2153b8 <globalRaiseHook__JbO1ti4ULxrw54m4zNPbpA>
    b544:	48 85 c0             	test   rax,rax
    b547:	74 0d                	je     b556 <raiseExceptionAux__na8C8pUZ9cLQWVwk35l5vfw+0x36>
    b549:	48 89 df             	mov    rdi,rbx
    b54c:	ff d0                	call   rax
    b54e:	84 c0                	test   al,al
    b550:	0f 84 9c 00 00 00    	je     b5f2 <raiseExceptionAux__na8C8pUZ9cLQWVwk35l5vfw+0xd2>
    b556:	48 8b 2d 0b 6b 20 00 	mov    rbp,QWORD PTR [rip+0x206b0b]        # 212068 <currException__9bVPeDJlYTi9bQApZpfH8wjg>
    b55d:	48 8b 05 ac 9e 20 00 	mov    rax,QWORD PTR [rip+0x209eac]        # 215410 <nimInErrorMode__759bT87luu8XGcbkw13FUjA>
    b564:	48 39 eb             	cmp    rbx,rbp
    b567:	74 7e                	je     b5e7 <raiseExceptionAux__na8C8pUZ9cLQWVwk35l5vfw+0xc7>
    b569:	48 85 ed             	test   rbp,rbp
    b56c:	74 12                	je     b580 <raiseExceptionAux__na8C8pUZ9cLQWVwk35l5vfw+0x60>
    b56e:	48 8b 45 f8          	mov    rax,QWORD PTR [rbp-0x8]
    b572:	48 83 c0 08          	add    rax,0x8
    b576:	0f 80 0a 01 00 00    	jo     b686 <raiseExceptionAux__na8C8pUZ9cLQWVwk35l5vfw+0x166>
    b57c:	48 89 45 f8          	mov    QWORD PTR [rbp-0x8],rax
    b580:	48 8b 7b 40          	mov    rdi,QWORD PTR [rbx+0x40]
    b584:	48 85 ff             	test   rdi,rdi
    b587:	74 1e                	je     b5a7 <raiseExceptionAux__na8C8pUZ9cLQWVwk35l5vfw+0x87>
    b589:	48 8b 47 f8          	mov    rax,QWORD PTR [rdi-0x8]
    b58d:	4c 8d 67 f8          	lea    r12,[rdi-0x8]
    b591:	48 a9 f8 ff ff ff    	test   rax,0xfffffffffffffff8
    b597:	74 67                	je     b600 <raiseExceptionAux__na8C8pUZ9cLQWVwk35l5vfw+0xe0>
    b599:	48 83 e8 08          	sub    rax,0x8
    b59d:	0f 80 d9 00 00 00    	jo     b67c <raiseExceptionAux__na8C8pUZ9cLQWVwk35l5vfw+0x15c>
    b5a3:	48 89 47 f8          	mov    QWORD PTR [rdi-0x8],rax
    b5a7:	48 8b 3d ba 6a 20 00 	mov    rdi,QWORD PTR [rip+0x206aba]        # 212068 <currException__9bVPeDJlYTi9bQApZpfH8wjg>
    b5ae:	48 89 6b 40          	mov    QWORD PTR [rbx+0x40],rbp
    b5b2:	48 85 ff             	test   rdi,rdi
    b5b5:	0f 84 b5 00 00 00    	je     b670 <raiseExceptionAux__na8C8pUZ9cLQWVwk35l5vfw+0x150>
    b5bb:	48 8b 47 f8          	mov    rax,QWORD PTR [rdi-0x8]
    b5bf:	48 8d 6f f8          	lea    rbp,[rdi-0x8]
    b5c3:	48 a9 f8 ff ff ff    	test   rax,0xfffffffffffffff8
    b5c9:	74 65                	je     b630 <raiseExceptionAux__na8C8pUZ9cLQWVwk35l5vfw+0x110>
    b5cb:	48 83 e8 08          	sub    rax,0x8
    b5cf:	0f 80 8f 00 00 00    	jo     b664 <raiseExceptionAux__na8C8pUZ9cLQWVwk35l5vfw+0x144>
    b5d5:	48 89 47 f8          	mov    QWORD PTR [rdi-0x8],rax
    b5d9:	48 8b 05 30 9e 20 00 	mov    rax,QWORD PTR [rip+0x209e30]        # 215410 <nimInErrorMode__759bT87luu8XGcbkw13FUjA>
    b5e0:	48 89 1d 81 6a 20 00 	mov    QWORD PTR [rip+0x206a81],rbx        # 212068 <currException__9bVPeDJlYTi9bQApZpfH8wjg>
    b5e7:	48 83 c0 01          	add    rax,0x1
    b5eb:	48 89 05 1e 9e 20 00 	mov    QWORD PTR [rip+0x209e1e],rax        # 215410 <nimInErrorMode__759bT87luu8XGcbkw13FUjA>
    b5f2:	5b                   	pop    rbx
    b5f3:	5d                   	pop    rbp
    b5f4:	41 5c                	pop    r12
    b5f6:	c3                   	ret    
    b5f7:	66 0f 1f 84 00 00 00 	nop    WORD PTR [rax+rax*1+0x0]
    b5fe:	00 00 
    b600:	48 8b 07             	mov    rax,QWORD PTR [rdi]
    b603:	48 8b 00             	mov    rax,QWORD PTR [rax]
    b606:	48 85 c0             	test   rax,rax
    b609:	74 0c                	je     b617 <raiseExceptionAux__na8C8pUZ9cLQWVwk35l5vfw+0xf7>
    b60b:	ff d0                	call   rax
    b60d:	48 83 3d fb 9d 20 00 	cmp    QWORD PTR [rip+0x209dfb],0x0        # 215410 <nimInErrorMode__759bT87luu8XGcbkw13FUjA>
    b614:	00 
    b615:	75 90                	jne    b5a7 <raiseExceptionAux__na8C8pUZ9cLQWVwk35l5vfw+0x87>
    b617:	48 8d 3d 62 6a 20 00 	lea    rdi,[rip+0x206a62]        # 212080 <allocator__Het9ctRSeaVb4hPekZZNCJQ>
    b61e:	4c 89 e6             	mov    rsi,r12
    b621:	e8 5a 6b ff ff       	call   2180 <rawDealloc__K7uQ6aTKvW6OnOV8EMoNNQ>
    b626:	e9 7c ff ff ff       	jmp    b5a7 <raiseExceptionAux__na8C8pUZ9cLQWVwk35l5vfw+0x87>
    b62b:	0f 1f 44 00 00       	nop    DWORD PTR [rax+rax*1+0x0]
    b630:	48 8b 07             	mov    rax,QWORD PTR [rdi]
    b633:	48 8b 00             	mov    rax,QWORD PTR [rax]
    b636:	48 85 c0             	test   rax,rax
    b639:	74 0e                	je     b649 <raiseExceptionAux__na8C8pUZ9cLQWVwk35l5vfw+0x129>
    b63b:	ff d0                	call   rax
    b63d:	48 8b 05 cc 9d 20 00 	mov    rax,QWORD PTR [rip+0x209dcc]        # 215410 <nimInErrorMode__759bT87luu8XGcbkw13FUjA>
    b644:	48 85 c0             	test   rax,rax
    b647:	75 97                	jne    b5e0 <raiseExceptionAux__na8C8pUZ9cLQWVwk35l5vfw+0xc0>
    b649:	48 8d 3d 30 6a 20 00 	lea    rdi,[rip+0x206a30]        # 212080 <allocator__Het9ctRSeaVb4hPekZZNCJQ>
    b650:	48 89 ee             	mov    rsi,rbp
    b653:	e8 28 6b ff ff       	call   2180 <rawDealloc__K7uQ6aTKvW6OnOV8EMoNNQ>
    b658:	48 8b 05 b1 9d 20 00 	mov    rax,QWORD PTR [rip+0x209db1]        # 215410 <nimInErrorMode__759bT87luu8XGcbkw13FUjA>
    b65f:	e9 7c ff ff ff       	jmp    b5e0 <raiseExceptionAux__na8C8pUZ9cLQWVwk35l5vfw+0xc0>
    b664:	e8 d7 e1 ff ff       	call   9840 <raiseOverflow>
    b669:	0f 1f 80 00 00 00 00 	nop    DWORD PTR [rax+0x0]
    b670:	48 8b 05 99 9d 20 00 	mov    rax,QWORD PTR [rip+0x209d99]        # 215410 <nimInErrorMode__759bT87luu8XGcbkw13FUjA>
    b677:	e9 64 ff ff ff       	jmp    b5e0 <raiseExceptionAux__na8C8pUZ9cLQWVwk35l5vfw+0xc0>
    b67c:	e8 bf e1 ff ff       	call   9840 <raiseOverflow>
    b681:	e9 21 ff ff ff       	jmp    b5a7 <raiseExceptionAux__na8C8pUZ9cLQWVwk35l5vfw+0x87>
    b686:	e8 b5 e1 ff ff       	call   9840 <raiseOverflow>
    b68b:	e9 f0 fe ff ff       	jmp    b580 <raiseExceptionAux__na8C8pUZ9cLQWVwk35l5vfw+0x60>

000000000000b690 <addInt__mftMOxbyu0h4yByfs3sqjA>:
    b690:	41 57                	push   r15
    b692:	41 56                	push   r14
    b694:	49 89 ff             	mov    r15,rdi
    b697:	41 55                	push   r13
    b699:	41 54                	push   r12
    b69b:	55                   	push   rbp
    b69c:	53                   	push   rbx
    b69d:	48 83 ec 28          	sub    rsp,0x28
    b6a1:	4c 8b 27             	mov    r12,QWORD PTR [rdi]
    b6a4:	48 89 74 24 08       	mov    QWORD PTR [rsp+0x8],rsi
    b6a9:	4c 89 e3             	mov    rbx,r12
    b6ac:	48 83 c3 20          	add    rbx,0x20
    b6b0:	0f 85 62 02 00 00    	jne    b918 <addInt__mftMOxbyu0h4yByfs3sqjA+0x288>
    b6b6:	48 8b 77 08          	mov    rsi,QWORD PTR [rdi+0x8]
    b6ba:	48 85 f6             	test   rsi,rsi
    b6bd:	74 13                	je     b6d2 <addInt__mftMOxbyu0h4yByfs3sqjA+0x42>
    b6bf:	48 b8 00 00 00 00 00 	movabs rax,0x4000000000000000
    b6c6:	00 00 40 
    b6c9:	48 85 06             	test   QWORD PTR [rsi],rax
    b6cc:	0f 84 ce 02 00 00    	je     b9a0 <addInt__mftMOxbyu0h4yByfs3sqjA+0x310>
    b6d2:	49 c7 47 08 00 00 00 	mov    QWORD PTR [r15+0x8],0x0
    b6d9:	00 
    b6da:	31 c9                	xor    ecx,ecx
    b6dc:	49 89 1f             	mov    QWORD PTR [r15],rbx
    b6df:	48 8b 6c 24 08       	mov    rbp,QWORD PTR [rsp+0x8]
    b6e4:	45 31 f6             	xor    r14d,r14d
    b6e7:	49 bd 67 66 66 66 66 	movabs r13,0x6666666666666667
    b6ee:	66 66 66 
    b6f1:	eb 26                	jmp    b719 <addInt__mftMOxbyu0h4yByfs3sqjA+0x89>
    b6f3:	0f 1f 44 00 00       	nop    DWORD PTR [rax+rax*1+0x0]
    b6f8:	83 c5 30             	add    ebp,0x30
    b6fb:	49 8d 46 01          	lea    rax,[r14+0x1]
    b6ff:	29 d5                	sub    ebp,edx
    b701:	48 85 db             	test   rbx,rbx
    b704:	41 88 6c 0c 08       	mov    BYTE PTR [r12+rcx*1+0x8],bpl
    b709:	0f 84 0f 01 00 00    	je     b81e <addInt__mftMOxbyu0h4yByfs3sqjA+0x18e>
    b70f:	49 8b 4f 08          	mov    rcx,QWORD PTR [r15+0x8]
    b713:	48 89 dd             	mov    rbp,rbx
    b716:	49 89 c6             	mov    r14,rax
    b719:	48 89 e8             	mov    rax,rbp
    b71c:	49 f7 ed             	imul   r13
    b71f:	48 89 e8             	mov    rax,rbp
    b722:	48 c1 f8 3f          	sar    rax,0x3f
    b726:	48 c1 fa 02          	sar    rdx,0x2
    b72a:	48 89 d3             	mov    rbx,rdx
    b72d:	48 29 c3             	sub    rbx,rax
    b730:	48 85 c9             	test   rcx,rcx
    b733:	0f 84 a7 00 00 00    	je     b7e0 <addInt__mftMOxbyu0h4yByfs3sqjA+0x150>
    b739:	48 b8 00 00 00 00 00 	movabs rax,0x4000000000000000
    b740:	00 00 40 
    b743:	48 85 01             	test   QWORD PTR [rcx],rax
    b746:	0f 84 94 00 00 00    	je     b7e0 <addInt__mftMOxbyu0h4yByfs3sqjA+0x150>
    b74c:	4d 8b 07             	mov    r8,QWORD PTR [r15]
    b74f:	49 83 c0 01          	add    r8,0x1
    b753:	0f 80 50 01 00 00    	jo     b8a9 <addInt__mftMOxbyu0h4yByfs3sqjA+0x219>
    b759:	49 83 c0 08          	add    r8,0x8
    b75d:	0f 80 46 01 00 00    	jo     b8a9 <addInt__mftMOxbyu0h4yByfs3sqjA+0x219>
    b763:	4d 85 c0             	test   r8,r8
    b766:	0f 88 54 01 00 00    	js     b8c0 <addInt__mftMOxbyu0h4yByfs3sqjA+0x230>
    b76c:	48 8d 3d 0d 69 20 00 	lea    rdi,[rip+0x20690d]        # 212080 <allocator__Het9ctRSeaVb4hPekZZNCJQ>
    b773:	4c 89 c6             	mov    rsi,r8
    b776:	48 89 4c 24 18       	mov    QWORD PTR [rsp+0x18],rcx
    b77b:	4c 89 44 24 10       	mov    QWORD PTR [rsp+0x10],r8
    b780:	e8 cb a1 ff ff       	call   5950 <rawAlloc__mE4QEVyMvGRVliDWDngZCQ>
    b785:	4c 8b 44 24 10       	mov    r8,QWORD PTR [rsp+0x10]
    b78a:	31 f6                	xor    esi,esi
    b78c:	48 89 c7             	mov    rdi,rax
    b78f:	4c 89 c2             	mov    rdx,r8
    b792:	e8 e9 51 ff ff       	call   980 <memset@plt>
    b797:	49 89 c3             	mov    r11,rax
    b79a:	49 89 47 08          	mov    QWORD PTR [r15+0x8],rax
    b79e:	49 8b 07             	mov    rax,QWORD PTR [r15]
    b7a1:	49 89 03             	mov    QWORD PTR [r11],rax
    b7a4:	49 8b 07             	mov    rax,QWORD PTR [r15]
    b7a7:	48 83 c0 01          	add    rax,0x1
    b7ab:	0f 80 f8 00 00 00    	jo     b8a9 <addInt__mftMOxbyu0h4yByfs3sqjA+0x219>
    b7b1:	48 85 c0             	test   rax,rax
    b7b4:	48 8b 4c 24 18       	mov    rcx,QWORD PTR [rsp+0x18]
    b7b9:	0f 88 a1 01 00 00    	js     b960 <addInt__mftMOxbyu0h4yByfs3sqjA+0x2d0>
    b7bf:	49 8b 7f 08          	mov    rdi,QWORD PTR [r15+0x8]
    b7c3:	48 8d 71 08          	lea    rsi,[rcx+0x8]
    b7c7:	48 89 c2             	mov    rdx,rax
    b7ca:	48 83 c7 08          	add    rdi,0x8
    b7ce:	e8 ed 51 ff ff       	call   9c0 <memcpy@plt>
    b7d3:	49 8b 4f 08          	mov    rcx,QWORD PTR [r15+0x8]
    b7d7:	66 0f 1f 84 00 00 00 	nop    WORD PTR [rax+rax*1+0x0]
    b7de:	00 00 
    b7e0:	48 89 d8             	mov    rax,rbx
    b7e3:	8d 14 9b             	lea    edx,[rbx+rbx*4]
    b7e6:	4c 01 f1             	add    rcx,r14
    b7e9:	48 f7 d8             	neg    rax
    b7ec:	48 c1 e0 02          	shl    rax,0x2
    b7f0:	01 d2                	add    edx,edx
    b7f2:	48 29 d8             	sub    rax,rbx
    b7f5:	48 8d 44 45 00       	lea    rax,[rbp+rax*2+0x0]
    b7fa:	48 85 c0             	test   rax,rax
    b7fd:	0f 8f f5 fe ff ff    	jg     b6f8 <addInt__mftMOxbyu0h4yByfs3sqjA+0x68>
    b803:	b8 30 00 00 00       	mov    eax,0x30
    b808:	29 e8                	sub    eax,ebp
    b80a:	01 c2                	add    edx,eax
    b80c:	48 85 db             	test   rbx,rbx
    b80f:	49 8d 46 01          	lea    rax,[r14+0x1]
    b813:	41 88 54 0c 08       	mov    BYTE PTR [r12+rcx*1+0x8],dl
    b818:	0f 85 f1 fe ff ff    	jne    b70f <addInt__mftMOxbyu0h4yByfs3sqjA+0x7f>
    b81e:	48 83 7c 24 08 00    	cmp    QWORD PTR [rsp+0x8],0x0
    b824:	49 8d 1c 04          	lea    rbx,[r12+rax*1]
    b828:	0f 88 52 01 00 00    	js     b980 <addInt__mftMOxbyu0h4yByfs3sqjA+0x2f0>
    b82e:	48 85 db             	test   rbx,rbx
    b831:	0f 85 a9 00 00 00    	jne    b8e0 <addInt__mftMOxbyu0h4yByfs3sqjA+0x250>
    b837:	49 8b 77 08          	mov    rsi,QWORD PTR [r15+0x8]
    b83b:	48 85 f6             	test   rsi,rsi
    b83e:	74 13                	je     b853 <addInt__mftMOxbyu0h4yByfs3sqjA+0x1c3>
    b840:	48 ba 00 00 00 00 00 	movabs rdx,0x4000000000000000
    b847:	00 00 40 
    b84a:	48 85 16             	test   QWORD PTR [rsi],rdx
    b84d:	0f 84 65 01 00 00    	je     b9b8 <addInt__mftMOxbyu0h4yByfs3sqjA+0x328>
    b853:	49 c7 47 08 00 00 00 	mov    QWORD PTR [r15+0x8],0x0
    b85a:	00 
    b85b:	49 89 1f             	mov    QWORD PTR [r15],rbx
    b85e:	48 d1 f8             	sar    rax,1
    b861:	48 85 c0             	test   rax,rax
    b864:	48 89 c2             	mov    rdx,rax
    b867:	7e 31                	jle    b89a <addInt__mftMOxbyu0h4yByfs3sqjA+0x20a>
    b869:	48 8d 43 ff          	lea    rax,[rbx-0x1]
    b86d:	4c 01 e2             	add    rdx,r12
    b870:	49 8b 4f 08          	mov    rcx,QWORD PTR [r15+0x8]
    b874:	0f b6 7c 01 08       	movzx  edi,BYTE PTR [rcx+rax*1+0x8]
    b879:	42 0f b6 74 21 08    	movzx  esi,BYTE PTR [rcx+r12*1+0x8]
    b87f:	42 88 7c 21 08       	mov    BYTE PTR [rcx+r12*1+0x8],dil
    b884:	49 8b 4f 08          	mov    rcx,QWORD PTR [r15+0x8]
    b888:	49 83 c4 01          	add    r12,0x1
    b88c:	40 88 74 01 08       	mov    BYTE PTR [rcx+rax*1+0x8],sil
    b891:	48 83 e8 01          	sub    rax,0x1
    b895:	49 39 d4             	cmp    r12,rdx
    b898:	75 d6                	jne    b870 <addInt__mftMOxbyu0h4yByfs3sqjA+0x1e0>
    b89a:	48 83 c4 28          	add    rsp,0x28
    b89e:	5b                   	pop    rbx
    b89f:	5d                   	pop    rbp
    b8a0:	41 5c                	pop    r12
    b8a2:	41 5d                	pop    r13
    b8a4:	41 5e                	pop    r14
    b8a6:	41 5f                	pop    r15
    b8a8:	c3                   	ret    
    b8a9:	e8 92 df ff ff       	call   9840 <raiseOverflow>
    b8ae:	49 8b 4f 08          	mov    rcx,QWORD PTR [r15+0x8]
    b8b2:	e9 29 ff ff ff       	jmp    b7e0 <addInt__mftMOxbyu0h4yByfs3sqjA+0x150>
    b8b7:	66 0f 1f 84 00 00 00 	nop    WORD PTR [rax+rax*1+0x0]
    b8be:	00 00 
    b8c0:	48 ba ff ff ff ff ff 	movabs rdx,0x7fffffffffffffff
    b8c7:	ff ff 7f 
    b8ca:	31 f6                	xor    esi,esi
    b8cc:	4c 89 c7             	mov    rdi,r8
    b8cf:	e8 0c d7 ff ff       	call   8fe0 <raiseRangeErrorI>
    b8d4:	49 8b 4f 08          	mov    rcx,QWORD PTR [r15+0x8]
    b8d8:	e9 03 ff ff ff       	jmp    b7e0 <addInt__mftMOxbyu0h4yByfs3sqjA+0x150>
    b8dd:	0f 1f 00             	nop    DWORD PTR [rax]
    b8e0:	49 8b 17             	mov    rdx,QWORD PTR [r15]
    b8e3:	48 39 da             	cmp    rdx,rbx
    b8e6:	7d 58                	jge    b940 <addInt__mftMOxbyu0h4yByfs3sqjA+0x2b0>
    b8e8:	48 89 de             	mov    rsi,rbx
    b8eb:	48 89 44 24 08       	mov    QWORD PTR [rsp+0x8],rax
    b8f0:	48 29 d6             	sub    rsi,rdx
    b8f3:	0f 80 e8 00 00 00    	jo     b9e1 <addInt__mftMOxbyu0h4yByfs3sqjA+0x351>
    b8f9:	4c 89 ff             	mov    rdi,r15
    b8fc:	e8 9f e6 ff ff       	call   9fa0 <prepareAdd>
    b901:	49 8b 4f 08          	mov    rcx,QWORD PTR [r15+0x8]
    b905:	48 8b 44 24 08       	mov    rax,QWORD PTR [rsp+0x8]
    b90a:	c6 44 19 08 00       	mov    BYTE PTR [rcx+rbx*1+0x8],0x0
    b90f:	e9 47 ff ff ff       	jmp    b85b <addInt__mftMOxbyu0h4yByfs3sqjA+0x1cb>
    b914:	0f 1f 40 00          	nop    DWORD PTR [rax+0x0]
    b918:	48 89 de             	mov    rsi,rbx
    b91b:	4c 29 e6             	sub    rsi,r12
    b91e:	0f 80 af 00 00 00    	jo     b9d3 <addInt__mftMOxbyu0h4yByfs3sqjA+0x343>
    b924:	e8 77 e6 ff ff       	call   9fa0 <prepareAdd>
    b929:	49 8b 47 08          	mov    rax,QWORD PTR [r15+0x8]
    b92d:	c6 44 18 08 00       	mov    BYTE PTR [rax+rbx*1+0x8],0x0
    b932:	49 8b 4f 08          	mov    rcx,QWORD PTR [r15+0x8]
    b936:	e9 a1 fd ff ff       	jmp    b6dc <addInt__mftMOxbyu0h4yByfs3sqjA+0x4c>
    b93b:	0f 1f 44 00 00       	nop    DWORD PTR [rax+rax*1+0x0]
    b940:	49 8b 4f 08          	mov    rcx,QWORD PTR [r15+0x8]
    b944:	48 85 c9             	test   rcx,rcx
    b947:	74 9f                	je     b8e8 <addInt__mftMOxbyu0h4yByfs3sqjA+0x258>
    b949:	48 be 00 00 00 00 00 	movabs rsi,0x4000000000000000
    b950:	00 00 40 
    b953:	48 85 31             	test   QWORD PTR [rcx],rsi
    b956:	74 b2                	je     b90a <addInt__mftMOxbyu0h4yByfs3sqjA+0x27a>
    b958:	eb 8e                	jmp    b8e8 <addInt__mftMOxbyu0h4yByfs3sqjA+0x258>
    b95a:	66 0f 1f 44 00 00    	nop    WORD PTR [rax+rax*1+0x0]
    b960:	48 ba ff ff ff ff ff 	movabs rdx,0x7fffffffffffffff
    b967:	ff ff 7f 
    b96a:	31 f6                	xor    esi,esi
    b96c:	48 89 c7             	mov    rdi,rax
    b96f:	e8 6c d6 ff ff       	call   8fe0 <raiseRangeErrorI>
    b974:	49 8b 4f 08          	mov    rcx,QWORD PTR [r15+0x8]
    b978:	e9 63 fe ff ff       	jmp    b7e0 <addInt__mftMOxbyu0h4yByfs3sqjA+0x150>
    b97d:	0f 1f 00             	nop    DWORD PTR [rax]
    b980:	4c 89 ff             	mov    rdi,r15
    b983:	e8 58 e9 ff ff       	call   a2e0 <nimPrepareStrMutationV2>
    b988:	49 8b 47 08          	mov    rax,QWORD PTR [r15+0x8]
    b98c:	c6 44 18 08 2d       	mov    BYTE PTR [rax+rbx*1+0x8],0x2d
    b991:	49 8d 46 02          	lea    rax,[r14+0x2]
    b995:	49 8d 1c 04          	lea    rbx,[r12+rax*1]
    b999:	e9 90 fe ff ff       	jmp    b82e <addInt__mftMOxbyu0h4yByfs3sqjA+0x19e>
    b99e:	66 90                	xchg   ax,ax
    b9a0:	48 8d 3d d9 66 20 00 	lea    rdi,[rip+0x2066d9]        # 212080 <allocator__Het9ctRSeaVb4hPekZZNCJQ>
    b9a7:	e8 d4 67 ff ff       	call   2180 <rawDealloc__K7uQ6aTKvW6OnOV8EMoNNQ>
    b9ac:	e9 21 fd ff ff       	jmp    b6d2 <addInt__mftMOxbyu0h4yByfs3sqjA+0x42>
    b9b1:	0f 1f 80 00 00 00 00 	nop    DWORD PTR [rax+0x0]
    b9b8:	48 8d 3d c1 66 20 00 	lea    rdi,[rip+0x2066c1]        # 212080 <allocator__Het9ctRSeaVb4hPekZZNCJQ>
    b9bf:	48 89 44 24 08       	mov    QWORD PTR [rsp+0x8],rax
    b9c4:	e8 b7 67 ff ff       	call   2180 <rawDealloc__K7uQ6aTKvW6OnOV8EMoNNQ>
    b9c9:	48 8b 44 24 08       	mov    rax,QWORD PTR [rsp+0x8]
    b9ce:	e9 80 fe ff ff       	jmp    b853 <addInt__mftMOxbyu0h4yByfs3sqjA+0x1c3>
    b9d3:	e8 68 de ff ff       	call   9840 <raiseOverflow>
    b9d8:	49 8b 4f 08          	mov    rcx,QWORD PTR [r15+0x8]
    b9dc:	e9 fe fc ff ff       	jmp    b6df <addInt__mftMOxbyu0h4yByfs3sqjA+0x4f>
    b9e1:	e8 5a de ff ff       	call   9840 <raiseOverflow>
    b9e6:	48 8b 44 24 08       	mov    rax,QWORD PTR [rsp+0x8]
    b9eb:	e9 6e fe ff ff       	jmp    b85e <addInt__mftMOxbyu0h4yByfs3sqjA+0x1ce>

000000000000b9f0 <add__VHIeeMfqavFfKtbV1Wal0Q>:
    b9f0:	41 57                	push   r15
    b9f2:	41 56                	push   r14
    b9f4:	41 55                	push   r13
    b9f6:	41 54                	push   r12
    b9f8:	49 89 fc             	mov    r12,rdi
    b9fb:	55                   	push   rbp
    b9fc:	53                   	push   rbx
    b9fd:	48 83 ec 18          	sub    rsp,0x18
    ba01:	48 8b 6f 08          	mov    rbp,QWORD PTR [rdi+0x8]
    ba05:	48 8b 1f             	mov    rbx,QWORD PTR [rdi]
    ba08:	48 85 ed             	test   rbp,rbp
    ba0b:	0f 84 3f 01 00 00    	je     bb50 <add__VHIeeMfqavFfKtbV1Wal0Q+0x160>
    ba11:	49 89 dd             	mov    r13,rbx
    ba14:	49 83 c5 01          	add    r13,0x1
    ba18:	70 56                	jo     ba70 <add__VHIeeMfqavFfKtbV1Wal0Q+0x80>
    ba1a:	48 8b 55 00          	mov    rdx,QWORD PTR [rbp+0x0]
    ba1e:	4c 89 e8             	mov    rax,r13
    ba21:	49 39 d5             	cmp    r13,rdx
    ba24:	7f 62                	jg     ba88 <add__VHIeeMfqavFfKtbV1Wal0Q+0x98>
    ba26:	49 89 04 24          	mov    QWORD PTR [r12],rax
    ba2a:	48 8d 04 5b          	lea    rax,[rbx+rbx*2]
    ba2e:	48 8b 54 24 60       	mov    rdx,QWORD PTR [rsp+0x60]
    ba33:	f3 0f 6f 44 24 50    	movdqu xmm0,XMMWORD PTR [rsp+0x50]
    ba39:	48 8d 44 c5 00       	lea    rax,[rbp+rax*8+0x0]
    ba3e:	0f 11 40 08          	movups XMMWORD PTR [rax+0x8],xmm0
    ba42:	48 89 50 18          	mov    QWORD PTR [rax+0x18],rdx
    ba46:	48 83 c4 18          	add    rsp,0x18
    ba4a:	5b                   	pop    rbx
    ba4b:	5d                   	pop    rbp
    ba4c:	41 5c                	pop    r12
    ba4e:	41 5d                	pop    r13
    ba50:	41 5e                	pop    r14
    ba52:	41 5f                	pop    r15
    ba54:	c3                   	ret    
    ba55:	e8 e6 dd ff ff       	call   9840 <raiseOverflow>
    ba5a:	48 89 d8             	mov    rax,rbx
    ba5d:	49 c7 44 24 08 00 00 	mov    QWORD PTR [r12+0x8],0x0
    ba64:	00 00 
    ba66:	48 83 c0 01          	add    rax,0x1
    ba6a:	0f 81 a9 02 00 00    	jno    bd19 <add__VHIeeMfqavFfKtbV1Wal0Q+0x329>
    ba70:	48 83 c4 18          	add    rsp,0x18
    ba74:	5b                   	pop    rbx
    ba75:	5d                   	pop    rbp
    ba76:	41 5c                	pop    r12
    ba78:	41 5d                	pop    r13
    ba7a:	41 5e                	pop    r14
    ba7c:	41 5f                	pop    r15
    ba7e:	e9 bd dd ff ff       	jmp    9840 <raiseOverflow>
    ba83:	0f 1f 44 00 00       	nop    DWORD PTR [rax+rax*1+0x0]
    ba88:	49 be ff ff ff ff ff 	movabs r14,0xbfffffffffffffff
    ba8f:	ff ff bf 
    ba92:	49 21 d6             	and    r14,rdx
    ba95:	0f 8e 0d 02 00 00    	jle    bca8 <add__VHIeeMfqavFfKtbV1Wal0Q+0x2b8>
    ba9b:	49 81 fe ff ff 00 00 	cmp    r14,0xffff
    baa2:	0f 8e 68 01 00 00    	jle    bc10 <add__VHIeeMfqavFfKtbV1Wal0Q+0x220>
    baa8:	49 6b ce 03          	imul   rcx,r14,0x3
    baac:	0f 80 6e 02 00 00    	jo     bd20 <add__VHIeeMfqavFfKtbV1Wal0Q+0x330>
    bab2:	48 89 c8             	mov    rax,rcx
    bab5:	48 c1 e8 3f          	shr    rax,0x3f
    bab9:	48 01 c8             	add    rax,rcx
    babc:	48 d1 f8             	sar    rax,1
    babf:	49 39 c5             	cmp    r13,rax
    bac2:	4c 0f 4c e8          	cmovl  r13,rax
    bac6:	48 0f ba e2 3e       	bt     rdx,0x3e
    bacb:	0f 83 df 00 00 00    	jae    bbb0 <add__VHIeeMfqavFfKtbV1Wal0Q+0x1c0>
    bad1:	49 6b d5 18          	imul   rdx,r13,0x18
    bad5:	0f 80 7a ff ff ff    	jo     ba55 <add__VHIeeMfqavFfKtbV1Wal0Q+0x65>
    badb:	48 83 c2 08          	add    rdx,0x8
    badf:	49 89 d6             	mov    r14,rdx
    bae2:	0f 80 6d ff ff ff    	jo     ba55 <add__VHIeeMfqavFfKtbV1Wal0Q+0x65>
    bae8:	48 85 d2             	test   rdx,rdx
    baeb:	0f 88 da 01 00 00    	js     bccb <add__VHIeeMfqavFfKtbV1Wal0Q+0x2db>
    baf1:	48 8d 3d 88 65 20 00 	lea    rdi,[rip+0x206588]        # 212080 <allocator__Het9ctRSeaVb4hPekZZNCJQ>
    baf8:	48 89 d6             	mov    rsi,rdx
    bafb:	e8 50 9e ff ff       	call   5950 <rawAlloc__mE4QEVyMvGRVliDWDngZCQ>
    bb00:	31 f6                	xor    esi,esi
    bb02:	48 89 c7             	mov    rdi,rax
    bb05:	4c 89 f2             	mov    rdx,r14
    bb08:	49 89 c7             	mov    r15,rax
    bb0b:	e8 70 4e ff ff       	call   980 <memset@plt>
    bb10:	48 6b c3 18          	imul   rax,rbx,0x18
    bb14:	49 8d 7f 08          	lea    rdi,[r15+0x8]
    bb18:	48 8d 75 08          	lea    rsi,[rbp+0x8]
    bb1c:	0f 80 33 ff ff ff    	jo     ba55 <add__VHIeeMfqavFfKtbV1Wal0Q+0x65>
    bb22:	48 85 c0             	test   rax,rax
    bb25:	0f 88 bb 01 00 00    	js     bce6 <add__VHIeeMfqavFfKtbV1Wal0Q+0x2f6>
    bb2b:	48 89 c2             	mov    rdx,rax
    bb2e:	4c 89 fd             	mov    rbp,r15
    bb31:	e8 8a 4e ff ff       	call   9c0 <memcpy@plt>
    bb36:	4d 89 2f             	mov    QWORD PTR [r15],r13
    bb39:	48 89 d8             	mov    rax,rbx
    bb3c:	49 89 6c 24 08       	mov    QWORD PTR [r12+0x8],rbp
    bb41:	48 83 c0 01          	add    rax,0x1
    bb45:	e9 dc fe ff ff       	jmp    ba26 <add__VHIeeMfqavFfKtbV1Wal0Q+0x36>
    bb4a:	66 0f 1f 44 00 00    	nop    WORD PTR [rax+rax*1+0x0]
    bb50:	49 89 de             	mov    r14,rbx
    bb53:	49 83 c6 01          	add    r14,0x1
    bb57:	0f 80 f8 fe ff ff    	jo     ba55 <add__VHIeeMfqavFfKtbV1Wal0Q+0x65>
    bb5d:	4d 85 f6             	test   r14,r14
    bb60:	7e d7                	jle    bb39 <add__VHIeeMfqavFfKtbV1Wal0Q+0x149>
    bb62:	49 6b d6 18          	imul   rdx,r14,0x18
    bb66:	0f 80 e9 fe ff ff    	jo     ba55 <add__VHIeeMfqavFfKtbV1Wal0Q+0x65>
    bb6c:	48 83 c2 08          	add    rdx,0x8
    bb70:	49 89 d5             	mov    r13,rdx
    bb73:	0f 80 dc fe ff ff    	jo     ba55 <add__VHIeeMfqavFfKtbV1Wal0Q+0x65>
    bb79:	48 85 d2             	test   rdx,rdx
    bb7c:	0f 88 30 01 00 00    	js     bcb2 <add__VHIeeMfqavFfKtbV1Wal0Q+0x2c2>
    bb82:	48 8d 3d f7 64 20 00 	lea    rdi,[rip+0x2064f7]        # 212080 <allocator__Het9ctRSeaVb4hPekZZNCJQ>
    bb89:	48 89 d6             	mov    rsi,rdx
    bb8c:	e8 bf 9d ff ff       	call   5950 <rawAlloc__mE4QEVyMvGRVliDWDngZCQ>
    bb91:	4c 89 ea             	mov    rdx,r13
    bb94:	48 89 c5             	mov    rbp,rax
    bb97:	31 f6                	xor    esi,esi
    bb99:	48 89 c7             	mov    rdi,rax
    bb9c:	e8 df 4d ff ff       	call   980 <memset@plt>
    bba1:	4c 89 75 00          	mov    QWORD PTR [rbp+0x0],r14
    bba5:	eb 92                	jmp    bb39 <add__VHIeeMfqavFfKtbV1Wal0Q+0x149>
    bba7:	66 0f 1f 84 00 00 00 	nop    WORD PTR [rax+rax*1+0x0]
    bbae:	00 00 
    bbb0:	49 6b fe 18          	imul   rdi,r14,0x18
    bbb4:	0f 80 9b fe ff ff    	jo     ba55 <add__VHIeeMfqavFfKtbV1Wal0Q+0x65>
    bbba:	48 83 c7 08          	add    rdi,0x8
    bbbe:	49 89 fe             	mov    r14,rdi
    bbc1:	0f 80 8e fe ff ff    	jo     ba55 <add__VHIeeMfqavFfKtbV1Wal0Q+0x65>
    bbc7:	49 6b fd 18          	imul   rdi,r13,0x18
    bbcb:	0f 80 84 fe ff ff    	jo     ba55 <add__VHIeeMfqavFfKtbV1Wal0Q+0x65>
    bbd1:	48 83 c7 08          	add    rdi,0x8
    bbd5:	49 89 ff             	mov    r15,rdi
    bbd8:	0f 80 77 fe ff ff    	jo     ba55 <add__VHIeeMfqavFfKtbV1Wal0Q+0x65>
    bbde:	4d 85 f6             	test   r14,r14
    bbe1:	0f 88 e4 00 00 00    	js     bccb <add__VHIeeMfqavFfKtbV1Wal0Q+0x2db>
    bbe7:	48 85 ff             	test   rdi,rdi
    bbea:	0f 88 11 01 00 00    	js     bd01 <add__VHIeeMfqavFfKtbV1Wal0Q+0x311>
    bbf0:	75 2e                	jne    bc20 <add__VHIeeMfqavFfKtbV1Wal0Q+0x230>
    bbf2:	48 8d 3d 87 64 20 00 	lea    rdi,[rip+0x206487]        # 212080 <allocator__Het9ctRSeaVb4hPekZZNCJQ>
    bbf9:	48 89 ee             	mov    rsi,rbp
    bbfc:	e8 7f 65 ff ff       	call   2180 <rawDealloc__K7uQ6aTKvW6OnOV8EMoNNQ>
    bc01:	48 c7 04 25 00 00 00 	mov    QWORD PTR ds:0x0,0x0
    bc08:	00 00 00 00 00 
    bc0d:	0f 0b                	ud2    
    bc0f:	90                   	nop
    bc10:	4b 8d 04 36          	lea    rax,[r14+r14*1]
    bc14:	e9 a6 fe ff ff       	jmp    babf <add__VHIeeMfqavFfKtbV1Wal0Q+0xcf>
    bc19:	0f 1f 80 00 00 00 00 	nop    DWORD PTR [rax+0x0]
    bc20:	48 89 fe             	mov    rsi,rdi
    bc23:	48 8d 3d 56 64 20 00 	lea    rdi,[rip+0x206456]        # 212080 <allocator__Het9ctRSeaVb4hPekZZNCJQ>
    bc2a:	e8 21 9d ff ff       	call   5950 <rawAlloc__mE4QEVyMvGRVliDWDngZCQ>
    bc2f:	48 89 c1             	mov    rcx,rax
    bc32:	48 89 e8             	mov    rax,rbp
    bc35:	48 89 ee             	mov    rsi,rbp
    bc38:	48 25 00 f0 ff ff    	and    rax,0xfffffffffffff000
    bc3e:	48 89 cf             	mov    rdi,rcx
    bc41:	48 89 4c 24 08       	mov    QWORD PTR [rsp+0x8],rcx
    bc46:	48 8b 50 08          	mov    rdx,QWORD PTR [rax+0x8]
    bc4a:	48 8d 42 e0          	lea    rax,[rdx-0x20]
    bc4e:	48 81 fa c8 0f 00 00 	cmp    rdx,0xfc8
    bc55:	48 0f 4f d0          	cmovg  rdx,rax
    bc59:	49 39 d7             	cmp    r15,rdx
    bc5c:	49 0f 4e d7          	cmovle rdx,r15
    bc60:	e8 5b 4d ff ff       	call   9c0 <memcpy@plt>
    bc65:	48 8d 3d 14 64 20 00 	lea    rdi,[rip+0x206414]        # 212080 <allocator__Het9ctRSeaVb4hPekZZNCJQ>
    bc6c:	48 89 ee             	mov    rsi,rbp
    bc6f:	e8 0c 65 ff ff       	call   2180 <rawDealloc__K7uQ6aTKvW6OnOV8EMoNNQ>
    bc74:	4d 39 fe             	cmp    r14,r15
    bc77:	48 8b 4c 24 08       	mov    rcx,QWORD PTR [rsp+0x8]
    bc7c:	7d 1b                	jge    bc99 <add__VHIeeMfqavFfKtbV1Wal0Q+0x2a9>
    bc7e:	4a 8d 3c 31          	lea    rdi,[rcx+r14*1]
    bc82:	4c 89 fa             	mov    rdx,r15
    bc85:	31 f6                	xor    esi,esi
    bc87:	4c 29 f2             	sub    rdx,r14
    bc8a:	48 89 4c 24 08       	mov    QWORD PTR [rsp+0x8],rcx
    bc8f:	e8 ec 4c ff ff       	call   980 <memset@plt>
    bc94:	48 8b 4c 24 08       	mov    rcx,QWORD PTR [rsp+0x8]
    bc99:	4c 89 29             	mov    QWORD PTR [rcx],r13
    bc9c:	48 89 cd             	mov    rbp,rcx
    bc9f:	e9 95 fe ff ff       	jmp    bb39 <add__VHIeeMfqavFfKtbV1Wal0Q+0x149>
    bca4:	0f 1f 40 00          	nop    DWORD PTR [rax+0x0]
    bca8:	b8 04 00 00 00       	mov    eax,0x4
    bcad:	e9 0d fe ff ff       	jmp    babf <add__VHIeeMfqavFfKtbV1Wal0Q+0xcf>
    bcb2:	48 ba ff ff ff ff ff 	movabs rdx,0x7fffffffffffffff
    bcb9:	ff ff 7f 
    bcbc:	31 f6                	xor    esi,esi
    bcbe:	4c 89 ef             	mov    rdi,r13
    bcc1:	e8 1a d3 ff ff       	call   8fe0 <raiseRangeErrorI>
    bcc6:	e9 6e fe ff ff       	jmp    bb39 <add__VHIeeMfqavFfKtbV1Wal0Q+0x149>
    bccb:	48 ba ff ff ff ff ff 	movabs rdx,0x7fffffffffffffff
    bcd2:	ff ff 7f 
    bcd5:	31 f6                	xor    esi,esi
    bcd7:	4c 89 f7             	mov    rdi,r14
    bcda:	e8 01 d3 ff ff       	call   8fe0 <raiseRangeErrorI>
    bcdf:	31 ed                	xor    ebp,ebp
    bce1:	e9 53 fe ff ff       	jmp    bb39 <add__VHIeeMfqavFfKtbV1Wal0Q+0x149>
    bce6:	48 ba ff ff ff ff ff 	movabs rdx,0x7fffffffffffffff
    bced:	ff ff 7f 
    bcf0:	31 f6                	xor    esi,esi
    bcf2:	48 89 c7             	mov    rdi,rax
    bcf5:	e8 e6 d2 ff ff       	call   8fe0 <raiseRangeErrorI>
    bcfa:	31 ed                	xor    ebp,ebp
    bcfc:	e9 38 fe ff ff       	jmp    bb39 <add__VHIeeMfqavFfKtbV1Wal0Q+0x149>
    bd01:	48 ba ff ff ff ff ff 	movabs rdx,0x7fffffffffffffff
    bd08:	ff ff 7f 
    bd0b:	31 f6                	xor    esi,esi
    bd0d:	31 ed                	xor    ebp,ebp
    bd0f:	e8 cc d2 ff ff       	call   8fe0 <raiseRangeErrorI>
    bd14:	e9 20 fe ff ff       	jmp    bb39 <add__VHIeeMfqavFfKtbV1Wal0Q+0x149>
    bd19:	31 ed                	xor    ebp,ebp
    bd1b:	e9 06 fd ff ff       	jmp    ba26 <add__VHIeeMfqavFfKtbV1Wal0Q+0x36>
    bd20:	e8 1b db ff ff       	call   9840 <raiseOverflow>
    bd25:	48 8b 55 00          	mov    rdx,QWORD PTR [rbp+0x0]
    bd29:	31 c0                	xor    eax,eax
    bd2b:	e9 8f fd ff ff       	jmp    babf <add__VHIeeMfqavFfKtbV1Wal0Q+0xcf>

000000000000bd30 <nimInt64ToStr>:
    bd30:	41 57                	push   r15
    bd32:	41 56                	push   r14
    bd34:	49 89 fe             	mov    r14,rdi
    bd37:	41 55                	push   r13
    bd39:	41 54                	push   r12
    bd3b:	be 29 00 00 00       	mov    esi,0x29
    bd40:	55                   	push   rbp
    bd41:	53                   	push   rbx
    bd42:	45 31 ff             	xor    r15d,r15d
    bd45:	66 0f ef c0          	pxor   xmm0,xmm0
    bd49:	49 bc 00 00 00 00 00 	movabs r12,0x4000000000000000
    bd50:	00 00 40 
    bd53:	48 83 ec 68          	sub    rsp,0x68
    bd57:	41 bd 30 00 00 00    	mov    r13d,0x30
    bd5d:	48 89 7c 24 20       	mov    QWORD PTR [rsp+0x20],rdi
    bd62:	48 8d 3d 17 63 20 00 	lea    rdi,[rip+0x206317]        # 212080 <allocator__Het9ctRSeaVb4hPekZZNCJQ>
    bd69:	48 c7 44 24 30 00 00 	mov    QWORD PTR [rsp+0x30],0x0
    bd70:	00 00 
    bd72:	0f 29 44 24 40       	movaps XMMWORD PTR [rsp+0x40],xmm0
    bd77:	64 48 8b 04 25 28 00 	mov    rax,QWORD PTR fs:0x28
    bd7e:	00 00 
    bd80:	48 89 44 24 58       	mov    QWORD PTR [rsp+0x58],rax
    bd85:	31 c0                	xor    eax,eax
    bd87:	0f 29 04 24          	movaps XMMWORD PTR [rsp],xmm0
    bd8b:	48 8d 6c 24 40       	lea    rbp,[rsp+0x40]
    bd90:	48 c7 44 24 38 00 00 	mov    QWORD PTR [rsp+0x38],0x0
    bd97:	00 00 
    bd99:	e8 b2 9b ff ff       	call   5950 <rawAlloc__mE4QEVyMvGRVliDWDngZCQ>
    bd9e:	66 0f 6f 04 24       	movdqa xmm0,XMMWORD PTR [rsp]
    bda3:	48 89 ef             	mov    rdi,rbp
    bda6:	c6 40 28 00          	mov    BYTE PTR [rax+0x28],0x0
    bdaa:	48 c7 00 20 00 00 00 	mov    QWORD PTR [rax],0x20
    bdb1:	48 89 c3             	mov    rbx,rax
    bdb4:	0f 11 40 08          	movups XMMWORD PTR [rax+0x8],xmm0
    bdb8:	48 bd 67 66 66 66 66 	movabs rbp,0x6666666666666667
    bdbf:	66 66 66 
    bdc2:	0f 11 40 18          	movups XMMWORD PTR [rax+0x18],xmm0
    bdc6:	e8 d5 cf ff ff       	call   8da0 <chckNil>
    bdcb:	48 8d 44 24 30       	lea    rax,[rsp+0x30]
    bdd0:	be 20 00 00 00       	mov    esi,0x20
    bdd5:	48 c7 44 24 30 00 00 	mov    QWORD PTR [rsp+0x30],0x0
    bddc:	00 00 
    bdde:	48 89 5c 24 38       	mov    QWORD PTR [rsp+0x38],rbx
    bde3:	48 89 c7             	mov    rdi,rax
    bde6:	48 89 44 24 28       	mov    QWORD PTR [rsp+0x28],rax
    bdeb:	e8 b0 e1 ff ff       	call   9fa0 <prepareAdd>
    bdf0:	4c 8b 4c 24 38       	mov    r9,QWORD PTR [rsp+0x38]
    bdf5:	48 c7 44 24 30 20 00 	mov    QWORD PTR [rsp+0x30],0x20
    bdfc:	00 00 
    bdfe:	41 c6 41 28 00       	mov    BYTE PTR [r9+0x28],0x0
    be03:	e9 2b 00 00 00       	jmp    be33 <nimInt64ToStr+0x103>
    be08:	0f 1f 84 00 00 00 00 	nop    DWORD PTR [rax+rax*1+0x0]
    be0f:	00 
    be10:	41 8d 4e 30          	lea    ecx,[r14+0x30]
    be14:	29 d1                	sub    ecx,edx
    be16:	48 85 db             	test   rbx,rbx
    be19:	49 8d 57 01          	lea    rdx,[r15+0x1]
    be1d:	43 88 4c 39 08       	mov    BYTE PTR [r9+r15*1+0x8],cl
    be22:	0f 84 01 01 00 00    	je     bf29 <nimInt64ToStr+0x1f9>
    be28:	4c 8b 4c 24 38       	mov    r9,QWORD PTR [rsp+0x38]
    be2d:	49 89 de             	mov    r14,rbx
    be30:	49 89 d7             	mov    r15,rdx
    be33:	4c 89 f0             	mov    rax,r14
    be36:	48 f7 ed             	imul   rbp
    be39:	4c 89 f0             	mov    rax,r14
    be3c:	48 c1 f8 3f          	sar    rax,0x3f
    be40:	48 c1 fa 02          	sar    rdx,0x2
    be44:	48 89 d3             	mov    rbx,rdx
    be47:	48 29 c3             	sub    rbx,rax
    be4a:	4d 85 c9             	test   r9,r9
    be4d:	0f 84 9d 00 00 00    	je     bef0 <nimInt64ToStr+0x1c0>
    be53:	4d 85 21             	test   QWORD PTR [r9],r12
    be56:	0f 84 94 00 00 00    	je     bef0 <nimInt64ToStr+0x1c0>
    be5c:	4c 8b 44 24 30       	mov    r8,QWORD PTR [rsp+0x30]
    be61:	49 83 c0 01          	add    r8,0x1
    be65:	0f 80 77 01 00 00    	jo     bfe2 <nimInt64ToStr+0x2b2>
    be6b:	49 83 c0 08          	add    r8,0x8
    be6f:	0f 80 6d 01 00 00    	jo     bfe2 <nimInt64ToStr+0x2b2>
    be75:	4d 85 c0             	test   r8,r8
    be78:	0f 88 7a 01 00 00    	js     bff8 <nimInt64ToStr+0x2c8>
    be7e:	48 8d 3d fb 61 20 00 	lea    rdi,[rip+0x2061fb]        # 212080 <allocator__Het9ctRSeaVb4hPekZZNCJQ>
    be85:	4c 89 c6             	mov    rsi,r8
    be88:	4c 89 4c 24 18       	mov    QWORD PTR [rsp+0x18],r9
    be8d:	4c 89 04 24          	mov    QWORD PTR [rsp],r8
    be91:	e8 ba 9a ff ff       	call   5950 <rawAlloc__mE4QEVyMvGRVliDWDngZCQ>
    be96:	4c 8b 04 24          	mov    r8,QWORD PTR [rsp]
    be9a:	31 f6                	xor    esi,esi
    be9c:	48 89 c7             	mov    rdi,rax
    be9f:	4c 89 c2             	mov    rdx,r8
    bea2:	e8 d9 4a ff ff       	call   980 <memset@plt>
    bea7:	49 89 c3             	mov    r11,rax
    beaa:	48 89 44 24 38       	mov    QWORD PTR [rsp+0x38],rax
    beaf:	48 8b 44 24 30       	mov    rax,QWORD PTR [rsp+0x30]
    beb4:	49 89 03             	mov    QWORD PTR [r11],rax
    beb7:	48 8b 44 24 30       	mov    rax,QWORD PTR [rsp+0x30]
    bebc:	48 83 c0 01          	add    rax,0x1
    bec0:	0f 80 1c 01 00 00    	jo     bfe2 <nimInt64ToStr+0x2b2>
    bec6:	48 85 c0             	test   rax,rax
    bec9:	4c 8b 4c 24 18       	mov    r9,QWORD PTR [rsp+0x18]
    bece:	0f 88 4c 01 00 00    	js     c020 <nimInt64ToStr+0x2f0>
    bed4:	48 8b 74 24 38       	mov    rsi,QWORD PTR [rsp+0x38]
    bed9:	48 89 c2             	mov    rdx,rax
    bedc:	48 8d 7e 08          	lea    rdi,[rsi+0x8]
    bee0:	49 8d 71 08          	lea    rsi,[r9+0x8]
    bee4:	e8 d7 4a ff ff       	call   9c0 <memcpy@plt>
    bee9:	4c 8b 4c 24 38       	mov    r9,QWORD PTR [rsp+0x38]
    beee:	66 90                	xchg   ax,ax
    bef0:	48 89 d8             	mov    rax,rbx
    bef3:	8d 14 9b             	lea    edx,[rbx+rbx*4]
    bef6:	48 f7 d8             	neg    rax
    bef9:	48 c1 e0 02          	shl    rax,0x2
    befd:	01 d2                	add    edx,edx
    beff:	48 29 d8             	sub    rax,rbx
    bf02:	49 8d 04 46          	lea    rax,[r14+rax*2]
    bf06:	48 85 c0             	test   rax,rax
    bf09:	0f 8f 01 ff ff ff    	jg     be10 <nimInt64ToStr+0xe0>
    bf0f:	44 89 e8             	mov    eax,r13d
    bf12:	44 29 f0             	sub    eax,r14d
    bf15:	01 c2                	add    edx,eax
    bf17:	48 85 db             	test   rbx,rbx
    bf1a:	43 88 54 39 08       	mov    BYTE PTR [r9+r15*1+0x8],dl
    bf1f:	49 8d 57 01          	lea    rdx,[r15+0x1]
    bf23:	0f 85 ff fe ff ff    	jne    be28 <nimInt64ToStr+0xf8>
    bf29:	48 83 7c 24 20 00    	cmp    QWORD PTR [rsp+0x20],0x0
    bf2f:	0f 88 3b 01 00 00    	js     c070 <nimInt64ToStr+0x340>
    bf35:	48 8b 44 24 30       	mov    rax,QWORD PTR [rsp+0x30]
    bf3a:	48 39 c2             	cmp    rdx,rax
    bf3d:	0f 8e fd 00 00 00    	jle    c040 <nimInt64ToStr+0x310>
    bf43:	48 89 d6             	mov    rsi,rdx
    bf46:	48 89 14 24          	mov    QWORD PTR [rsp],rdx
    bf4a:	48 29 c6             	sub    rsi,rax
    bf4d:	0f 80 47 01 00 00    	jo     c09a <nimInt64ToStr+0x36a>
    bf53:	48 8b 7c 24 28       	mov    rdi,QWORD PTR [rsp+0x28]
    bf58:	e8 43 e0 ff ff       	call   9fa0 <prepareAdd>
    bf5d:	48 8b 4c 24 38       	mov    rcx,QWORD PTR [rsp+0x38]
    bf62:	48 8b 14 24          	mov    rdx,QWORD PTR [rsp]
    bf66:	c6 44 11 08 00       	mov    BYTE PTR [rcx+rdx*1+0x8],0x0
    bf6b:	48 89 54 24 30       	mov    QWORD PTR [rsp+0x30],rdx
    bf70:	49 89 d0             	mov    r8,rdx
    bf73:	49 d1 f8             	sar    r8,1
    bf76:	4d 85 c0             	test   r8,r8
    bf79:	7e 3a                	jle    bfb5 <nimInt64ToStr+0x285>
    bf7b:	4c 8d 4a ff          	lea    r9,[rdx-0x1]
    bf7f:	31 c0                	xor    eax,eax
    bf81:	0f 1f 80 00 00 00 00 	nop    DWORD PTR [rax+0x0]
    bf88:	48 8b 54 24 38       	mov    rdx,QWORD PTR [rsp+0x38]
    bf8d:	4c 89 c9             	mov    rcx,r9
    bf90:	48 29 c1             	sub    rcx,rax
    bf93:	0f b6 7c 0a 08       	movzx  edi,BYTE PTR [rdx+rcx*1+0x8]
    bf98:	0f b6 74 02 08       	movzx  esi,BYTE PTR [rdx+rax*1+0x8]
    bf9d:	40 88 7c 02 08       	mov    BYTE PTR [rdx+rax*1+0x8],dil
    bfa2:	48 8b 54 24 38       	mov    rdx,QWORD PTR [rsp+0x38]
    bfa7:	48 83 c0 01          	add    rax,0x1
    bfab:	49 39 c0             	cmp    r8,rax
    bfae:	40 88 74 0a 08       	mov    BYTE PTR [rdx+rcx*1+0x8],sil
    bfb3:	75 d3                	jne    bf88 <nimInt64ToStr+0x258>
    bfb5:	48 8b 74 24 58       	mov    rsi,QWORD PTR [rsp+0x58]
    bfba:	64 48 33 34 25 28 00 	xor    rsi,QWORD PTR fs:0x28
    bfc1:	00 00 
    bfc3:	48 8b 44 24 30       	mov    rax,QWORD PTR [rsp+0x30]
    bfc8:	48 8b 54 24 38       	mov    rdx,QWORD PTR [rsp+0x38]
    bfcd:	0f 85 c2 00 00 00    	jne    c095 <nimInt64ToStr+0x365>
    bfd3:	48 83 c4 68          	add    rsp,0x68
    bfd7:	5b                   	pop    rbx
    bfd8:	5d                   	pop    rbp
    bfd9:	41 5c                	pop    r12
    bfdb:	41 5d                	pop    r13
    bfdd:	41 5e                	pop    r14
    bfdf:	41 5f                	pop    r15
    bfe1:	c3                   	ret    
    bfe2:	e8 59 d8 ff ff       	call   9840 <raiseOverflow>
    bfe7:	4c 8b 4c 24 38       	mov    r9,QWORD PTR [rsp+0x38]
    bfec:	e9 ff fe ff ff       	jmp    bef0 <nimInt64ToStr+0x1c0>
    bff1:	0f 1f 80 00 00 00 00 	nop    DWORD PTR [rax+0x0]
    bff8:	48 ba ff ff ff ff ff 	movabs rdx,0x7fffffffffffffff
    bfff:	ff ff 7f 
    c002:	31 f6                	xor    esi,esi
    c004:	4c 89 c7             	mov    rdi,r8
    c007:	e8 d4 cf ff ff       	call   8fe0 <raiseRangeErrorI>
    c00c:	4c 8b 4c 24 38       	mov    r9,QWORD PTR [rsp+0x38]
    c011:	e9 da fe ff ff       	jmp    bef0 <nimInt64ToStr+0x1c0>
    c016:	66 2e 0f 1f 84 00 00 	nop    WORD PTR cs:[rax+rax*1+0x0]
    c01d:	00 00 00 
    c020:	48 ba ff ff ff ff ff 	movabs rdx,0x7fffffffffffffff
    c027:	ff ff 7f 
    c02a:	31 f6                	xor    esi,esi
    c02c:	48 89 c7             	mov    rdi,rax
    c02f:	e8 ac cf ff ff       	call   8fe0 <raiseRangeErrorI>
    c034:	4c 8b 4c 24 38       	mov    r9,QWORD PTR [rsp+0x38]
    c039:	e9 b2 fe ff ff       	jmp    bef0 <nimInt64ToStr+0x1c0>
    c03e:	66 90                	xchg   ax,ax
    c040:	48 8b 4c 24 38       	mov    rcx,QWORD PTR [rsp+0x38]
    c045:	48 85 c9             	test   rcx,rcx
    c048:	0f 84 f5 fe ff ff    	je     bf43 <nimInt64ToStr+0x213>
    c04e:	48 be 00 00 00 00 00 	movabs rsi,0x4000000000000000
    c055:	00 00 40 
    c058:	48 85 31             	test   QWORD PTR [rcx],rsi
    c05b:	0f 84 05 ff ff ff    	je     bf66 <nimInt64ToStr+0x236>
    c061:	e9 dd fe ff ff       	jmp    bf43 <nimInt64ToStr+0x213>
    c066:	66 2e 0f 1f 84 00 00 	nop    WORD PTR cs:[rax+rax*1+0x0]
    c06d:	00 00 00 
    c070:	48 8b 7c 24 28       	mov    rdi,QWORD PTR [rsp+0x28]
    c075:	48 89 14 24          	mov    QWORD PTR [rsp],rdx
    c079:	e8 62 e2 ff ff       	call   a2e0 <nimPrepareStrMutationV2>
    c07e:	48 8b 14 24          	mov    rdx,QWORD PTR [rsp]
    c082:	48 8b 44 24 38       	mov    rax,QWORD PTR [rsp+0x38]
    c087:	c6 44 10 08 2d       	mov    BYTE PTR [rax+rdx*1+0x8],0x2d
    c08c:	49 8d 57 02          	lea    rdx,[r15+0x2]
    c090:	e9 a0 fe ff ff       	jmp    bf35 <nimInt64ToStr+0x205>
    c095:	e8 c6 48 ff ff       	call   960 <__stack_chk_fail@plt>
    c09a:	e8 a1 d7 ff ff       	call   9840 <raiseOverflow>
    c09f:	48 8b 14 24          	mov    rdx,QWORD PTR [rsp]
    c0a3:	e9 c8 fe ff ff       	jmp    bf70 <nimInt64ToStr+0x240>
    c0a8:	0f 1f 84 00 00 00 00 	nop    DWORD PTR [rax+rax*1+0x0]
    c0af:	00 

000000000000c0b0 <toNimStr>:
    c0b0:	41 56                	push   r14
    c0b2:	41 55                	push   r13
    c0b4:	41 54                	push   r12
    c0b6:	55                   	push   rbp
    c0b7:	53                   	push   rbx
    c0b8:	66 0f ef c0          	pxor   xmm0,xmm0
    c0bc:	48 83 ec 30          	sub    rsp,0x30
    c0c0:	64 48 8b 04 25 28 00 	mov    rax,QWORD PTR fs:0x28
    c0c7:	00 00 
    c0c9:	48 89 44 24 28       	mov    QWORD PTR [rsp+0x28],rax
    c0ce:	31 c0                	xor    eax,eax
    c0d0:	48 85 f6             	test   rsi,rsi
    c0d3:	4c 8d 64 24 10       	lea    r12,[rsp+0x10]
    c0d8:	0f 29 44 24 10       	movaps XMMWORD PTR [rsp+0x10],xmm0
    c0dd:	0f 8e ad 00 00 00    	jle    c190 <toNimStr+0xe0>
    c0e3:	48 89 f2             	mov    rdx,rsi
    c0e6:	48 89 f5             	mov    rbp,rsi
    c0e9:	48 83 c2 01          	add    rdx,0x1
    c0ed:	70 7c                	jo     c16b <toNimStr+0xbb>
    c0ef:	48 89 d3             	mov    rbx,rdx
    c0f2:	48 83 c3 08          	add    rbx,0x8
    c0f6:	70 73                	jo     c16b <toNimStr+0xbb>
    c0f8:	48 85 db             	test   rbx,rbx
    c0fb:	78 7b                	js     c178 <toNimStr+0xc8>
    c0fd:	49 89 fe             	mov    r14,rdi
    c100:	48 8d 3d 79 5f 20 00 	lea    rdi,[rip+0x205f79]        # 212080 <allocator__Het9ctRSeaVb4hPekZZNCJQ>
    c107:	48 89 de             	mov    rsi,rbx
    c10a:	e8 41 98 ff ff       	call   5950 <rawAlloc__mE4QEVyMvGRVliDWDngZCQ>
    c10f:	48 89 da             	mov    rdx,rbx
    c112:	49 89 c5             	mov    r13,rax
    c115:	31 f6                	xor    esi,esi
    c117:	48 89 c7             	mov    rdi,rax
    c11a:	e8 61 48 ff ff       	call   980 <memset@plt>
    c11f:	49 8d 7d 08          	lea    rdi,[r13+0x8]
    c123:	48 89 ea             	mov    rdx,rbp
    c126:	4c 89 f6             	mov    rsi,r14
    c129:	49 89 6d 00          	mov    QWORD PTR [r13+0x0],rbp
    c12d:	e8 8e 48 ff ff       	call   9c0 <memcpy@plt>
    c132:	4c 89 e7             	mov    rdi,r12
    c135:	e8 66 cc ff ff       	call   8da0 <chckNil>
    c13a:	48 89 6c 24 10       	mov    QWORD PTR [rsp+0x10],rbp
    c13f:	4c 89 6c 24 18       	mov    QWORD PTR [rsp+0x18],r13
    c144:	48 8b 4c 24 28       	mov    rcx,QWORD PTR [rsp+0x28]
    c149:	64 48 33 0c 25 28 00 	xor    rcx,QWORD PTR fs:0x28
    c150:	00 00 
    c152:	48 8b 44 24 10       	mov    rax,QWORD PTR [rsp+0x10]
    c157:	48 8b 54 24 18       	mov    rdx,QWORD PTR [rsp+0x18]
    c15c:	75 4a                	jne    c1a8 <toNimStr+0xf8>
    c15e:	48 83 c4 30          	add    rsp,0x30
    c162:	5b                   	pop    rbx
    c163:	5d                   	pop    rbp
    c164:	41 5c                	pop    r12
    c166:	41 5d                	pop    r13
    c168:	41 5e                	pop    r14
    c16a:	c3                   	ret    
    c16b:	e8 d0 d6 ff ff       	call   9840 <raiseOverflow>
    c170:	eb d2                	jmp    c144 <toNimStr+0x94>
    c172:	66 0f 1f 44 00 00    	nop    WORD PTR [rax+rax*1+0x0]
    c178:	48 ba ff ff ff ff ff 	movabs rdx,0x7fffffffffffffff
    c17f:	ff ff 7f 
    c182:	31 f6                	xor    esi,esi
    c184:	48 89 df             	mov    rdi,rbx
    c187:	e8 54 ce ff ff       	call   8fe0 <raiseRangeErrorI>
    c18c:	eb b6                	jmp    c144 <toNimStr+0x94>
    c18e:	66 90                	xchg   ax,ax
    c190:	4c 89 e7             	mov    rdi,r12
    c193:	0f 29 04 24          	movaps XMMWORD PTR [rsp],xmm0
    c197:	e8 04 cc ff ff       	call   8da0 <chckNil>
    c19c:	66 0f 6f 04 24       	movdqa xmm0,XMMWORD PTR [rsp]
    c1a1:	0f 29 44 24 10       	movaps XMMWORD PTR [rsp+0x10],xmm0
    c1a6:	eb 9c                	jmp    c144 <toNimStr+0x94>
    c1a8:	e8 b3 47 ff ff       	call   960 <__stack_chk_fail@plt>
    c1ad:	0f 1f 00             	nop    DWORD PTR [rax]

000000000000c1b0 <cstrToNimstr>:
    c1b0:	41 56                	push   r14
    c1b2:	41 55                	push   r13
    c1b4:	41 54                	push   r12
    c1b6:	55                   	push   rbp
    c1b7:	53                   	push   rbx
    c1b8:	66 0f ef c0          	pxor   xmm0,xmm0
    c1bc:	48 83 ec 40          	sub    rsp,0x40
    c1c0:	64 48 8b 04 25 28 00 	mov    rax,QWORD PTR fs:0x28
    c1c7:	00 00 
    c1c9:	48 89 44 24 38       	mov    QWORD PTR [rsp+0x38],rax
    c1ce:	31 c0                	xor    eax,eax
    c1d0:	48 85 ff             	test   rdi,rdi
    c1d3:	0f 29 44 24 10       	movaps XMMWORD PTR [rsp+0x10],xmm0
    c1d8:	0f 84 92 00 00 00    	je     c270 <cstrToNimstr+0xc0>
    c1de:	0f 29 04 24          	movaps XMMWORD PTR [rsp],xmm0
    c1e2:	48 89 fd             	mov    rbp,rdi
    c1e5:	4c 8d 74 24 20       	lea    r14,[rsp+0x20]
    c1ea:	e8 61 47 ff ff       	call   950 <strlen@plt>
    c1ef:	48 85 c0             	test   rax,rax
    c1f2:	48 89 c3             	mov    rbx,rax
    c1f5:	66 0f 6f 04 24       	movdqa xmm0,XMMWORD PTR [rsp]
    c1fa:	0f 29 44 24 20       	movaps XMMWORD PTR [rsp+0x20],xmm0
    c1ff:	0f 84 cb 00 00 00    	je     c2d0 <cstrToNimstr+0x120>
    c205:	49 89 dc             	mov    r12,rbx
    c208:	48 8d 40 01          	lea    rax,[rax+0x1]
    c20c:	49 83 c4 09          	add    r12,0x9
    c210:	0f 88 cf 00 00 00    	js     c2e5 <cstrToNimstr+0x135>
    c216:	49 39 c4             	cmp    r12,rax
    c219:	0f 82 c6 00 00 00    	jb     c2e5 <cstrToNimstr+0x135>
    c21f:	4d 85 e4             	test   r12,r12
    c222:	0f 88 88 00 00 00    	js     c2b0 <cstrToNimstr+0x100>
    c228:	48 8d 3d 51 5e 20 00 	lea    rdi,[rip+0x205e51]        # 212080 <allocator__Het9ctRSeaVb4hPekZZNCJQ>
    c22f:	4c 89 e6             	mov    rsi,r12
    c232:	e8 19 97 ff ff       	call   5950 <rawAlloc__mE4QEVyMvGRVliDWDngZCQ>
    c237:	4c 89 e2             	mov    rdx,r12
    c23a:	49 89 c5             	mov    r13,rax
    c23d:	31 f6                	xor    esi,esi
    c23f:	48 89 c7             	mov    rdi,rax
    c242:	e8 39 47 ff ff       	call   980 <memset@plt>
    c247:	49 8d 7d 08          	lea    rdi,[r13+0x8]
    c24b:	49 89 5d 00          	mov    QWORD PTR [r13+0x0],rbx
    c24f:	48 89 da             	mov    rdx,rbx
    c252:	48 89 ee             	mov    rsi,rbp
    c255:	e8 66 47 ff ff       	call   9c0 <memcpy@plt>
    c25a:	4c 89 f7             	mov    rdi,r14
    c25d:	e8 3e cb ff ff       	call   8da0 <chckNil>
    c262:	48 89 5c 24 10       	mov    QWORD PTR [rsp+0x10],rbx
    c267:	4c 89 6c 24 18       	mov    QWORD PTR [rsp+0x18],r13
    c26c:	eb 11                	jmp    c27f <cstrToNimstr+0xcf>
    c26e:	66 90                	xchg   ax,ax
    c270:	48 8d 7c 24 20       	lea    rdi,[rsp+0x20]
    c275:	0f 29 44 24 20       	movaps XMMWORD PTR [rsp+0x20],xmm0
    c27a:	e8 21 cb ff ff       	call   8da0 <chckNil>
    c27f:	48 8b 4c 24 38       	mov    rcx,QWORD PTR [rsp+0x38]
    c284:	64 48 33 0c 25 28 00 	xor    rcx,QWORD PTR fs:0x28
    c28b:	00 00 
    c28d:	48 8b 44 24 10       	mov    rax,QWORD PTR [rsp+0x10]
    c292:	48 8b 54 24 18       	mov    rdx,QWORD PTR [rsp+0x18]
    c297:	75 47                	jne    c2e0 <cstrToNimstr+0x130>
    c299:	48 83 c4 40          	add    rsp,0x40
    c29d:	5b                   	pop    rbx
    c29e:	5d                   	pop    rbp
    c29f:	41 5c                	pop    r12
    c2a1:	41 5d                	pop    r13
    c2a3:	41 5e                	pop    r14
    c2a5:	c3                   	ret    
    c2a6:	66 2e 0f 1f 84 00 00 	nop    WORD PTR cs:[rax+rax*1+0x0]
    c2ad:	00 00 00 
    c2b0:	48 ba ff ff ff ff ff 	movabs rdx,0x7fffffffffffffff
    c2b7:	ff ff 7f 
    c2ba:	31 f6                	xor    esi,esi
    c2bc:	4c 89 e7             	mov    rdi,r12
    c2bf:	e8 1c cd ff ff       	call   8fe0 <raiseRangeErrorI>
    c2c4:	48 8b 5c 24 20       	mov    rbx,QWORD PTR [rsp+0x20]
    c2c9:	4c 8b 6c 24 28       	mov    r13,QWORD PTR [rsp+0x28]
    c2ce:	eb 92                	jmp    c262 <cstrToNimstr+0xb2>
    c2d0:	4c 89 f7             	mov    rdi,r14
    c2d3:	45 31 ed             	xor    r13d,r13d
    c2d6:	e8 c5 ca ff ff       	call   8da0 <chckNil>
    c2db:	e9 82 ff ff ff       	jmp    c262 <cstrToNimstr+0xb2>
    c2e0:	e8 7b 46 ff ff       	call   960 <__stack_chk_fail@plt>
    c2e5:	e8 56 d5 ff ff       	call   9840 <raiseOverflow>
    c2ea:	48 8b 5c 24 20       	mov    rbx,QWORD PTR [rsp+0x20]
    c2ef:	4c 8b 6c 24 28       	mov    r13,QWORD PTR [rsp+0x28]
    c2f4:	e9 69 ff ff ff       	jmp    c262 <cstrToNimstr+0xb2>
    c2f9:	0f 1f 80 00 00 00 00 	nop    DWORD PTR [rax+0x0]

000000000000c300 <writeToStdErr__a2kDfqdSc1eYf0ZCWOGinQ>:
    c300:	55                   	push   rbp
    c301:	53                   	push   rbx
    c302:	31 d2                	xor    edx,edx
    c304:	48 89 fb             	mov    rbx,rdi
    c307:	48 83 ec 08          	sub    rsp,0x8
    c30b:	48 85 ff             	test   rdi,rdi
    c30e:	48 8b 2d 2b 5d 20 00 	mov    rbp,QWORD PTR [rip+0x205d2b]        # 212040 <stderr@@GLIBC_2.2.5>
    c315:	74 08                	je     c31f <writeToStdErr__a2kDfqdSc1eYf0ZCWOGinQ+0x1f>
    c317:	e8 34 46 ff ff       	call   950 <strlen@plt>
    c31c:	48 89 c2             	mov    rdx,rax
    c31f:	48 89 e9             	mov    rcx,rbp
    c322:	be 01 00 00 00       	mov    esi,0x1
    c327:	48 89 df             	mov    rdi,rbx
    c32a:	e8 d1 46 ff ff       	call   a00 <fwrite@plt>
    c32f:	48 83 3d d9 90 20 00 	cmp    QWORD PTR [rip+0x2090d9],0x0        # 215410 <nimInErrorMode__759bT87luu8XGcbkw13FUjA>
    c336:	00 
    c337:	75 17                	jne    c350 <writeToStdErr__a2kDfqdSc1eYf0ZCWOGinQ+0x50>
    c339:	48 83 c4 08          	add    rsp,0x8
    c33d:	48 89 ef             	mov    rdi,rbp
    c340:	5b                   	pop    rbx
    c341:	5d                   	pop    rbp
    c342:	e9 89 46 ff ff       	jmp    9d0 <fflush@plt>
    c347:	66 0f 1f 84 00 00 00 	nop    WORD PTR [rax+rax*1+0x0]
    c34e:	00 00 
    c350:	48 83 c4 08          	add    rsp,0x8
    c354:	5b                   	pop    rbx
    c355:	5d                   	pop    rbp
    c356:	c3                   	ret    
    c357:	66 0f 1f 84 00 00 00 	nop    WORD PTR [rax+rax*1+0x0]
    c35e:	00 00 

000000000000c360 <showErrorMessage__zsORN9crdKxsL9cHrQcdHSMw>:
    c360:	55                   	push   rbp
    c361:	53                   	push   rbx
    c362:	48 89 fb             	mov    rbx,rdi
    c365:	48 83 ec 38          	sub    rsp,0x38
    c369:	64 48 8b 04 25 28 00 	mov    rax,QWORD PTR fs:0x28
    c370:	00 00 
    c372:	48 89 44 24 28       	mov    QWORD PTR [rsp+0x28],rax
    c377:	31 c0                	xor    eax,eax
    c379:	48 83 3d c7 90 20 00 	cmp    QWORD PTR [rip+0x2090c7],0x0        # 215448 <errorMessageWriter__ZXnv0JyrWe3HTd07wpSr7A>
    c380:	00 
    c381:	0f 84 81 00 00 00    	je     c408 <showErrorMessage__zsORN9crdKxsL9cHrQcdHSMw+0xa8>
    c387:	66 0f ef c0          	pxor   xmm0,xmm0
    c38b:	48 85 ff             	test   rdi,rdi
    c38e:	0f 29 04 24          	movaps XMMWORD PTR [rsp],xmm0
    c392:	0f 84 b0 00 00 00    	je     c448 <showErrorMessage__zsORN9crdKxsL9cHrQcdHSMw+0xe8>
    c398:	e8 b3 45 ff ff       	call   950 <strlen@plt>
    c39d:	48 89 df             	mov    rdi,rbx
    c3a0:	48 89 c6             	mov    rsi,rax
    c3a3:	e8 08 fd ff ff       	call   c0b0 <toNimStr>
    c3a8:	48 89 d3             	mov    rbx,rdx
    c3ab:	48 89 c7             	mov    rdi,rax
    c3ae:	48 89 04 24          	mov    QWORD PTR [rsp],rax
    c3b2:	48 89 54 24 08       	mov    QWORD PTR [rsp+0x8],rdx
    c3b7:	48 89 d6             	mov    rsi,rdx
    c3ba:	ff 15 88 90 20 00    	call   QWORD PTR [rip+0x209088]        # 215448 <errorMessageWriter__ZXnv0JyrWe3HTd07wpSr7A>
    c3c0:	48 85 db             	test   rbx,rbx
    c3c3:	74 0f                	je     c3d4 <showErrorMessage__zsORN9crdKxsL9cHrQcdHSMw+0x74>
    c3c5:	48 b8 00 00 00 00 00 	movabs rax,0x4000000000000000
    c3cc:	00 00 40 
    c3cf:	48 85 03             	test   QWORD PTR [rbx],rax
    c3d2:	74 1c                	je     c3f0 <showErrorMessage__zsORN9crdKxsL9cHrQcdHSMw+0x90>
    c3d4:	48 8b 44 24 28       	mov    rax,QWORD PTR [rsp+0x28]
    c3d9:	64 48 33 04 25 28 00 	xor    rax,QWORD PTR fs:0x28
    c3e0:	00 00 
    c3e2:	0f 85 7e 00 00 00    	jne    c466 <showErrorMessage__zsORN9crdKxsL9cHrQcdHSMw+0x106>
    c3e8:	48 83 c4 38          	add    rsp,0x38
    c3ec:	5b                   	pop    rbx
    c3ed:	5d                   	pop    rbp
    c3ee:	c3                   	ret    
    c3ef:	90                   	nop
    c3f0:	48 8d 3d 89 5c 20 00 	lea    rdi,[rip+0x205c89]        # 212080 <allocator__Het9ctRSeaVb4hPekZZNCJQ>
    c3f7:	48 89 de             	mov    rsi,rbx
    c3fa:	e8 81 5d ff ff       	call   2180 <rawDealloc__K7uQ6aTKvW6OnOV8EMoNNQ>
    c3ff:	eb d3                	jmp    c3d4 <showErrorMessage__zsORN9crdKxsL9cHrQcdHSMw+0x74>
    c401:	0f 1f 80 00 00 00 00 	nop    DWORD PTR [rax+0x0]
    c408:	31 d2                	xor    edx,edx
    c40a:	48 85 ff             	test   rdi,rdi
    c40d:	48 8b 2d 2c 5c 20 00 	mov    rbp,QWORD PTR [rip+0x205c2c]        # 212040 <stderr@@GLIBC_2.2.5>
    c414:	74 08                	je     c41e <showErrorMessage__zsORN9crdKxsL9cHrQcdHSMw+0xbe>
    c416:	e8 35 45 ff ff       	call   950 <strlen@plt>
    c41b:	48 89 c2             	mov    rdx,rax
    c41e:	48 89 e9             	mov    rcx,rbp
    c421:	be 01 00 00 00       	mov    esi,0x1
    c426:	48 89 df             	mov    rdi,rbx
    c429:	e8 d2 45 ff ff       	call   a00 <fwrite@plt>
    c42e:	48 83 3d da 8f 20 00 	cmp    QWORD PTR [rip+0x208fda],0x0        # 215410 <nimInErrorMode__759bT87luu8XGcbkw13FUjA>
    c435:	00 
    c436:	75 9c                	jne    c3d4 <showErrorMessage__zsORN9crdKxsL9cHrQcdHSMw+0x74>
    c438:	48 89 ef             	mov    rdi,rbp
    c43b:	e8 90 45 ff ff       	call   9d0 <fflush@plt>
    c440:	eb 92                	jmp    c3d4 <showErrorMessage__zsORN9crdKxsL9cHrQcdHSMw+0x74>
    c442:	66 0f 1f 44 00 00    	nop    WORD PTR [rax+rax*1+0x0]
    c448:	48 8d 7c 24 10       	lea    rdi,[rsp+0x10]
    c44d:	0f 29 44 24 10       	movaps XMMWORD PTR [rsp+0x10],xmm0
    c452:	e8 49 c9 ff ff       	call   8da0 <chckNil>
    c457:	31 ff                	xor    edi,edi
    c459:	31 f6                	xor    esi,esi
    c45b:	ff 15 e7 8f 20 00    	call   QWORD PTR [rip+0x208fe7]        # 215448 <errorMessageWriter__ZXnv0JyrWe3HTd07wpSr7A>
    c461:	e9 6e ff ff ff       	jmp    c3d4 <showErrorMessage__zsORN9crdKxsL9cHrQcdHSMw+0x74>
    c466:	e8 f5 44 ff ff       	call   960 <__stack_chk_fail@plt>
    c46b:	0f 1f 44 00 00       	nop    DWORD PTR [rax+rax*1+0x0]

000000000000c470 <signalHandler>:
    c470:	48 83 ec 08          	sub    rsp,0x8
    c474:	83 ff 02             	cmp    edi,0x2
    c477:	48 8d 05 9a 2e 00 00 	lea    rax,[rip+0x2e9a]        # f318 <_IO_stdin_used+0xd8>
    c47e:	74 48                	je     c4c8 <signalHandler+0x58>
    c480:	83 ff 0b             	cmp    edi,0xb
    c483:	48 8d 05 ae 2e 00 00 	lea    rax,[rip+0x2eae]        # f338 <_IO_stdin_used+0xf8>
    c48a:	74 3c                	je     c4c8 <signalHandler+0x58>
    c48c:	83 ff 06             	cmp    edi,0x6
    c48f:	48 8d 05 e2 2e 00 00 	lea    rax,[rip+0x2ee2]        # f378 <_IO_stdin_used+0x138>
    c496:	74 30                	je     c4c8 <signalHandler+0x58>
    c498:	83 ff 08             	cmp    edi,0x8
    c49b:	48 8d 05 0a 2e 00 00 	lea    rax,[rip+0x2e0a]        # f2ac <_IO_stdin_used+0x6c>
    c4a2:	74 24                	je     c4c8 <signalHandler+0x58>
    c4a4:	83 ff 04             	cmp    edi,0x4
    c4a7:	48 8d 05 19 2e 00 00 	lea    rax,[rip+0x2e19]        # f2c7 <_IO_stdin_used+0x87>
    c4ae:	74 18                	je     c4c8 <signalHandler+0x58>
    c4b0:	83 ff 0d             	cmp    edi,0xd
    c4b3:	48 8d 05 39 2e 00 00 	lea    rax,[rip+0x2e39]        # f2f3 <_IO_stdin_used+0xb3>
    c4ba:	48 8d 3d 22 2e 00 00 	lea    rdi,[rip+0x2e22]        # f2e3 <_IO_stdin_used+0xa3>
    c4c1:	48 0f 45 c7          	cmovne rax,rdi
    c4c5:	0f 1f 00             	nop    DWORD PTR [rax]
    c4c8:	48 89 c7             	mov    rdi,rax
    c4cb:	e8 90 fe ff ff       	call   c360 <showErrorMessage__zsORN9crdKxsL9cHrQcdHSMw>
    c4d0:	bf 01 00 00 00       	mov    edi,0x1
    c4d5:	e8 16 45 ff ff       	call   9f0 <exit@plt>
    c4da:	66 0f 1f 44 00 00    	nop    WORD PTR [rax+rax*1+0x0]

000000000000c4e0 <registerSignalHandler__amVlU9ajqZ06ujoesRBHcDg>:
    c4e0:	48 8d 35 89 ff ff ff 	lea    rsi,[rip+0xffffffffffffff89]        # c470 <signalHandler>
    c4e7:	48 83 ec 08          	sub    rsp,0x8
    c4eb:	bf 02 00 00 00       	mov    edi,0x2
    c4f0:	e8 ab 44 ff ff       	call   9a0 <signal@plt>
    c4f5:	48 83 3d 13 8f 20 00 	cmp    QWORD PTR [rip+0x208f13],0x0        # 215410 <nimInErrorMode__759bT87luu8XGcbkw13FUjA>
    c4fc:	00 
    c4fd:	0f 85 85 00 00 00    	jne    c588 <registerSignalHandler__amVlU9ajqZ06ujoesRBHcDg+0xa8>
    c503:	48 8d 35 66 ff ff ff 	lea    rsi,[rip+0xffffffffffffff66]        # c470 <signalHandler>
    c50a:	bf 0b 00 00 00       	mov    edi,0xb
    c50f:	e8 8c 44 ff ff       	call   9a0 <signal@plt>
    c514:	48 83 3d f4 8e 20 00 	cmp    QWORD PTR [rip+0x208ef4],0x0        # 215410 <nimInErrorMode__759bT87luu8XGcbkw13FUjA>
    c51b:	00 
    c51c:	75 6a                	jne    c588 <registerSignalHandler__amVlU9ajqZ06ujoesRBHcDg+0xa8>
    c51e:	48 8d 35 4b ff ff ff 	lea    rsi,[rip+0xffffffffffffff4b]        # c470 <signalHandler>
    c525:	bf 06 00 00 00       	mov    edi,0x6
    c52a:	e8 71 44 ff ff       	call   9a0 <signal@plt>
    c52f:	48 83 3d d9 8e 20 00 	cmp    QWORD PTR [rip+0x208ed9],0x0        # 215410 <nimInErrorMode__759bT87luu8XGcbkw13FUjA>
    c536:	00 
    c537:	75 4f                	jne    c588 <registerSignalHandler__amVlU9ajqZ06ujoesRBHcDg+0xa8>
    c539:	48 8d 35 30 ff ff ff 	lea    rsi,[rip+0xffffffffffffff30]        # c470 <signalHandler>
    c540:	bf 08 00 00 00       	mov    edi,0x8
    c545:	e8 56 44 ff ff       	call   9a0 <signal@plt>
    c54a:	48 83 3d be 8e 20 00 	cmp    QWORD PTR [rip+0x208ebe],0x0        # 215410 <nimInErrorMode__759bT87luu8XGcbkw13FUjA>
    c551:	00 
    c552:	75 34                	jne    c588 <registerSignalHandler__amVlU9ajqZ06ujoesRBHcDg+0xa8>
    c554:	48 8d 35 15 ff ff ff 	lea    rsi,[rip+0xffffffffffffff15]        # c470 <signalHandler>
    c55b:	bf 04 00 00 00       	mov    edi,0x4
    c560:	e8 3b 44 ff ff       	call   9a0 <signal@plt>
    c565:	48 83 3d a3 8e 20 00 	cmp    QWORD PTR [rip+0x208ea3],0x0        # 215410 <nimInErrorMode__759bT87luu8XGcbkw13FUjA>
    c56c:	00 
    c56d:	75 19                	jne    c588 <registerSignalHandler__amVlU9ajqZ06ujoesRBHcDg+0xa8>
    c56f:	48 8d 35 fa fe ff ff 	lea    rsi,[rip+0xfffffffffffffefa]        # c470 <signalHandler>
    c576:	bf 0d 00 00 00       	mov    edi,0xd
    c57b:	48 83 c4 08          	add    rsp,0x8
    c57f:	e9 1c 44 ff ff       	jmp    9a0 <signal@plt>
    c584:	0f 1f 40 00          	nop    DWORD PTR [rax+0x0]
    c588:	48 83 c4 08          	add    rsp,0x8
    c58c:	c3                   	ret    
    c58d:	0f 1f 00             	nop    DWORD PTR [rax]

000000000000c590 <addCstringN__DuMbk0Tea09bkpFWJtZlU6A>:
    c590:	41 55                	push   r13
    c592:	41 54                	push   r12
    c594:	49 89 f5             	mov    r13,rsi
    c597:	55                   	push   rbp
    c598:	53                   	push   rbx
    c599:	48 89 fd             	mov    rbp,rdi
    c59c:	48 83 ec 18          	sub    rsp,0x18
    c5a0:	48 8b 1f             	mov    rbx,QWORD PTR [rdi]
    c5a3:	49 89 dc             	mov    r12,rbx
    c5a6:	49 01 d4             	add    r12,rdx
    c5a9:	75 45                	jne    c5f0 <addCstringN__DuMbk0Tea09bkpFWJtZlU6A+0x60>
    c5ab:	48 8b 77 08          	mov    rsi,QWORD PTR [rdi+0x8]
    c5af:	48 85 f6             	test   rsi,rsi
    c5b2:	74 0f                	je     c5c3 <addCstringN__DuMbk0Tea09bkpFWJtZlU6A+0x33>
    c5b4:	48 b8 00 00 00 00 00 	movabs rax,0x4000000000000000
    c5bb:	00 00 40 
    c5be:	48 85 06             	test   QWORD PTR [rsi],rax
    c5c1:	74 7d                	je     c640 <addCstringN__DuMbk0Tea09bkpFWJtZlU6A+0xb0>
    c5c3:	48 c7 45 08 00 00 00 	mov    QWORD PTR [rbp+0x8],0x0
    c5ca:	00 
    c5cb:	31 c0                	xor    eax,eax
    c5cd:	4c 89 65 00          	mov    QWORD PTR [rbp+0x0],r12
    c5d1:	48 83 c4 18          	add    rsp,0x18
    c5d5:	48 8d 7c 18 08       	lea    rdi,[rax+rbx*1+0x8]
    c5da:	4c 89 ee             	mov    rsi,r13
    c5dd:	5b                   	pop    rbx
    c5de:	5d                   	pop    rbp
    c5df:	41 5c                	pop    r12
    c5e1:	41 5d                	pop    r13
    c5e3:	e9 d8 43 ff ff       	jmp    9c0 <memcpy@plt>
    c5e8:	0f 1f 84 00 00 00 00 	nop    DWORD PTR [rax+rax*1+0x0]
    c5ef:	00 
    c5f0:	4c 39 e3             	cmp    rbx,r12
    c5f3:	7d 2b                	jge    c620 <addCstringN__DuMbk0Tea09bkpFWJtZlU6A+0x90>
    c5f5:	4c 89 e6             	mov    rsi,r12
    c5f8:	48 89 54 24 08       	mov    QWORD PTR [rsp+0x8],rdx
    c5fd:	48 29 de             	sub    rsi,rbx
    c600:	70 59                	jo     c65b <addCstringN__DuMbk0Tea09bkpFWJtZlU6A+0xcb>
    c602:	48 89 ef             	mov    rdi,rbp
    c605:	e8 96 d9 ff ff       	call   9fa0 <prepareAdd>
    c60a:	48 8b 45 08          	mov    rax,QWORD PTR [rbp+0x8]
    c60e:	48 8b 54 24 08       	mov    rdx,QWORD PTR [rsp+0x8]
    c613:	42 c6 44 20 08 00    	mov    BYTE PTR [rax+r12*1+0x8],0x0
    c619:	48 8b 45 08          	mov    rax,QWORD PTR [rbp+0x8]
    c61d:	eb ae                	jmp    c5cd <addCstringN__DuMbk0Tea09bkpFWJtZlU6A+0x3d>
    c61f:	90                   	nop
    c620:	48 8b 47 08          	mov    rax,QWORD PTR [rdi+0x8]
    c624:	48 85 c0             	test   rax,rax
    c627:	74 cc                	je     c5f5 <addCstringN__DuMbk0Tea09bkpFWJtZlU6A+0x65>
    c629:	48 b9 00 00 00 00 00 	movabs rcx,0x4000000000000000
    c630:	00 00 40 
    c633:	48 85 08             	test   QWORD PTR [rax],rcx
    c636:	74 db                	je     c613 <addCstringN__DuMbk0Tea09bkpFWJtZlU6A+0x83>
    c638:	eb bb                	jmp    c5f5 <addCstringN__DuMbk0Tea09bkpFWJtZlU6A+0x65>
    c63a:	66 0f 1f 44 00 00    	nop    WORD PTR [rax+rax*1+0x0]
    c640:	48 8d 3d 39 5a 20 00 	lea    rdi,[rip+0x205a39]        # 212080 <allocator__Het9ctRSeaVb4hPekZZNCJQ>
    c647:	48 89 54 24 08       	mov    QWORD PTR [rsp+0x8],rdx
    c64c:	e8 2f 5b ff ff       	call   2180 <rawDealloc__K7uQ6aTKvW6OnOV8EMoNNQ>
    c651:	48 8b 54 24 08       	mov    rdx,QWORD PTR [rsp+0x8]
    c656:	e9 68 ff ff ff       	jmp    c5c3 <addCstringN__DuMbk0Tea09bkpFWJtZlU6A+0x33>
    c65b:	e8 e0 d1 ff ff       	call   9840 <raiseOverflow>
    c660:	48 8b 45 08          	mov    rax,QWORD PTR [rbp+0x8]
    c664:	48 8b 54 24 08       	mov    rdx,QWORD PTR [rsp+0x8]
    c669:	e9 63 ff ff ff       	jmp    c5d1 <addCstringN__DuMbk0Tea09bkpFWJtZlU6A+0x41>
    c66e:	66 90                	xchg   ax,ax

000000000000c670 <addFloat__R7rBahgTSmBayFrvvbK9bKQ>:
    c670:	41 55                	push   r13
    c672:	41 54                	push   r12
    c674:	55                   	push   rbp
    c675:	53                   	push   rbx
    c676:	48 89 fd             	mov    rbp,rdi
    c679:	66 0f ef c9          	pxor   xmm1,xmm1
    c67d:	48 83 ec 68          	sub    rsp,0x68
    c681:	4c 8d 6c 24 10       	lea    r13,[rsp+0x10]
    c686:	c6 44 24 50 00       	mov    BYTE PTR [rsp+0x50],0x0
    c68b:	64 48 8b 04 25 28 00 	mov    rax,QWORD PTR fs:0x28
    c692:	00 00 
    c694:	48 89 44 24 58       	mov    QWORD PTR [rsp+0x58],rax
    c699:	31 c0                	xor    eax,eax
    c69b:	4c 89 ef             	mov    rdi,r13
    c69e:	0f 29 4c 24 10       	movaps XMMWORD PTR [rsp+0x10],xmm1
    c6a3:	0f 29 4c 24 20       	movaps XMMWORD PTR [rsp+0x20],xmm1
    c6a8:	0f 29 4c 24 30       	movaps XMMWORD PTR [rsp+0x30],xmm1
    c6ad:	0f 29 4c 24 40       	movaps XMMWORD PTR [rsp+0x40],xmm1
    c6b2:	e8 09 45 ff ff       	call   bc0 <writeFloatToBuffer__UrA9aquvUwHFUFx78eUQk3A>
    c6b7:	48 83 3d 51 8d 20 00 	cmp    QWORD PTR [rip+0x208d51],0x0        # 215410 <nimInErrorMode__759bT87luu8XGcbkw13FUjA>
    c6be:	00 
    c6bf:	0f 85 a7 00 00 00    	jne    c76c <addFloat__R7rBahgTSmBayFrvvbK9bKQ+0xfc>
    c6c5:	48 8b 5d 00          	mov    rbx,QWORD PTR [rbp+0x0]
    c6c9:	49 89 c4             	mov    r12,rax
    c6cc:	49 01 dc             	add    r12,rbx
    c6cf:	74 4f                	je     c720 <addFloat__R7rBahgTSmBayFrvvbK9bKQ+0xb0>
    c6d1:	4c 39 e3             	cmp    rbx,r12
    c6d4:	7c 1a                	jl     c6f0 <addFloat__R7rBahgTSmBayFrvvbK9bKQ+0x80>
    c6d6:	48 8b 55 08          	mov    rdx,QWORD PTR [rbp+0x8]
    c6da:	48 85 d2             	test   rdx,rdx
    c6dd:	74 11                	je     c6f0 <addFloat__R7rBahgTSmBayFrvvbK9bKQ+0x80>
    c6df:	48 b9 00 00 00 00 00 	movabs rcx,0x4000000000000000
    c6e6:	00 00 40 
    c6e9:	48 85 0a             	test   QWORD PTR [rdx],rcx
    c6ec:	74 24                	je     c712 <addFloat__R7rBahgTSmBayFrvvbK9bKQ+0xa2>
    c6ee:	66 90                	xchg   ax,ax
    c6f0:	4c 89 e6             	mov    rsi,r12
    c6f3:	48 89 44 24 08       	mov    QWORD PTR [rsp+0x8],rax
    c6f8:	48 29 de             	sub    rsi,rbx
    c6fb:	0f 80 8b 00 00 00    	jo     c78c <addFloat__R7rBahgTSmBayFrvvbK9bKQ+0x11c>
    c701:	48 89 ef             	mov    rdi,rbp
    c704:	e8 97 d8 ff ff       	call   9fa0 <prepareAdd>
    c709:	48 8b 55 08          	mov    rdx,QWORD PTR [rbp+0x8]
    c70d:	48 8b 44 24 08       	mov    rax,QWORD PTR [rsp+0x8]
    c712:	42 c6 44 22 08 00    	mov    BYTE PTR [rdx+r12*1+0x8],0x0
    c718:	48 8b 55 08          	mov    rdx,QWORD PTR [rbp+0x8]
    c71c:	eb 3a                	jmp    c758 <addFloat__R7rBahgTSmBayFrvvbK9bKQ+0xe8>
    c71e:	66 90                	xchg   ax,ax
    c720:	48 8b 75 08          	mov    rsi,QWORD PTR [rbp+0x8]
    c724:	48 85 f6             	test   rsi,rsi
    c727:	74 25                	je     c74e <addFloat__R7rBahgTSmBayFrvvbK9bKQ+0xde>
    c729:	48 ba 00 00 00 00 00 	movabs rdx,0x4000000000000000
    c730:	00 00 40 
    c733:	48 85 16             	test   QWORD PTR [rsi],rdx
    c736:	75 16                	jne    c74e <addFloat__R7rBahgTSmBayFrvvbK9bKQ+0xde>
    c738:	48 8d 3d 41 59 20 00 	lea    rdi,[rip+0x205941]        # 212080 <allocator__Het9ctRSeaVb4hPekZZNCJQ>
    c73f:	48 89 44 24 08       	mov    QWORD PTR [rsp+0x8],rax
    c744:	e8 37 5a ff ff       	call   2180 <rawDealloc__K7uQ6aTKvW6OnOV8EMoNNQ>
    c749:	48 8b 44 24 08       	mov    rax,QWORD PTR [rsp+0x8]
    c74e:	48 c7 45 08 00 00 00 	mov    QWORD PTR [rbp+0x8],0x0
    c755:	00 
    c756:	31 d2                	xor    edx,edx
    c758:	4c 89 65 00          	mov    QWORD PTR [rbp+0x0],r12
    c75c:	48 8d 7c 1a 08       	lea    rdi,[rdx+rbx*1+0x8]
    c761:	4c 89 ee             	mov    rsi,r13
    c764:	48 89 c2             	mov    rdx,rax
    c767:	e8 54 42 ff ff       	call   9c0 <memcpy@plt>
    c76c:	48 8b 44 24 58       	mov    rax,QWORD PTR [rsp+0x58]
    c771:	64 48 33 04 25 28 00 	xor    rax,QWORD PTR fs:0x28
    c778:	00 00 
    c77a:	75 0b                	jne    c787 <addFloat__R7rBahgTSmBayFrvvbK9bKQ+0x117>
    c77c:	48 83 c4 68          	add    rsp,0x68
    c780:	5b                   	pop    rbx
    c781:	5d                   	pop    rbp
    c782:	41 5c                	pop    r12
    c784:	41 5d                	pop    r13
    c786:	c3                   	ret    
    c787:	e8 d4 41 ff ff       	call   960 <__stack_chk_fail@plt>
    c78c:	e8 af d0 ff ff       	call   9840 <raiseOverflow>
    c791:	48 8b 55 08          	mov    rdx,QWORD PTR [rbp+0x8]
    c795:	48 8b 44 24 08       	mov    rax,QWORD PTR [rsp+0x8]
    c79a:	eb c0                	jmp    c75c <addFloat__R7rBahgTSmBayFrvvbK9bKQ+0xec>
    c79c:	0f 1f 40 00          	nop    DWORD PTR [rax+0x0]

000000000000c7a0 <nimFloatToStr>:
    c7a0:	41 54                	push   r12
    c7a2:	55                   	push   rbp
    c7a3:	48 8d 3d d6 58 20 00 	lea    rdi,[rip+0x2058d6]        # 212080 <allocator__Het9ctRSeaVb4hPekZZNCJQ>
    c7aa:	53                   	push   rbx
    c7ab:	66 0f ef c9          	pxor   xmm1,xmm1
    c7af:	be 11 00 00 00       	mov    esi,0x11
    c7b4:	48 81 ec 90 00 00 00 	sub    rsp,0x90
    c7bb:	48 8d 6c 24 30       	lea    rbp,[rsp+0x30]
    c7c0:	f2 0f 11 44 24 18    	movsd  QWORD PTR [rsp+0x18],xmm0
    c7c6:	48 c7 44 24 20 00 00 	mov    QWORD PTR [rsp+0x20],0x0
    c7cd:	00 00 
    c7cf:	0f 29 4c 24 30       	movaps XMMWORD PTR [rsp+0x30],xmm1
    c7d4:	64 48 8b 04 25 28 00 	mov    rax,QWORD PTR fs:0x28
    c7db:	00 00 
    c7dd:	48 89 84 24 88 00 00 	mov    QWORD PTR [rsp+0x88],rax
    c7e4:	00 
    c7e5:	31 c0                	xor    eax,eax
    c7e7:	0f 29 0c 24          	movaps XMMWORD PTR [rsp],xmm1
    c7eb:	4c 8d 64 24 40       	lea    r12,[rsp+0x40]
    c7f0:	48 c7 44 24 28 00 00 	mov    QWORD PTR [rsp+0x28],0x0
    c7f7:	00 00 
    c7f9:	e8 52 91 ff ff       	call   5950 <rawAlloc__mE4QEVyMvGRVliDWDngZCQ>
    c7fe:	48 89 ef             	mov    rdi,rbp
    c801:	48 c7 40 08 00 00 00 	mov    QWORD PTR [rax+0x8],0x0
    c808:	00 
    c809:	c6 40 10 00          	mov    BYTE PTR [rax+0x10],0x0
    c80d:	48 c7 00 08 00 00 00 	mov    QWORD PTR [rax],0x8
    c814:	48 89 c3             	mov    rbx,rax
    c817:	e8 84 c5 ff ff       	call   8da0 <chckNil>
    c81c:	66 0f 6f 0c 24       	movdqa xmm1,XMMWORD PTR [rsp]
    c821:	4c 89 e7             	mov    rdi,r12
    c824:	48 c7 44 24 20 00 00 	mov    QWORD PTR [rsp+0x20],0x0
    c82b:	00 00 
    c82d:	48 89 5c 24 28       	mov    QWORD PTR [rsp+0x28],rbx
    c832:	f2 0f 10 44 24 18    	movsd  xmm0,QWORD PTR [rsp+0x18]
    c838:	c6 84 24 80 00 00 00 	mov    BYTE PTR [rsp+0x80],0x0
    c83f:	00 
    c840:	0f 29 4c 24 40       	movaps XMMWORD PTR [rsp+0x40],xmm1
    c845:	0f 29 4c 24 50       	movaps XMMWORD PTR [rsp+0x50],xmm1
    c84a:	0f 29 4c 24 60       	movaps XMMWORD PTR [rsp+0x60],xmm1
    c84f:	0f 29 4c 24 70       	movaps XMMWORD PTR [rsp+0x70],xmm1
    c854:	e8 67 43 ff ff       	call   bc0 <writeFloatToBuffer__UrA9aquvUwHFUFx78eUQk3A>
    c859:	48 83 3d af 8b 20 00 	cmp    QWORD PTR [rip+0x208baf],0x0        # 215410 <nimInErrorMode__759bT87luu8XGcbkw13FUjA>
    c860:	00 
    c861:	0f 85 b6 00 00 00    	jne    c91d <nimFloatToStr+0x17d>
    c867:	48 8b 5c 24 20       	mov    rbx,QWORD PTR [rsp+0x20]
    c86c:	48 89 c5             	mov    rbp,rax
    c86f:	48 01 dd             	add    rbp,rbx
    c872:	74 5c                	je     c8d0 <nimFloatToStr+0x130>
    c874:	48 39 eb             	cmp    rbx,rbp
    c877:	7c 1f                	jl     c898 <nimFloatToStr+0xf8>
    c879:	48 8b 54 24 28       	mov    rdx,QWORD PTR [rsp+0x28]
    c87e:	48 85 d2             	test   rdx,rdx
    c881:	74 15                	je     c898 <nimFloatToStr+0xf8>
    c883:	48 b9 00 00 00 00 00 	movabs rcx,0x4000000000000000
    c88a:	00 00 40 
    c88d:	48 85 0a             	test   QWORD PTR [rdx],rcx
    c890:	74 29                	je     c8bb <nimFloatToStr+0x11b>
    c892:	66 0f 1f 44 00 00    	nop    WORD PTR [rax+rax*1+0x0]
    c898:	48 89 ee             	mov    rsi,rbp
    c89b:	48 89 04 24          	mov    QWORD PTR [rsp],rax
    c89f:	48 29 de             	sub    rsi,rbx
    c8a2:	0f 80 a3 00 00 00    	jo     c94b <nimFloatToStr+0x1ab>
    c8a8:	48 8d 7c 24 20       	lea    rdi,[rsp+0x20]
    c8ad:	e8 ee d6 ff ff       	call   9fa0 <prepareAdd>
    c8b2:	48 8b 54 24 28       	mov    rdx,QWORD PTR [rsp+0x28]
    c8b7:	48 8b 04 24          	mov    rax,QWORD PTR [rsp]
    c8bb:	c6 44 2a 08 00       	mov    BYTE PTR [rdx+rbp*1+0x8],0x0
    c8c0:	48 8b 54 24 28       	mov    rdx,QWORD PTR [rsp+0x28]
    c8c5:	eb 41                	jmp    c908 <nimFloatToStr+0x168>
    c8c7:	66 0f 1f 84 00 00 00 	nop    WORD PTR [rax+rax*1+0x0]
    c8ce:	00 00 
    c8d0:	48 8b 74 24 28       	mov    rsi,QWORD PTR [rsp+0x28]
    c8d5:	48 85 f6             	test   rsi,rsi
    c8d8:	74 23                	je     c8fd <nimFloatToStr+0x15d>
    c8da:	48 ba 00 00 00 00 00 	movabs rdx,0x4000000000000000
    c8e1:	00 00 40 
    c8e4:	48 85 16             	test   QWORD PTR [rsi],rdx
    c8e7:	75 14                	jne    c8fd <nimFloatToStr+0x15d>
    c8e9:	48 8d 3d 90 57 20 00 	lea    rdi,[rip+0x205790]        # 212080 <allocator__Het9ctRSeaVb4hPekZZNCJQ>
    c8f0:	48 89 04 24          	mov    QWORD PTR [rsp],rax
    c8f4:	e8 87 58 ff ff       	call   2180 <rawDealloc__K7uQ6aTKvW6OnOV8EMoNNQ>
    c8f9:	48 8b 04 24          	mov    rax,QWORD PTR [rsp]
    c8fd:	48 c7 44 24 28 00 00 	mov    QWORD PTR [rsp+0x28],0x0
    c904:	00 00 
    c906:	31 d2                	xor    edx,edx
    c908:	48 89 6c 24 20       	mov    QWORD PTR [rsp+0x20],rbp
    c90d:	48 8d 7c 1a 08       	lea    rdi,[rdx+rbx*1+0x8]
    c912:	4c 89 e6             	mov    rsi,r12
    c915:	48 89 c2             	mov    rdx,rax
    c918:	e8 a3 40 ff ff       	call   9c0 <memcpy@plt>
    c91d:	48 8b 8c 24 88 00 00 	mov    rcx,QWORD PTR [rsp+0x88]
    c924:	00 
    c925:	64 48 33 0c 25 28 00 	xor    rcx,QWORD PTR fs:0x28
    c92c:	00 00 
    c92e:	48 8b 44 24 20       	mov    rax,QWORD PTR [rsp+0x20]
    c933:	48 8b 54 24 28       	mov    rdx,QWORD PTR [rsp+0x28]
    c938:	75 0c                	jne    c946 <nimFloatToStr+0x1a6>
    c93a:	48 81 c4 90 00 00 00 	add    rsp,0x90
    c941:	5b                   	pop    rbx
    c942:	5d                   	pop    rbp
    c943:	41 5c                	pop    r12
    c945:	c3                   	ret    
    c946:	e8 15 40 ff ff       	call   960 <__stack_chk_fail@plt>
    c94b:	e8 f0 ce ff ff       	call   9840 <raiseOverflow>
    c950:	48 8b 54 24 28       	mov    rdx,QWORD PTR [rsp+0x28]
    c955:	48 8b 04 24          	mov    rax,QWORD PTR [rsp]
    c959:	eb b2                	jmp    c90d <nimFloatToStr+0x16d>
    c95b:	0f 1f 44 00 00       	nop    DWORD PTR [rax+rax*1+0x0]

000000000000c960 <nimAsgnStrV2>:
    c960:	48 8b 47 08          	mov    rax,QWORD PTR [rdi+0x8]
    c964:	48 39 d0             	cmp    rax,rdx
    c967:	0f 84 13 01 00 00    	je     ca80 <nimAsgnStrV2+0x120>
    c96d:	48 85 d2             	test   rdx,rdx
    c970:	41 56                	push   r14
    c972:	41 55                	push   r13
    c974:	41 54                	push   r12
    c976:	49 89 fc             	mov    r12,rdi
    c979:	55                   	push   rbp
    c97a:	48 89 d5             	mov    rbp,rdx
    c97d:	53                   	push   rbx
    c97e:	48 89 f3             	mov    rbx,rsi
    c981:	74 6d                	je     c9f0 <nimAsgnStrV2+0x90>
    c983:	48 ba 00 00 00 00 00 	movabs rdx,0x4000000000000000
    c98a:	00 00 40 
    c98d:	48 85 55 00          	test   QWORD PTR [rbp+0x0],rdx
    c991:	75 5d                	jne    c9f0 <nimAsgnStrV2+0x90>
    c993:	48 85 c0             	test   rax,rax
    c996:	0f 84 98 00 00 00    	je     ca34 <nimAsgnStrV2+0xd4>
    c99c:	48 8b 08             	mov    rcx,QWORD PTR [rax]
    c99f:	48 85 d1             	test   rcx,rdx
    c9a2:	0f 85 8c 00 00 00    	jne    ca34 <nimAsgnStrV2+0xd4>
    c9a8:	48 ba ff ff ff ff ff 	movabs rdx,0xbfffffffffffffff
    c9af:	ff ff bf 
    c9b2:	48 21 d1             	and    rcx,rdx
    c9b5:	48 39 f1             	cmp    rcx,rsi
    c9b8:	7c 6b                	jl     ca25 <nimAsgnStrV2+0xc5>
    c9ba:	48 83 c3 01          	add    rbx,0x1
    c9be:	49 89 34 24          	mov    QWORD PTR [r12],rsi
    c9c2:	0f 80 ba 00 00 00    	jo     ca82 <nimAsgnStrV2+0x122>
    c9c8:	48 85 db             	test   rbx,rbx
    c9cb:	0f 88 bf 00 00 00    	js     ca90 <nimAsgnStrV2+0x130>
    c9d1:	49 8b 7c 24 08       	mov    rdi,QWORD PTR [r12+0x8]
    c9d6:	48 8d 75 08          	lea    rsi,[rbp+0x8]
    c9da:	48 89 da             	mov    rdx,rbx
    c9dd:	5b                   	pop    rbx
    c9de:	5d                   	pop    rbp
    c9df:	41 5c                	pop    r12
    c9e1:	41 5d                	pop    r13
    c9e3:	41 5e                	pop    r14
    c9e5:	48 83 c7 08          	add    rdi,0x8
    c9e9:	e9 d2 3f ff ff       	jmp    9c0 <memcpy@plt>
    c9ee:	66 90                	xchg   ax,ax
    c9f0:	48 85 c0             	test   rax,rax
    c9f3:	74 1e                	je     ca13 <nimAsgnStrV2+0xb3>
    c9f5:	48 ba 00 00 00 00 00 	movabs rdx,0x4000000000000000
    c9fc:	00 00 40 
    c9ff:	48 85 10             	test   QWORD PTR [rax],rdx
    ca02:	75 0f                	jne    ca13 <nimAsgnStrV2+0xb3>
    ca04:	48 8d 3d 75 56 20 00 	lea    rdi,[rip+0x205675]        # 212080 <allocator__Het9ctRSeaVb4hPekZZNCJQ>
    ca0b:	48 89 c6             	mov    rsi,rax
    ca0e:	e8 6d 57 ff ff       	call   2180 <rawDealloc__K7uQ6aTKvW6OnOV8EMoNNQ>
    ca13:	49 89 1c 24          	mov    QWORD PTR [r12],rbx
    ca17:	49 89 6c 24 08       	mov    QWORD PTR [r12+0x8],rbp
    ca1c:	5b                   	pop    rbx
    ca1d:	5d                   	pop    rbp
    ca1e:	41 5c                	pop    r12
    ca20:	41 5d                	pop    r13
    ca22:	41 5e                	pop    r14
    ca24:	c3                   	ret    
    ca25:	48 8d 3d 54 56 20 00 	lea    rdi,[rip+0x205654]        # 212080 <allocator__Het9ctRSeaVb4hPekZZNCJQ>
    ca2c:	48 89 c6             	mov    rsi,rax
    ca2f:	e8 4c 57 ff ff       	call   2180 <rawDealloc__K7uQ6aTKvW6OnOV8EMoNNQ>
    ca34:	49 89 dd             	mov    r13,rbx
    ca37:	49 83 c5 01          	add    r13,0x1
    ca3b:	70 45                	jo     ca82 <nimAsgnStrV2+0x122>
    ca3d:	4d 89 ee             	mov    r14,r13
    ca40:	49 83 c6 08          	add    r14,0x8
    ca44:	70 3c                	jo     ca82 <nimAsgnStrV2+0x122>
    ca46:	4d 85 f6             	test   r14,r14
    ca49:	78 65                	js     cab0 <nimAsgnStrV2+0x150>
    ca4b:	48 8d 3d 2e 56 20 00 	lea    rdi,[rip+0x20562e]        # 212080 <allocator__Het9ctRSeaVb4hPekZZNCJQ>
    ca52:	4c 89 f6             	mov    rsi,r14
    ca55:	e8 f6 8e ff ff       	call   5950 <rawAlloc__mE4QEVyMvGRVliDWDngZCQ>
    ca5a:	4c 89 f2             	mov    rdx,r14
    ca5d:	31 f6                	xor    esi,esi
    ca5f:	48 89 c7             	mov    rdi,rax
    ca62:	e8 19 3f ff ff       	call   980 <memset@plt>
    ca67:	49 89 44 24 08       	mov    QWORD PTR [r12+0x8],rax
    ca6c:	48 89 18             	mov    QWORD PTR [rax],rbx
    ca6f:	49 89 1c 24          	mov    QWORD PTR [r12],rbx
    ca73:	4c 89 eb             	mov    rbx,r13
    ca76:	e9 4d ff ff ff       	jmp    c9c8 <nimAsgnStrV2+0x68>
    ca7b:	0f 1f 44 00 00       	nop    DWORD PTR [rax+rax*1+0x0]
    ca80:	f3 c3                	repz ret 
    ca82:	5b                   	pop    rbx
    ca83:	5d                   	pop    rbp
    ca84:	41 5c                	pop    r12
    ca86:	41 5d                	pop    r13
    ca88:	41 5e                	pop    r14
    ca8a:	e9 b1 cd ff ff       	jmp    9840 <raiseOverflow>
    ca8f:	90                   	nop
    ca90:	48 ba ff ff ff ff ff 	movabs rdx,0x7fffffffffffffff
    ca97:	ff ff 7f 
    ca9a:	31 f6                	xor    esi,esi
    ca9c:	48 89 df             	mov    rdi,rbx
    ca9f:	5b                   	pop    rbx
    caa0:	5d                   	pop    rbp
    caa1:	41 5c                	pop    r12
    caa3:	41 5d                	pop    r13
    caa5:	41 5e                	pop    r14
    caa7:	e9 34 c5 ff ff       	jmp    8fe0 <raiseRangeErrorI>
    caac:	0f 1f 40 00          	nop    DWORD PTR [rax+0x0]
    cab0:	48 ba ff ff ff ff ff 	movabs rdx,0x7fffffffffffffff
    cab7:	ff ff 7f 
    caba:	31 f6                	xor    esi,esi
    cabc:	4c 89 f7             	mov    rdi,r14
    cabf:	eb de                	jmp    ca9f <nimAsgnStrV2+0x13f>
    cac1:	0f 1f 44 00 00       	nop    DWORD PTR [rax+rax*1+0x0]
    cac6:	66 2e 0f 1f 84 00 00 	nop    WORD PTR cs:[rax+rax*1+0x0]
    cacd:	00 00 00 

000000000000cad0 <eq___aBBXmHFBEivKqERloP6zmA_2>:
    cad0:	48 8b 47 08          	mov    rax,QWORD PTR [rdi+0x8]
    cad4:	48 39 d0             	cmp    rax,rdx
    cad7:	0f 84 13 01 00 00    	je     cbf0 <eq___aBBXmHFBEivKqERloP6zmA_2+0x120>
    cadd:	48 85 d2             	test   rdx,rdx
    cae0:	41 56                	push   r14
    cae2:	41 55                	push   r13
    cae4:	41 54                	push   r12
    cae6:	49 89 fc             	mov    r12,rdi
    cae9:	55                   	push   rbp
    caea:	48 89 d5             	mov    rbp,rdx
    caed:	53                   	push   rbx
    caee:	48 89 f3             	mov    rbx,rsi
    caf1:	74 6d                	je     cb60 <eq___aBBXmHFBEivKqERloP6zmA_2+0x90>
    caf3:	48 ba 00 00 00 00 00 	movabs rdx,0x4000000000000000
    cafa:	00 00 40 
    cafd:	48 85 55 00          	test   QWORD PTR [rbp+0x0],rdx
    cb01:	75 5d                	jne    cb60 <eq___aBBXmHFBEivKqERloP6zmA_2+0x90>
    cb03:	48 85 c0             	test   rax,rax
    cb06:	0f 84 98 00 00 00    	je     cba4 <eq___aBBXmHFBEivKqERloP6zmA_2+0xd4>
    cb0c:	48 8b 08             	mov    rcx,QWORD PTR [rax]
    cb0f:	48 85 d1             	test   rcx,rdx
    cb12:	0f 85 8c 00 00 00    	jne    cba4 <eq___aBBXmHFBEivKqERloP6zmA_2+0xd4>
    cb18:	48 ba ff ff ff ff ff 	movabs rdx,0xbfffffffffffffff
    cb1f:	ff ff bf 
    cb22:	48 21 d1             	and    rcx,rdx
    cb25:	48 39 ce             	cmp    rsi,rcx
    cb28:	7f 6b                	jg     cb95 <eq___aBBXmHFBEivKqERloP6zmA_2+0xc5>
    cb2a:	48 83 c3 01          	add    rbx,0x1
    cb2e:	49 89 34 24          	mov    QWORD PTR [r12],rsi
    cb32:	0f 80 ba 00 00 00    	jo     cbf2 <eq___aBBXmHFBEivKqERloP6zmA_2+0x122>
    cb38:	48 85 db             	test   rbx,rbx
    cb3b:	0f 88 bf 00 00 00    	js     cc00 <eq___aBBXmHFBEivKqERloP6zmA_2+0x130>
    cb41:	49 8b 7c 24 08       	mov    rdi,QWORD PTR [r12+0x8]
    cb46:	48 8d 75 08          	lea    rsi,[rbp+0x8]
    cb4a:	48 89 da             	mov    rdx,rbx
    cb4d:	5b                   	pop    rbx
    cb4e:	5d                   	pop    rbp
    cb4f:	41 5c                	pop    r12
    cb51:	41 5d                	pop    r13
    cb53:	41 5e                	pop    r14
    cb55:	48 83 c7 08          	add    rdi,0x8
    cb59:	e9 62 3e ff ff       	jmp    9c0 <memcpy@plt>
    cb5e:	66 90                	xchg   ax,ax
    cb60:	48 85 c0             	test   rax,rax
    cb63:	74 1e                	je     cb83 <eq___aBBXmHFBEivKqERloP6zmA_2+0xb3>
    cb65:	48 ba 00 00 00 00 00 	movabs rdx,0x4000000000000000
    cb6c:	00 00 40 
    cb6f:	48 85 10             	test   QWORD PTR [rax],rdx
    cb72:	75 0f                	jne    cb83 <eq___aBBXmHFBEivKqERloP6zmA_2+0xb3>
    cb74:	48 8d 3d 05 55 20 00 	lea    rdi,[rip+0x205505]        # 212080 <allocator__Het9ctRSeaVb4hPekZZNCJQ>
    cb7b:	48 89 c6             	mov    rsi,rax
    cb7e:	e8 fd 55 ff ff       	call   2180 <rawDealloc__K7uQ6aTKvW6OnOV8EMoNNQ>
    cb83:	49 89 1c 24          	mov    QWORD PTR [r12],rbx
    cb87:	49 89 6c 24 08       	mov    QWORD PTR [r12+0x8],rbp
    cb8c:	5b                   	pop    rbx
    cb8d:	5d                   	pop    rbp
    cb8e:	41 5c                	pop    r12
    cb90:	41 5d                	pop    r13
    cb92:	41 5e                	pop    r14
    cb94:	c3                   	ret    
    cb95:	48 8d 3d e4 54 20 00 	lea    rdi,[rip+0x2054e4]        # 212080 <allocator__Het9ctRSeaVb4hPekZZNCJQ>
    cb9c:	48 89 c6             	mov    rsi,rax
    cb9f:	e8 dc 55 ff ff       	call   2180 <rawDealloc__K7uQ6aTKvW6OnOV8EMoNNQ>
    cba4:	49 89 dd             	mov    r13,rbx
    cba7:	49 83 c5 01          	add    r13,0x1
    cbab:	70 45                	jo     cbf2 <eq___aBBXmHFBEivKqERloP6zmA_2+0x122>
    cbad:	4d 89 ee             	mov    r14,r13
    cbb0:	49 83 c6 08          	add    r14,0x8
    cbb4:	70 3c                	jo     cbf2 <eq___aBBXmHFBEivKqERloP6zmA_2+0x122>
    cbb6:	4d 85 f6             	test   r14,r14
    cbb9:	78 65                	js     cc20 <eq___aBBXmHFBEivKqERloP6zmA_2+0x150>
    cbbb:	48 8d 3d be 54 20 00 	lea    rdi,[rip+0x2054be]        # 212080 <allocator__Het9ctRSeaVb4hPekZZNCJQ>
    cbc2:	4c 89 f6             	mov    rsi,r14
    cbc5:	e8 86 8d ff ff       	call   5950 <rawAlloc__mE4QEVyMvGRVliDWDngZCQ>
    cbca:	4c 89 f2             	mov    rdx,r14
    cbcd:	31 f6                	xor    esi,esi
    cbcf:	48 89 c7             	mov    rdi,rax
    cbd2:	e8 a9 3d ff ff       	call   980 <memset@plt>
    cbd7:	49 89 44 24 08       	mov    QWORD PTR [r12+0x8],rax
    cbdc:	48 89 18             	mov    QWORD PTR [rax],rbx
    cbdf:	49 89 1c 24          	mov    QWORD PTR [r12],rbx
    cbe3:	4c 89 eb             	mov    rbx,r13
    cbe6:	e9 4d ff ff ff       	jmp    cb38 <eq___aBBXmHFBEivKqERloP6zmA_2+0x68>
    cbeb:	0f 1f 44 00 00       	nop    DWORD PTR [rax+rax*1+0x0]
    cbf0:	f3 c3                	repz ret 
    cbf2:	5b                   	pop    rbx
    cbf3:	5d                   	pop    rbp
    cbf4:	41 5c                	pop    r12
    cbf6:	41 5d                	pop    r13
    cbf8:	41 5e                	pop    r14
    cbfa:	e9 41 cc ff ff       	jmp    9840 <raiseOverflow>
    cbff:	90                   	nop
    cc00:	48 ba ff ff ff ff ff 	movabs rdx,0x7fffffffffffffff
    cc07:	ff ff 7f 
    cc0a:	31 f6                	xor    esi,esi
    cc0c:	48 89 df             	mov    rdi,rbx
    cc0f:	5b                   	pop    rbx
    cc10:	5d                   	pop    rbp
    cc11:	41 5c                	pop    r12
    cc13:	41 5d                	pop    r13
    cc15:	41 5e                	pop    r14
    cc17:	e9 c4 c3 ff ff       	jmp    8fe0 <raiseRangeErrorI>
    cc1c:	0f 1f 40 00          	nop    DWORD PTR [rax+0x0]
    cc20:	48 ba ff ff ff ff ff 	movabs rdx,0x7fffffffffffffff
    cc27:	ff ff 7f 
    cc2a:	31 f6                	xor    esi,esi
    cc2c:	4c 89 f7             	mov    rdi,r14
    cc2f:	eb de                	jmp    cc0f <eq___aBBXmHFBEivKqERloP6zmA_2+0x13f>
    cc31:	0f 1f 44 00 00       	nop    DWORD PTR [rax+rax*1+0x0]
    cc36:	66 2e 0f 1f 84 00 00 	nop    WORD PTR cs:[rax+rax*1+0x0]
    cc3d:	00 00 00 

000000000000cc40 <nimIntToStr>:
    cc40:	41 57                	push   r15
    cc42:	41 56                	push   r14
    cc44:	49 89 fe             	mov    r14,rdi
    cc47:	41 55                	push   r13
    cc49:	41 54                	push   r12
    cc4b:	be 29 00 00 00       	mov    esi,0x29
    cc50:	55                   	push   rbp
    cc51:	53                   	push   rbx
    cc52:	45 31 ff             	xor    r15d,r15d
    cc55:	66 0f ef c0          	pxor   xmm0,xmm0
    cc59:	49 bc 00 00 00 00 00 	movabs r12,0x4000000000000000
    cc60:	00 00 40 
    cc63:	48 83 ec 68          	sub    rsp,0x68
    cc67:	41 bd 30 00 00 00    	mov    r13d,0x30
    cc6d:	48 89 7c 24 20       	mov    QWORD PTR [rsp+0x20],rdi
    cc72:	48 8d 3d 07 54 20 00 	lea    rdi,[rip+0x205407]        # 212080 <allocator__Het9ctRSeaVb4hPekZZNCJQ>
    cc79:	48 c7 44 24 30 00 00 	mov    QWORD PTR [rsp+0x30],0x0
    cc80:	00 00 
    cc82:	0f 29 44 24 40       	movaps XMMWORD PTR [rsp+0x40],xmm0
    cc87:	64 48 8b 04 25 28 00 	mov    rax,QWORD PTR fs:0x28
    cc8e:	00 00 
    cc90:	48 89 44 24 58       	mov    QWORD PTR [rsp+0x58],rax
    cc95:	31 c0                	xor    eax,eax
    cc97:	0f 29 04 24          	movaps XMMWORD PTR [rsp],xmm0
    cc9b:	48 8d 6c 24 40       	lea    rbp,[rsp+0x40]
    cca0:	48 c7 44 24 38 00 00 	mov    QWORD PTR [rsp+0x38],0x0
    cca7:	00 00 
    cca9:	e8 a2 8c ff ff       	call   5950 <rawAlloc__mE4QEVyMvGRVliDWDngZCQ>
    ccae:	66 0f 6f 04 24       	movdqa xmm0,XMMWORD PTR [rsp]
    ccb3:	48 89 ef             	mov    rdi,rbp
    ccb6:	c6 40 28 00          	mov    BYTE PTR [rax+0x28],0x0
    ccba:	48 c7 00 20 00 00 00 	mov    QWORD PTR [rax],0x20
    ccc1:	48 89 c3             	mov    rbx,rax
    ccc4:	0f 11 40 08          	movups XMMWORD PTR [rax+0x8],xmm0
    ccc8:	48 bd 67 66 66 66 66 	movabs rbp,0x6666666666666667
    cccf:	66 66 66 
    ccd2:	0f 11 40 18          	movups XMMWORD PTR [rax+0x18],xmm0
    ccd6:	e8 c5 c0 ff ff       	call   8da0 <chckNil>
    ccdb:	48 8d 44 24 30       	lea    rax,[rsp+0x30]
    cce0:	be 20 00 00 00       	mov    esi,0x20
    cce5:	48 c7 44 24 30 00 00 	mov    QWORD PTR [rsp+0x30],0x0
    ccec:	00 00 
    ccee:	48 89 5c 24 38       	mov    QWORD PTR [rsp+0x38],rbx
    ccf3:	48 89 c7             	mov    rdi,rax
    ccf6:	48 89 44 24 28       	mov    QWORD PTR [rsp+0x28],rax
    ccfb:	e8 a0 d2 ff ff       	call   9fa0 <prepareAdd>
    cd00:	4c 8b 4c 24 38       	mov    r9,QWORD PTR [rsp+0x38]
    cd05:	48 c7 44 24 30 20 00 	mov    QWORD PTR [rsp+0x30],0x20
    cd0c:	00 00 
    cd0e:	41 c6 41 28 00       	mov    BYTE PTR [r9+0x28],0x0
    cd13:	e9 2b 00 00 00       	jmp    cd43 <nimIntToStr+0x103>
    cd18:	0f 1f 84 00 00 00 00 	nop    DWORD PTR [rax+rax*1+0x0]
    cd1f:	00 
    cd20:	41 8d 4e 30          	lea    ecx,[r14+0x30]
    cd24:	4d 8d 47 01          	lea    r8,[r15+0x1]
    cd28:	29 d1                	sub    ecx,edx
    cd2a:	48 85 db             	test   rbx,rbx
    cd2d:	43 88 4c 39 08       	mov    BYTE PTR [r9+r15*1+0x8],cl
    cd32:	0f 84 01 01 00 00    	je     ce39 <nimIntToStr+0x1f9>
    cd38:	4c 8b 4c 24 38       	mov    r9,QWORD PTR [rsp+0x38]
    cd3d:	49 89 de             	mov    r14,rbx
    cd40:	4d 89 c7             	mov    r15,r8
    cd43:	4c 89 f0             	mov    rax,r14
    cd46:	48 f7 ed             	imul   rbp
    cd49:	4c 89 f0             	mov    rax,r14
    cd4c:	48 c1 f8 3f          	sar    rax,0x3f
    cd50:	48 c1 fa 02          	sar    rdx,0x2
    cd54:	48 89 d3             	mov    rbx,rdx
    cd57:	48 29 c3             	sub    rbx,rax
    cd5a:	4d 85 c9             	test   r9,r9
    cd5d:	0f 84 9d 00 00 00    	je     ce00 <nimIntToStr+0x1c0>
    cd63:	4d 85 21             	test   QWORD PTR [r9],r12
    cd66:	0f 84 94 00 00 00    	je     ce00 <nimIntToStr+0x1c0>
    cd6c:	4c 8b 44 24 30       	mov    r8,QWORD PTR [rsp+0x30]
    cd71:	49 83 c0 01          	add    r8,0x1
    cd75:	0f 80 73 01 00 00    	jo     ceee <nimIntToStr+0x2ae>
    cd7b:	49 83 c0 08          	add    r8,0x8
    cd7f:	0f 80 69 01 00 00    	jo     ceee <nimIntToStr+0x2ae>
    cd85:	4d 85 c0             	test   r8,r8
    cd88:	0f 88 72 01 00 00    	js     cf00 <nimIntToStr+0x2c0>
    cd8e:	48 8d 3d eb 52 20 00 	lea    rdi,[rip+0x2052eb]        # 212080 <allocator__Het9ctRSeaVb4hPekZZNCJQ>
    cd95:	4c 89 c6             	mov    rsi,r8
    cd98:	4c 89 4c 24 18       	mov    QWORD PTR [rsp+0x18],r9
    cd9d:	4c 89 04 24          	mov    QWORD PTR [rsp],r8
    cda1:	e8 aa 8b ff ff       	call   5950 <rawAlloc__mE4QEVyMvGRVliDWDngZCQ>
    cda6:	4c 8b 04 24          	mov    r8,QWORD PTR [rsp]
    cdaa:	31 f6                	xor    esi,esi
    cdac:	48 89 c7             	mov    rdi,rax
    cdaf:	4c 89 c2             	mov    rdx,r8
    cdb2:	e8 c9 3b ff ff       	call   980 <memset@plt>
    cdb7:	49 89 c3             	mov    r11,rax
    cdba:	48 89 44 24 38       	mov    QWORD PTR [rsp+0x38],rax
    cdbf:	48 8b 44 24 30       	mov    rax,QWORD PTR [rsp+0x30]
    cdc4:	49 89 03             	mov    QWORD PTR [r11],rax
    cdc7:	48 8b 44 24 30       	mov    rax,QWORD PTR [rsp+0x30]
    cdcc:	48 83 c0 01          	add    rax,0x1
    cdd0:	0f 80 18 01 00 00    	jo     ceee <nimIntToStr+0x2ae>
    cdd6:	48 85 c0             	test   rax,rax
    cdd9:	4c 8b 4c 24 18       	mov    r9,QWORD PTR [rsp+0x18]
    cdde:	0f 88 3c 01 00 00    	js     cf20 <nimIntToStr+0x2e0>
    cde4:	48 8b 7c 24 38       	mov    rdi,QWORD PTR [rsp+0x38]
    cde9:	49 8d 71 08          	lea    rsi,[r9+0x8]
    cded:	48 89 c2             	mov    rdx,rax
    cdf0:	48 83 c7 08          	add    rdi,0x8
    cdf4:	e8 c7 3b ff ff       	call   9c0 <memcpy@plt>
    cdf9:	4c 8b 4c 24 38       	mov    r9,QWORD PTR [rsp+0x38]
    cdfe:	66 90                	xchg   ax,ax
    ce00:	48 89 d8             	mov    rax,rbx
    ce03:	8d 14 9b             	lea    edx,[rbx+rbx*4]
    ce06:	48 f7 d8             	neg    rax
    ce09:	48 c1 e0 02          	shl    rax,0x2
    ce0d:	01 d2                	add    edx,edx
    ce0f:	48 29 d8             	sub    rax,rbx
    ce12:	49 8d 04 46          	lea    rax,[r14+rax*2]
    ce16:	48 85 c0             	test   rax,rax
    ce19:	0f 8f 01 ff ff ff    	jg     cd20 <nimIntToStr+0xe0>
    ce1f:	44 89 e8             	mov    eax,r13d
    ce22:	4d 8d 47 01          	lea    r8,[r15+0x1]
    ce26:	44 29 f0             	sub    eax,r14d
    ce29:	01 c2                	add    edx,eax
    ce2b:	48 85 db             	test   rbx,rbx
    ce2e:	43 88 54 39 08       	mov    BYTE PTR [r9+r15*1+0x8],dl
    ce33:	0f 85 ff fe ff ff    	jne    cd38 <nimIntToStr+0xf8>
    ce39:	48 83 7c 24 20 00    	cmp    QWORD PTR [rsp+0x20],0x0
    ce3f:	0f 88 2b 01 00 00    	js     cf70 <nimIntToStr+0x330>
    ce45:	48 8b 44 24 30       	mov    rax,QWORD PTR [rsp+0x30]
    ce4a:	49 39 c0             	cmp    r8,rax
    ce4d:	0f 8e ed 00 00 00    	jle    cf40 <nimIntToStr+0x300>
    ce53:	4c 89 c6             	mov    rsi,r8
    ce56:	4c 89 04 24          	mov    QWORD PTR [rsp],r8
    ce5a:	48 29 c6             	sub    rsi,rax
    ce5d:	0f 80 38 01 00 00    	jo     cf9b <nimIntToStr+0x35b>
    ce63:	48 8b 7c 24 28       	mov    rdi,QWORD PTR [rsp+0x28]
    ce68:	e8 33 d1 ff ff       	call   9fa0 <prepareAdd>
    ce6d:	48 8b 54 24 38       	mov    rdx,QWORD PTR [rsp+0x38]
    ce72:	4c 8b 04 24          	mov    r8,QWORD PTR [rsp]
    ce76:	42 c6 44 02 08 00    	mov    BYTE PTR [rdx+r8*1+0x8],0x0
    ce7c:	4c 89 c0             	mov    rax,r8
    ce7f:	4c 89 44 24 30       	mov    QWORD PTR [rsp+0x30],r8
    ce84:	4d 89 c1             	mov    r9,r8
    ce87:	49 d1 f9             	sar    r9,1
    ce8a:	4d 85 c9             	test   r9,r9
    ce8d:	7e 37                	jle    cec6 <nimIntToStr+0x286>
    ce8f:	4d 8d 50 ff          	lea    r10,[r8-0x1]
    ce93:	31 d2                	xor    edx,edx
    ce95:	0f 1f 00             	nop    DWORD PTR [rax]
    ce98:	48 8b 4c 24 38       	mov    rcx,QWORD PTR [rsp+0x38]
    ce9d:	4c 89 d6             	mov    rsi,r10
    cea0:	48 29 d6             	sub    rsi,rdx
    cea3:	44 0f b6 44 31 08    	movzx  r8d,BYTE PTR [rcx+rsi*1+0x8]
    cea9:	0f b6 7c 11 08       	movzx  edi,BYTE PTR [rcx+rdx*1+0x8]
    ceae:	44 88 44 11 08       	mov    BYTE PTR [rcx+rdx*1+0x8],r8b
    ceb3:	48 8b 4c 24 38       	mov    rcx,QWORD PTR [rsp+0x38]
    ceb8:	48 83 c2 01          	add    rdx,0x1
    cebc:	49 39 d1             	cmp    r9,rdx
    cebf:	40 88 7c 31 08       	mov    BYTE PTR [rcx+rsi*1+0x8],dil
    cec4:	75 d2                	jne    ce98 <nimIntToStr+0x258>
    cec6:	48 8b 7c 24 58       	mov    rdi,QWORD PTR [rsp+0x58]
    cecb:	64 48 33 3c 25 28 00 	xor    rdi,QWORD PTR fs:0x28
    ced2:	00 00 
    ced4:	48 8b 54 24 38       	mov    rdx,QWORD PTR [rsp+0x38]
    ced9:	0f 85 b7 00 00 00    	jne    cf96 <nimIntToStr+0x356>
    cedf:	48 83 c4 68          	add    rsp,0x68
    cee3:	5b                   	pop    rbx
    cee4:	5d                   	pop    rbp
    cee5:	41 5c                	pop    r12
    cee7:	41 5d                	pop    r13
    cee9:	41 5e                	pop    r14
    ceeb:	41 5f                	pop    r15
    ceed:	c3                   	ret    
    ceee:	e8 4d c9 ff ff       	call   9840 <raiseOverflow>
    cef3:	4c 8b 4c 24 38       	mov    r9,QWORD PTR [rsp+0x38]
    cef8:	e9 03 ff ff ff       	jmp    ce00 <nimIntToStr+0x1c0>
    cefd:	0f 1f 00             	nop    DWORD PTR [rax]
    cf00:	48 ba ff ff ff ff ff 	movabs rdx,0x7fffffffffffffff
    cf07:	ff ff 7f 
    cf0a:	31 f6                	xor    esi,esi
    cf0c:	4c 89 c7             	mov    rdi,r8
    cf0f:	e8 cc c0 ff ff       	call   8fe0 <raiseRangeErrorI>
    cf14:	4c 8b 4c 24 38       	mov    r9,QWORD PTR [rsp+0x38]
    cf19:	e9 e2 fe ff ff       	jmp    ce00 <nimIntToStr+0x1c0>
    cf1e:	66 90                	xchg   ax,ax
    cf20:	48 ba ff ff ff ff ff 	movabs rdx,0x7fffffffffffffff
    cf27:	ff ff 7f 
    cf2a:	31 f6                	xor    esi,esi
    cf2c:	48 89 c7             	mov    rdi,rax
    cf2f:	e8 ac c0 ff ff       	call   8fe0 <raiseRangeErrorI>
    cf34:	4c 8b 4c 24 38       	mov    r9,QWORD PTR [rsp+0x38]
    cf39:	e9 c2 fe ff ff       	jmp    ce00 <nimIntToStr+0x1c0>
    cf3e:	66 90                	xchg   ax,ax
    cf40:	48 8b 54 24 38       	mov    rdx,QWORD PTR [rsp+0x38]
    cf45:	48 85 d2             	test   rdx,rdx
    cf48:	0f 84 05 ff ff ff    	je     ce53 <nimIntToStr+0x213>
    cf4e:	48 b9 00 00 00 00 00 	movabs rcx,0x4000000000000000
    cf55:	00 00 40 
    cf58:	48 85 0a             	test   QWORD PTR [rdx],rcx
    cf5b:	0f 84 15 ff ff ff    	je     ce76 <nimIntToStr+0x236>
    cf61:	e9 ed fe ff ff       	jmp    ce53 <nimIntToStr+0x213>
    cf66:	66 2e 0f 1f 84 00 00 	nop    WORD PTR cs:[rax+rax*1+0x0]
    cf6d:	00 00 00 
    cf70:	48 8b 7c 24 28       	mov    rdi,QWORD PTR [rsp+0x28]
    cf75:	4c 89 04 24          	mov    QWORD PTR [rsp],r8
    cf79:	e8 62 d3 ff ff       	call   a2e0 <nimPrepareStrMutationV2>
    cf7e:	4c 8b 04 24          	mov    r8,QWORD PTR [rsp]
    cf82:	48 8b 44 24 38       	mov    rax,QWORD PTR [rsp+0x38]
    cf87:	42 c6 44 00 08 2d    	mov    BYTE PTR [rax+r8*1+0x8],0x2d
    cf8d:	4d 8d 47 02          	lea    r8,[r15+0x2]
    cf91:	e9 af fe ff ff       	jmp    ce45 <nimIntToStr+0x205>
    cf96:	e8 c5 39 ff ff       	call   960 <__stack_chk_fail@plt>
    cf9b:	e8 a0 c8 ff ff       	call   9840 <raiseOverflow>
    cfa0:	48 8b 44 24 30       	mov    rax,QWORD PTR [rsp+0x30]
    cfa5:	4c 8b 04 24          	mov    r8,QWORD PTR [rsp]
    cfa9:	e9 d6 fe ff ff       	jmp    ce84 <nimIntToStr+0x244>
    cfae:	66 90                	xchg   ax,ax

000000000000cfb0 <raiseIndexError2>:
    cfb0:	41 57                	push   r15
    cfb2:	41 56                	push   r14
    cfb4:	41 55                	push   r13
    cfb6:	41 54                	push   r12
    cfb8:	55                   	push   rbp
    cfb9:	53                   	push   rbx
    cfba:	48 83 ec 58          	sub    rsp,0x58
    cfbe:	48 c7 05 47 84 20 00 	mov    QWORD PTR [rip+0x208447],0x0        # 215410 <nimInErrorMode__759bT87luu8XGcbkw13FUjA>
    cfc5:	00 00 00 00 
    cfc9:	64 48 8b 04 25 28 00 	mov    rax,QWORD PTR fs:0x28
    cfd0:	00 00 
    cfd2:	48 89 44 24 48       	mov    QWORD PTR [rsp+0x48],rax
    cfd7:	31 c0                	xor    eax,eax
    cfd9:	48 85 f6             	test   rsi,rsi
    cfdc:	0f 88 5e 03 00 00    	js     d340 <raiseIndexError2+0x390>
    cfe2:	66 0f ef c0          	pxor   xmm0,xmm0
    cfe6:	49 89 fc             	mov    r12,rdi
    cfe9:	48 8d 3d 90 50 20 00 	lea    rdi,[rip+0x205090]        # 212080 <allocator__Het9ctRSeaVb4hPekZZNCJQ>
    cff0:	48 89 f5             	mov    rbp,rsi
    cff3:	be 29 00 00 00       	mov    esi,0x29
    cff8:	48 c7 44 24 20 00 00 	mov    QWORD PTR [rsp+0x20],0x0
    cfff:	00 00 
    d001:	48 c7 44 24 28 00 00 	mov    QWORD PTR [rsp+0x28],0x0
    d008:	00 00 
    d00a:	4c 8d 6c 24 30       	lea    r13,[rsp+0x30]
    d00f:	4c 8d 74 24 20       	lea    r14,[rsp+0x20]
    d014:	0f 29 44 24 30       	movaps XMMWORD PTR [rsp+0x30],xmm0
    d019:	0f 29 04 24          	movaps XMMWORD PTR [rsp],xmm0
    d01d:	e8 2e 89 ff ff       	call   5950 <rawAlloc__mE4QEVyMvGRVliDWDngZCQ>
    d022:	4c 89 ef             	mov    rdi,r13
    d025:	48 89 c3             	mov    rbx,rax
    d028:	66 0f 6f 04 24       	movdqa xmm0,XMMWORD PTR [rsp]
    d02d:	c6 40 28 00          	mov    BYTE PTR [rax+0x28],0x0
    d031:	48 c7 00 20 00 00 00 	mov    QWORD PTR [rax],0x20
    d038:	0f 11 40 08          	movups XMMWORD PTR [rax+0x8],xmm0
    d03c:	0f 11 40 18          	movups XMMWORD PTR [rax+0x18],xmm0
    d040:	e8 5b bd ff ff       	call   8da0 <chckNil>
    d045:	4c 89 e6             	mov    rsi,r12
    d048:	4c 89 f7             	mov    rdi,r14
    d04b:	48 89 5c 24 28       	mov    QWORD PTR [rsp+0x28],rbx
    d050:	48 c7 44 24 20 00 00 	mov    QWORD PTR [rsp+0x20],0x0
    d057:	00 00 
    d059:	e8 32 e6 ff ff       	call   b690 <addInt__mftMOxbyu0h4yByfs3sqjA>
    d05e:	66 0f 6f 04 24       	movdqa xmm0,XMMWORD PTR [rsp]
    d063:	48 8d 3d 16 50 20 00 	lea    rdi,[rip+0x205016]        # 212080 <allocator__Het9ctRSeaVb4hPekZZNCJQ>
    d06a:	be 29 00 00 00       	mov    esi,0x29
    d06f:	4c 8b 7c 24 20       	mov    r15,QWORD PTR [rsp+0x20]
    d074:	4c 8b 64 24 28       	mov    r12,QWORD PTR [rsp+0x28]
    d079:	0f 29 44 24 30       	movaps XMMWORD PTR [rsp+0x30],xmm0
    d07e:	48 c7 44 24 20 00 00 	mov    QWORD PTR [rsp+0x20],0x0
    d085:	00 00 
    d087:	48 c7 44 24 28 00 00 	mov    QWORD PTR [rsp+0x28],0x0
    d08e:	00 00 
    d090:	e8 bb 88 ff ff       	call   5950 <rawAlloc__mE4QEVyMvGRVliDWDngZCQ>
    d095:	4c 89 ef             	mov    rdi,r13
    d098:	48 89 c3             	mov    rbx,rax
    d09b:	66 0f 6f 04 24       	movdqa xmm0,XMMWORD PTR [rsp]
    d0a0:	c6 40 28 00          	mov    BYTE PTR [rax+0x28],0x0
    d0a4:	48 c7 00 20 00 00 00 	mov    QWORD PTR [rax],0x20
    d0ab:	0f 11 40 08          	movups XMMWORD PTR [rax+0x8],xmm0
    d0af:	0f 11 40 18          	movups XMMWORD PTR [rax+0x18],xmm0
    d0b3:	e8 e8 bc ff ff       	call   8da0 <chckNil>
    d0b8:	48 89 ee             	mov    rsi,rbp
    d0bb:	4c 89 f7             	mov    rdi,r14
    d0be:	48 89 5c 24 28       	mov    QWORD PTR [rsp+0x28],rbx
    d0c3:	48 c7 44 24 20 00 00 	mov    QWORD PTR [rsp+0x20],0x0
    d0ca:	00 00 
    d0cc:	e8 bf e5 ff ff       	call   b690 <addInt__mftMOxbyu0h4yByfs3sqjA>
    d0d1:	48 8b 4c 24 20       	mov    rcx,QWORD PTR [rsp+0x20]
    d0d6:	4c 8b 6c 24 28       	mov    r13,QWORD PTR [rsp+0x28]
    d0db:	49 8d 7c 0f 13       	lea    rdi,[r15+rcx*1+0x13]
    d0e0:	48 89 0c 24          	mov    QWORD PTR [rsp],rcx
    d0e4:	e8 a7 c9 ff ff       	call   9a90 <rawNewString>
    d0e9:	48 8d 6c 10 08       	lea    rbp,[rax+rdx*1+0x8]
    d0ee:	48 89 c3             	mov    rbx,rax
    d0f1:	8b 05 f1 23 00 00    	mov    eax,DWORD PTR [rip+0x23f1]        # f4e8 <TM__Q5wkpxktOdTGvlSRo9bzt9aw_58+0x8>
    d0f7:	49 89 d0             	mov    r8,rdx
    d0fa:	49 89 d6             	mov    r14,rdx
    d0fd:	48 8b 0c 24          	mov    rcx,QWORD PTR [rsp]
    d101:	89 45 00             	mov    DWORD PTR [rbp+0x0],eax
    d104:	0f b7 05 e1 23 00 00 	movzx  eax,WORD PTR [rip+0x23e1]        # f4ec <TM__Q5wkpxktOdTGvlSRo9bzt9aw_58+0xc>
    d10b:	66 89 45 04          	mov    WORD PTR [rbp+0x4],ax
    d10f:	0f b6 05 d8 23 00 00 	movzx  eax,BYTE PTR [rip+0x23d8]        # f4ee <TM__Q5wkpxktOdTGvlSRo9bzt9aw_58+0xe>
    d116:	88 45 06             	mov    BYTE PTR [rbp+0x6],al
    d119:	48 89 d8             	mov    rax,rbx
    d11c:	48 83 c0 06          	add    rax,0x6
    d120:	0f 80 ae 02 00 00    	jo     d3d4 <raiseIndexError2+0x424>
    d126:	48 8d 6c 10 08       	lea    rbp,[rax+rdx*1+0x8]
    d12b:	48 89 c3             	mov    rbx,rax
    d12e:	4d 85 ff             	test   r15,r15
    d131:	7e 46                	jle    d179 <raiseIndexError2+0x1c9>
    d133:	4c 89 fa             	mov    rdx,r15
    d136:	48 83 c2 01          	add    rdx,0x1
    d13a:	0f 80 69 02 00 00    	jo     d3a9 <raiseIndexError2+0x3f9>
    d140:	48 85 d2             	test   rdx,rdx
    d143:	4c 89 44 24 18       	mov    QWORD PTR [rsp+0x18],r8
    d148:	48 89 0c 24          	mov    QWORD PTR [rsp],rcx
    d14c:	0f 88 2e 02 00 00    	js     d380 <raiseIndexError2+0x3d0>
    d152:	49 8d 74 24 08       	lea    rsi,[r12+0x8]
    d157:	48 89 ef             	mov    rdi,rbp
    d15a:	e8 61 38 ff ff       	call   9c0 <memcpy@plt>
    d15f:	49 01 df             	add    r15,rbx
    d162:	48 8b 0c 24          	mov    rcx,QWORD PTR [rsp]
    d166:	4c 8b 44 24 18       	mov    r8,QWORD PTR [rsp+0x18]
    d16b:	0f 80 38 02 00 00    	jo     d3a9 <raiseIndexError2+0x3f9>
    d171:	4b 8d 6c 07 08       	lea    rbp,[r15+r8*1+0x8]
    d176:	4c 89 fb             	mov    rbx,r15
    d179:	48 8b 05 48 23 00 00 	mov    rax,QWORD PTR [rip+0x2348]        # f4c8 <TM__Q5wkpxktOdTGvlSRo9bzt9aw_60+0x8>
    d180:	48 89 45 00          	mov    QWORD PTR [rbp+0x0],rax
    d184:	8b 05 46 23 00 00    	mov    eax,DWORD PTR [rip+0x2346]        # f4d0 <TM__Q5wkpxktOdTGvlSRo9bzt9aw_60+0x10>
    d18a:	89 45 08             	mov    DWORD PTR [rbp+0x8],eax
    d18d:	0f b7 05 40 23 00 00 	movzx  eax,WORD PTR [rip+0x2340]        # f4d4 <TM__Q5wkpxktOdTGvlSRo9bzt9aw_60+0x14>
    d194:	66 89 45 0c          	mov    WORD PTR [rbp+0xc],ax
    d198:	48 89 d8             	mov    rax,rbx
    d19b:	48 83 c0 0d          	add    rax,0xd
    d19f:	0f 80 4b 02 00 00    	jo     d3f0 <raiseIndexError2+0x440>
    d1a5:	48 89 c3             	mov    rbx,rax
    d1a8:	48 85 c9             	test   rcx,rcx
    d1ab:	7e 3b                	jle    d1e8 <raiseIndexError2+0x238>
    d1ad:	48 89 ca             	mov    rdx,rcx
    d1b0:	48 83 c2 01          	add    rdx,0x1
    d1b4:	0f 80 0b 02 00 00    	jo     d3c5 <raiseIndexError2+0x415>
    d1ba:	48 85 d2             	test   rdx,rdx
    d1bd:	0f 88 9d 01 00 00    	js     d360 <raiseIndexError2+0x3b0>
    d1c3:	4a 8d 7c 03 08       	lea    rdi,[rbx+r8*1+0x8]
    d1c8:	49 8d 75 08          	lea    rsi,[r13+0x8]
    d1cc:	48 89 0c 24          	mov    QWORD PTR [rsp],rcx
    d1d0:	e8 eb 37 ff ff       	call   9c0 <memcpy@plt>
    d1d5:	48 8b 0c 24          	mov    rcx,QWORD PTR [rsp]
    d1d9:	48 01 d9             	add    rcx,rbx
    d1dc:	0f 80 e3 01 00 00    	jo     d3c5 <raiseIndexError2+0x415>
    d1e2:	48 89 cb             	mov    rbx,rcx
    d1e5:	0f 1f 00             	nop    DWORD PTR [rax]
    d1e8:	48 8d 3d 91 4e 20 00 	lea    rdi,[rip+0x204e91]        # 212080 <allocator__Het9ctRSeaVb4hPekZZNCJQ>
    d1ef:	be 50 00 00 00       	mov    esi,0x50
    d1f4:	48 c7 05 11 82 20 00 	mov    QWORD PTR [rip+0x208211],0x0        # 215410 <nimInErrorMode__759bT87luu8XGcbkw13FUjA>
    d1fb:	00 00 00 00 
    d1ff:	e8 4c 87 ff ff       	call   5950 <rawAlloc__mE4QEVyMvGRVliDWDngZCQ>
    d204:	66 0f ef c0          	pxor   xmm0,xmm0
    d208:	48 8d 68 08          	lea    rbp,[rax+0x8]
    d20c:	48 8d 0d 6d 81 20 00 	lea    rcx,[rip+0x20816d]        # 215380 <NTI__K39aEGuwNdydKn2WFEpUygg_>
    d213:	48 8d 15 f0 20 00 00 	lea    rdx,[rip+0x20f0]        # f30a <_IO_stdin_used+0xca>
    d21a:	48 8d 35 59 20 00 00 	lea    rsi,[rip+0x2059]        # f27a <_IO_stdin_used+0x3a>
    d221:	48 83 ec 08          	sub    rsp,0x8
    d225:	48 8d 78 30          	lea    rdi,[rax+0x30]
    d229:	0f 11 00             	movups XMMWORD PTR [rax],xmm0
    d22c:	48 89 48 08          	mov    QWORD PTR [rax+0x8],rcx
    d230:	0f 11 40 10          	movups XMMWORD PTR [rax+0x10],xmm0
    d234:	0f 11 40 30          	movups XMMWORD PTR [rax+0x30],xmm0
    d238:	0f 11 40 40          	movups XMMWORD PTR [rax+0x40],xmm0
    d23c:	48 89 55 10          	mov    QWORD PTR [rbp+0x10],rdx
    d240:	48 8d 15 2a 20 00 00 	lea    rdx,[rip+0x202a]        # f271 <_IO_stdin_used+0x31>
    d247:	48 89 5d 18          	mov    QWORD PTR [rbp+0x18],rbx
    d24b:	4c 89 75 20          	mov    QWORD PTR [rbp+0x20],r14
    d24f:	48 89 74 24 48       	mov    QWORD PTR [rsp+0x48],rsi
    d254:	48 89 54 24 38       	mov    QWORD PTR [rsp+0x38],rdx
    d259:	48 c7 44 24 40 31 00 	mov    QWORD PTR [rsp+0x40],0x31
    d260:	00 00 
    d262:	ff 74 24 48          	push   QWORD PTR [rsp+0x48]
    d266:	ff 74 24 48          	push   QWORD PTR [rsp+0x48]
    d26a:	52                   	push   rdx
    d26b:	e8 80 e7 ff ff       	call   b9f0 <add__VHIeeMfqavFfKtbV1Wal0Q>
    d270:	48 8b 05 e1 81 20 00 	mov    rax,QWORD PTR [rip+0x2081e1]        # 215458 <localRaiseHook__EIvMhANBvB9cp2Ezvt29cADg>
    d277:	48 83 c4 20          	add    rsp,0x20
    d27b:	48 85 c0             	test   rax,rax
    d27e:	74 09                	je     d289 <raiseIndexError2+0x2d9>
    d280:	48 89 ef             	mov    rdi,rbp
    d283:	ff d0                	call   rax
    d285:	84 c0                	test   al,al
    d287:	74 1d                	je     d2a6 <raiseIndexError2+0x2f6>
    d289:	48 8b 05 28 81 20 00 	mov    rax,QWORD PTR [rip+0x208128]        # 2153b8 <globalRaiseHook__JbO1ti4ULxrw54m4zNPbpA>
    d290:	48 85 c0             	test   rax,rax
    d293:	74 09                	je     d29e <raiseIndexError2+0x2ee>
    d295:	48 89 ef             	mov    rdi,rbp
    d298:	ff d0                	call   rax
    d29a:	84 c0                	test   al,al
    d29c:	74 08                	je     d2a6 <raiseIndexError2+0x2f6>
    d29e:	48 89 ef             	mov    rdi,rbp
    d2a1:	e8 aa dd ff ff       	call   b050 <raiseExceptionAux__na8C8pUZ9cLQWVwk35l5vfw.part.15>
    d2a6:	4d 85 ed             	test   r13,r13
    d2a9:	48 8b 1d 60 81 20 00 	mov    rbx,QWORD PTR [rip+0x208160]        # 215410 <nimInErrorMode__759bT87luu8XGcbkw13FUjA>
    d2b0:	48 c7 05 55 81 20 00 	mov    QWORD PTR [rip+0x208155],0x0        # 215410 <nimInErrorMode__759bT87luu8XGcbkw13FUjA>
    d2b7:	00 00 00 00 
    d2bb:	74 10                	je     d2cd <raiseIndexError2+0x31d>
    d2bd:	48 b8 00 00 00 00 00 	movabs rax,0x4000000000000000
    d2c4:	00 00 40 
    d2c7:	49 85 45 00          	test   QWORD PTR [r13+0x0],rax
    d2cb:	74 43                	je     d310 <raiseIndexError2+0x360>
    d2cd:	4d 85 e4             	test   r12,r12
    d2d0:	74 10                	je     d2e2 <raiseIndexError2+0x332>
    d2d2:	48 b8 00 00 00 00 00 	movabs rax,0x4000000000000000
    d2d9:	00 00 40 
    d2dc:	49 85 04 24          	test   QWORD PTR [r12],rax
    d2e0:	74 46                	je     d328 <raiseIndexError2+0x378>
    d2e2:	48 01 1d 27 81 20 00 	add    QWORD PTR [rip+0x208127],rbx        # 215410 <nimInErrorMode__759bT87luu8XGcbkw13FUjA>
    d2e9:	48 8b 44 24 48       	mov    rax,QWORD PTR [rsp+0x48]
    d2ee:	64 48 33 04 25 28 00 	xor    rax,QWORD PTR fs:0x28
    d2f5:	00 00 
    d2f7:	0f 85 d2 00 00 00    	jne    d3cf <raiseIndexError2+0x41f>
    d2fd:	48 83 c4 58          	add    rsp,0x58
    d301:	5b                   	pop    rbx
    d302:	5d                   	pop    rbp
    d303:	41 5c                	pop    r12
    d305:	41 5d                	pop    r13
    d307:	41 5e                	pop    r14
    d309:	41 5f                	pop    r15
    d30b:	c3                   	ret    
    d30c:	0f 1f 40 00          	nop    DWORD PTR [rax+0x0]
    d310:	48 8d 3d 69 4d 20 00 	lea    rdi,[rip+0x204d69]        # 212080 <allocator__Het9ctRSeaVb4hPekZZNCJQ>
    d317:	4c 89 ee             	mov    rsi,r13
    d31a:	e8 61 4e ff ff       	call   2180 <rawDealloc__K7uQ6aTKvW6OnOV8EMoNNQ>
    d31f:	eb ac                	jmp    d2cd <raiseIndexError2+0x31d>
    d321:	0f 1f 80 00 00 00 00 	nop    DWORD PTR [rax+0x0]
    d328:	48 8d 3d 51 4d 20 00 	lea    rdi,[rip+0x204d51]        # 212080 <allocator__Het9ctRSeaVb4hPekZZNCJQ>
    d32f:	4c 89 e6             	mov    rsi,r12
    d332:	e8 49 4e ff ff       	call   2180 <rawDealloc__K7uQ6aTKvW6OnOV8EMoNNQ>
    d337:	eb a9                	jmp    d2e2 <raiseIndexError2+0x332>
    d339:	0f 1f 80 00 00 00 00 	nop    DWORD PTR [rax+0x0]
    d340:	4c 8d 35 b9 21 00 00 	lea    r14,[rip+0x21b9]        # f500 <TM__Q5wkpxktOdTGvlSRo9bzt9aw_56>
    d347:	bb 2b 00 00 00       	mov    ebx,0x2b
    d34c:	45 31 ed             	xor    r13d,r13d
    d34f:	45 31 e4             	xor    r12d,r12d
    d352:	e9 91 fe ff ff       	jmp    d1e8 <raiseIndexError2+0x238>
    d357:	66 0f 1f 84 00 00 00 	nop    WORD PTR [rax+rax*1+0x0]
    d35e:	00 00 
    d360:	48 ba ff ff ff ff ff 	movabs rdx,0x7fffffffffffffff
    d367:	ff ff 7f 
    d36a:	31 f6                	xor    esi,esi
    d36c:	48 bf 00 00 00 00 00 	movabs rdi,0x8000000000000000
    d373:	00 00 80 
    d376:	e8 65 bc ff ff       	call   8fe0 <raiseRangeErrorI>
    d37b:	e9 68 fe ff ff       	jmp    d1e8 <raiseIndexError2+0x238>
    d380:	48 ba ff ff ff ff ff 	movabs rdx,0x7fffffffffffffff
    d387:	ff ff 7f 
    d38a:	31 f6                	xor    esi,esi
    d38c:	48 bf 00 00 00 00 00 	movabs rdi,0x8000000000000000
    d393:	00 00 80 
    d396:	e8 45 bc ff ff       	call   8fe0 <raiseRangeErrorI>
    d39b:	48 8b 0c 24          	mov    rcx,QWORD PTR [rsp]
    d39f:	4c 8b 44 24 18       	mov    r8,QWORD PTR [rsp+0x18]
    d3a4:	e9 d0 fd ff ff       	jmp    d179 <raiseIndexError2+0x1c9>
    d3a9:	4c 89 44 24 18       	mov    QWORD PTR [rsp+0x18],r8
    d3ae:	48 89 0c 24          	mov    QWORD PTR [rsp],rcx
    d3b2:	e8 89 c4 ff ff       	call   9840 <raiseOverflow>
    d3b7:	48 8b 0c 24          	mov    rcx,QWORD PTR [rsp]
    d3bb:	4c 8b 44 24 18       	mov    r8,QWORD PTR [rsp+0x18]
    d3c0:	e9 b4 fd ff ff       	jmp    d179 <raiseIndexError2+0x1c9>
    d3c5:	e8 76 c4 ff ff       	call   9840 <raiseOverflow>
    d3ca:	e9 19 fe ff ff       	jmp    d1e8 <raiseIndexError2+0x238>
    d3cf:	e8 8c 35 ff ff       	call   960 <__stack_chk_fail@plt>
    d3d4:	48 89 0c 24          	mov    QWORD PTR [rsp],rcx
    d3d8:	48 89 54 24 18       	mov    QWORD PTR [rsp+0x18],rdx
    d3dd:	e8 5e c4 ff ff       	call   9840 <raiseOverflow>
    d3e2:	4c 8b 44 24 18       	mov    r8,QWORD PTR [rsp+0x18]
    d3e7:	48 8b 0c 24          	mov    rcx,QWORD PTR [rsp]
    d3eb:	e9 3e fd ff ff       	jmp    d12e <raiseIndexError2+0x17e>
    d3f0:	4c 89 44 24 18       	mov    QWORD PTR [rsp+0x18],r8
    d3f5:	48 89 0c 24          	mov    QWORD PTR [rsp],rcx
    d3f9:	e8 42 c4 ff ff       	call   9840 <raiseOverflow>
    d3fe:	48 8b 0c 24          	mov    rcx,QWORD PTR [rsp]
    d402:	4c 8b 44 24 18       	mov    r8,QWORD PTR [rsp+0x18]
    d407:	e9 9c fd ff ff       	jmp    d1a8 <raiseIndexError2+0x1f8>
    d40c:	0f 1f 40 00          	nop    DWORD PTR [rax+0x0]

000000000000d410 <nimAddCharV1>:
    d410:	41 57                	push   r15
    d412:	41 56                	push   r14
    d414:	41 55                	push   r13
    d416:	41 54                	push   r12
    d418:	41 89 f5             	mov    r13d,esi
    d41b:	55                   	push   rbp
    d41c:	53                   	push   rbx
    d41d:	48 89 fd             	mov    rbp,rdi
    d420:	48 83 ec 18          	sub    rsp,0x18
    d424:	4c 8b 67 08          	mov    r12,QWORD PTR [rdi+0x8]
    d428:	48 8b 17             	mov    rdx,QWORD PTR [rdi]
    d42b:	4d 85 e4             	test   r12,r12
    d42e:	0f 84 c4 00 00 00    	je     d4f8 <nimAddCharV1+0xe8>
    d434:	49 8b 04 24          	mov    rax,QWORD PTR [r12]
    d438:	48 b9 00 00 00 00 00 	movabs rcx,0x4000000000000000
    d43f:	00 00 40 
    d442:	48 21 c1             	and    rcx,rax
    d445:	0f 85 ad 00 00 00    	jne    d4f8 <nimAddCharV1+0xe8>
    d44b:	49 89 d6             	mov    r14,rdx
    d44e:	49 83 c6 01          	add    r14,0x1
    d452:	0f 80 a6 00 00 00    	jo     d4fe <nimAddCharV1+0xee>
    d458:	48 be ff ff ff ff ff 	movabs rsi,0xbfffffffffffffff
    d45f:	ff ff bf 
    d462:	48 21 f0             	and    rax,rsi
    d465:	4c 39 f0             	cmp    rax,r14
    d468:	0f 8d 9d 00 00 00    	jge    d50b <nimAddCharV1+0xfb>
    d46e:	48 85 c0             	test   rax,rax
    d471:	0f 8e 69 01 00 00    	jle    d5e0 <nimAddCharV1+0x1d0>
    d477:	48 3d ff ff 00 00    	cmp    rax,0xffff
    d47d:	0f 8f ad 01 00 00    	jg     d630 <nimAddCharV1+0x220>
    d483:	48 8d 0c 00          	lea    rcx,[rax+rax*1]
    d487:	48 83 c0 01          	add    rax,0x1
    d48b:	70 71                	jo     d4fe <nimAddCharV1+0xee>
    d48d:	48 83 c0 08          	add    rax,0x8
    d491:	48 89 c3             	mov    rbx,rax
    d494:	70 68                	jo     d4fe <nimAddCharV1+0xee>
    d496:	48 85 c0             	test   rax,rax
    d499:	0f 88 19 01 00 00    	js     d5b8 <nimAddCharV1+0x1a8>
    d49f:	49 39 ce             	cmp    r14,rcx
    d4a2:	4c 0f 4c f1          	cmovl  r14,rcx
    d4a6:	4c 89 f7             	mov    rdi,r14
    d4a9:	48 83 c7 01          	add    rdi,0x1
    d4ad:	70 4f                	jo     d4fe <nimAddCharV1+0xee>
    d4af:	48 83 c7 08          	add    rdi,0x8
    d4b3:	49 89 fc             	mov    r12,rdi
    d4b6:	70 46                	jo     d4fe <nimAddCharV1+0xee>
    d4b8:	48 85 ff             	test   rdi,rdi
    d4bb:	0f 88 2f 01 00 00    	js     d5f0 <nimAddCharV1+0x1e0>
    d4c1:	4c 8b 7d 08          	mov    r15,QWORD PTR [rbp+0x8]
    d4c5:	0f 85 81 01 00 00    	jne    d64c <nimAddCharV1+0x23c>
    d4cb:	4d 85 ff             	test   r15,r15
    d4ce:	74 0f                	je     d4df <nimAddCharV1+0xcf>
    d4d0:	48 8d 3d a9 4b 20 00 	lea    rdi,[rip+0x204ba9]        # 212080 <allocator__Het9ctRSeaVb4hPekZZNCJQ>
    d4d7:	4c 89 fe             	mov    rsi,r15
    d4da:	e8 a1 4c ff ff       	call   2180 <rawDealloc__K7uQ6aTKvW6OnOV8EMoNNQ>
    d4df:	48 c7 45 08 00 00 00 	mov    QWORD PTR [rbp+0x8],0x0
    d4e6:	00 
    d4e7:	48 c7 04 25 00 00 00 	mov    QWORD PTR ds:0x0,0x0
    d4ee:	00 00 00 00 00 
    d4f3:	0f 0b                	ud2    
    d4f5:	0f 1f 00             	nop    DWORD PTR [rax]
    d4f8:	48 83 c2 01          	add    rdx,0x1
    d4fc:	71 5a                	jno    d558 <nimAddCharV1+0x148>
    d4fe:	e8 3d c3 ff ff       	call   9840 <raiseOverflow>
    d503:	4c 8b 65 08          	mov    r12,QWORD PTR [rbp+0x8]
    d507:	48 8b 55 00          	mov    rdx,QWORD PTR [rbp+0x0]
    d50b:	45 88 6c 14 08       	mov    BYTE PTR [r12+rdx*1+0x8],r13b
    d510:	48 8b 45 00          	mov    rax,QWORD PTR [rbp+0x0]
    d514:	48 83 c0 01          	add    rax,0x1
    d518:	70 26                	jo     d540 <nimAddCharV1+0x130>
    d51a:	48 8b 55 08          	mov    rdx,QWORD PTR [rbp+0x8]
    d51e:	c6 44 02 08 00       	mov    BYTE PTR [rdx+rax*1+0x8],0x0
    d523:	48 8b 45 00          	mov    rax,QWORD PTR [rbp+0x0]
    d527:	48 83 c0 01          	add    rax,0x1
    d52b:	70 13                	jo     d540 <nimAddCharV1+0x130>
    d52d:	48 89 45 00          	mov    QWORD PTR [rbp+0x0],rax
    d531:	48 83 c4 18          	add    rsp,0x18
    d535:	5b                   	pop    rbx
    d536:	5d                   	pop    rbp
    d537:	41 5c                	pop    r12
    d539:	41 5d                	pop    r13
    d53b:	41 5e                	pop    r14
    d53d:	41 5f                	pop    r15
    d53f:	c3                   	ret    
    d540:	48 83 c4 18          	add    rsp,0x18
    d544:	5b                   	pop    rbx
    d545:	5d                   	pop    rbp
    d546:	41 5c                	pop    r12
    d548:	41 5d                	pop    r13
    d54a:	41 5e                	pop    r14
    d54c:	41 5f                	pop    r15
    d54e:	e9 ed c2 ff ff       	jmp    9840 <raiseOverflow>
    d553:	0f 1f 44 00 00       	nop    DWORD PTR [rax+rax*1+0x0]
    d558:	48 83 c2 01          	add    rdx,0x1
    d55c:	70 a0                	jo     d4fe <nimAddCharV1+0xee>
    d55e:	48 89 d3             	mov    rbx,rdx
    d561:	48 83 c3 08          	add    rbx,0x8
    d565:	70 97                	jo     d4fe <nimAddCharV1+0xee>
    d567:	48 85 db             	test   rbx,rbx
    d56a:	78 4c                	js     d5b8 <nimAddCharV1+0x1a8>
    d56c:	48 8d 3d 0d 4b 20 00 	lea    rdi,[rip+0x204b0d]        # 212080 <allocator__Het9ctRSeaVb4hPekZZNCJQ>
    d573:	48 89 de             	mov    rsi,rbx
    d576:	e8 d5 83 ff ff       	call   5950 <rawAlloc__mE4QEVyMvGRVliDWDngZCQ>
    d57b:	31 f6                	xor    esi,esi
    d57d:	48 89 da             	mov    rdx,rbx
    d580:	48 89 c7             	mov    rdi,rax
    d583:	e8 f8 33 ff ff       	call   980 <memset@plt>
    d588:	48 89 c1             	mov    rcx,rax
    d58b:	48 89 45 08          	mov    QWORD PTR [rbp+0x8],rax
    d58f:	48 8b 45 00          	mov    rax,QWORD PTR [rbp+0x0]
    d593:	48 83 c0 01          	add    rax,0x1
    d597:	0f 80 61 ff ff ff    	jo     d4fe <nimAddCharV1+0xee>
    d59d:	48 89 01             	mov    QWORD PTR [rcx],rax
    d5a0:	48 8b 55 00          	mov    rdx,QWORD PTR [rbp+0x0]
    d5a4:	48 85 d2             	test   rdx,rdx
    d5a7:	7f 67                	jg     d610 <nimAddCharV1+0x200>
    d5a9:	4c 8b 65 08          	mov    r12,QWORD PTR [rbp+0x8]
    d5ad:	e9 59 ff ff ff       	jmp    d50b <nimAddCharV1+0xfb>
    d5b2:	66 0f 1f 44 00 00    	nop    WORD PTR [rax+rax*1+0x0]
    d5b8:	48 ba ff ff ff ff ff 	movabs rdx,0x7fffffffffffffff
    d5bf:	ff ff 7f 
    d5c2:	31 f6                	xor    esi,esi
    d5c4:	48 89 df             	mov    rdi,rbx
    d5c7:	e8 14 ba ff ff       	call   8fe0 <raiseRangeErrorI>
    d5cc:	4c 8b 65 08          	mov    r12,QWORD PTR [rbp+0x8]
    d5d0:	48 8b 55 00          	mov    rdx,QWORD PTR [rbp+0x0]
    d5d4:	e9 32 ff ff ff       	jmp    d50b <nimAddCharV1+0xfb>
    d5d9:	0f 1f 80 00 00 00 00 	nop    DWORD PTR [rax+0x0]
    d5e0:	b9 04 00 00 00       	mov    ecx,0x4
    d5e5:	e9 9d fe ff ff       	jmp    d487 <nimAddCharV1+0x77>
    d5ea:	66 0f 1f 44 00 00    	nop    WORD PTR [rax+rax*1+0x0]
    d5f0:	48 ba ff ff ff ff ff 	movabs rdx,0x7fffffffffffffff
    d5f7:	ff ff 7f 
    d5fa:	31 f6                	xor    esi,esi
    d5fc:	e8 df b9 ff ff       	call   8fe0 <raiseRangeErrorI>
    d601:	4c 8b 65 08          	mov    r12,QWORD PTR [rbp+0x8]
    d605:	48 8b 55 00          	mov    rdx,QWORD PTR [rbp+0x0]
    d609:	e9 fd fe ff ff       	jmp    d50b <nimAddCharV1+0xfb>
    d60e:	66 90                	xchg   ax,ax
    d610:	48 8b 45 08          	mov    rax,QWORD PTR [rbp+0x8]
    d614:	49 8d 74 24 08       	lea    rsi,[r12+0x8]
    d619:	48 8d 78 08          	lea    rdi,[rax+0x8]
    d61d:	e8 9e 33 ff ff       	call   9c0 <memcpy@plt>
    d622:	4c 8b 65 08          	mov    r12,QWORD PTR [rbp+0x8]
    d626:	48 8b 55 00          	mov    rdx,QWORD PTR [rbp+0x0]
    d62a:	e9 dc fe ff ff       	jmp    d50b <nimAddCharV1+0xfb>
    d62f:	90                   	nop
    d630:	48 6b d0 03          	imul   rdx,rax,0x3
    d634:	0f 80 a2 00 00 00    	jo     d6dc <nimAddCharV1+0x2cc>
    d63a:	48 89 d1             	mov    rcx,rdx
    d63d:	48 c1 e9 3f          	shr    rcx,0x3f
    d641:	48 01 d1             	add    rcx,rdx
    d644:	48 d1 f9             	sar    rcx,1
    d647:	e9 3b fe ff ff       	jmp    d487 <nimAddCharV1+0x77>
    d64c:	48 89 fe             	mov    rsi,rdi
    d64f:	48 8d 3d 2a 4a 20 00 	lea    rdi,[rip+0x204a2a]        # 212080 <allocator__Het9ctRSeaVb4hPekZZNCJQ>
    d656:	e8 f5 82 ff ff       	call   5950 <rawAlloc__mE4QEVyMvGRVliDWDngZCQ>
    d65b:	4d 85 ff             	test   r15,r15
    d65e:	48 89 c1             	mov    rcx,rax
    d661:	74 47                	je     d6aa <nimAddCharV1+0x29a>
    d663:	4c 89 f8             	mov    rax,r15
    d666:	48 89 cf             	mov    rdi,rcx
    d669:	4c 89 fe             	mov    rsi,r15
    d66c:	48 25 00 f0 ff ff    	and    rax,0xfffffffffffff000
    d672:	48 89 0c 24          	mov    QWORD PTR [rsp],rcx
    d676:	48 8b 40 08          	mov    rax,QWORD PTR [rax+0x8]
    d67a:	48 8d 50 e0          	lea    rdx,[rax-0x20]
    d67e:	48 3d c8 0f 00 00    	cmp    rax,0xfc8
    d684:	48 0f 4f c2          	cmovg  rax,rdx
    d688:	49 39 c4             	cmp    r12,rax
    d68b:	49 0f 4e c4          	cmovle rax,r12
    d68f:	48 89 c2             	mov    rdx,rax
    d692:	e8 29 33 ff ff       	call   9c0 <memcpy@plt>
    d697:	48 8d 3d e2 49 20 00 	lea    rdi,[rip+0x2049e2]        # 212080 <allocator__Het9ctRSeaVb4hPekZZNCJQ>
    d69e:	4c 89 fe             	mov    rsi,r15
    d6a1:	e8 da 4a ff ff       	call   2180 <rawDealloc__K7uQ6aTKvW6OnOV8EMoNNQ>
    d6a6:	48 8b 0c 24          	mov    rcx,QWORD PTR [rsp]
    d6aa:	4c 39 e3             	cmp    rbx,r12
    d6ad:	7d 19                	jge    d6c8 <nimAddCharV1+0x2b8>
    d6af:	48 8d 3c 19          	lea    rdi,[rcx+rbx*1]
    d6b3:	4c 89 e2             	mov    rdx,r12
    d6b6:	31 f6                	xor    esi,esi
    d6b8:	48 29 da             	sub    rdx,rbx
    d6bb:	48 89 0c 24          	mov    QWORD PTR [rsp],rcx
    d6bf:	e8 bc 32 ff ff       	call   980 <memset@plt>
    d6c4:	48 8b 0c 24          	mov    rcx,QWORD PTR [rsp]
    d6c8:	48 89 4d 08          	mov    QWORD PTR [rbp+0x8],rcx
    d6cc:	4c 89 31             	mov    QWORD PTR [rcx],r14
    d6cf:	4c 8b 65 08          	mov    r12,QWORD PTR [rbp+0x8]
    d6d3:	48 8b 55 00          	mov    rdx,QWORD PTR [rbp+0x0]
    d6d7:	e9 2f fe ff ff       	jmp    d50b <nimAddCharV1+0xfb>
    d6dc:	48 89 4c 24 08       	mov    QWORD PTR [rsp+0x8],rcx
    d6e1:	48 89 04 24          	mov    QWORD PTR [rsp],rax
    d6e5:	e8 56 c1 ff ff       	call   9840 <raiseOverflow>
    d6ea:	48 8b 04 24          	mov    rax,QWORD PTR [rsp]
    d6ee:	48 8b 4c 24 08       	mov    rcx,QWORD PTR [rsp+0x8]
    d6f3:	e9 8f fd ff ff       	jmp    d487 <nimAddCharV1+0x77>
    d6f8:	0f 1f 84 00 00 00 00 	nop    DWORD PTR [rax+rax*1+0x0]
    d6ff:	00 

000000000000d700 <add__8FwY5enLGB0dFerO6Ny9caw>:
    d700:	48 85 f6             	test   rsi,rsi
    d703:	0f 84 d7 02 00 00    	je     d9e0 <add__8FwY5enLGB0dFerO6Ny9caw+0x2e0>
    d709:	41 57                	push   r15
    d70b:	41 56                	push   r14
    d70d:	41 55                	push   r13
    d70f:	41 54                	push   r12
    d711:	55                   	push   rbp
    d712:	53                   	push   rbx
    d713:	48 83 ec 28          	sub    rsp,0x28
    d717:	44 0f b6 2e          	movzx  r13d,BYTE PTR [rsi]
    d71b:	45 84 ed             	test   r13b,r13b
    d71e:	0f 84 f9 01 00 00    	je     d91d <add__8FwY5enLGB0dFerO6Ny9caw+0x21d>
    d724:	48 8d 5e 01          	lea    rbx,[rsi+0x1]
    d728:	49 89 ff             	mov    r15,rdi
    d72b:	48 bd 00 00 00 00 00 	movabs rbp,0x4000000000000000
    d732:	00 00 40 
    d735:	49 bc ff ff ff ff ff 	movabs r12,0xbfffffffffffffff
    d73c:	ff ff bf 
    d73f:	90                   	nop
    d740:	49 8b 4f 08          	mov    rcx,QWORD PTR [r15+0x8]
    d744:	49 8b 17             	mov    rdx,QWORD PTR [r15]
    d747:	48 85 c9             	test   rcx,rcx
    d74a:	0f 84 e0 01 00 00    	je     d930 <add__8FwY5enLGB0dFerO6Ny9caw+0x230>
    d750:	48 8b 01             	mov    rax,QWORD PTR [rcx]
    d753:	48 89 c6             	mov    rsi,rax
    d756:	48 21 ee             	and    rsi,rbp
    d759:	0f 85 d1 01 00 00    	jne    d930 <add__8FwY5enLGB0dFerO6Ny9caw+0x230>
    d75f:	48 89 d7             	mov    rdi,rdx
    d762:	48 83 c7 01          	add    rdi,0x1
    d766:	0f 80 0e 02 00 00    	jo     d97a <add__8FwY5enLGB0dFerO6Ny9caw+0x27a>
    d76c:	4c 21 e0             	and    rax,r12
    d76f:	48 39 f8             	cmp    rax,rdi
    d772:	0f 8d 68 01 00 00    	jge    d8e0 <add__8FwY5enLGB0dFerO6Ny9caw+0x1e0>
    d778:	48 85 c0             	test   rax,rax
    d77b:	0f 8e 4f 02 00 00    	jle    d9d0 <add__8FwY5enLGB0dFerO6Ny9caw+0x2d0>
    d781:	48 3d ff ff 00 00    	cmp    rax,0xffff
    d787:	0f 8f 83 02 00 00    	jg     da10 <add__8FwY5enLGB0dFerO6Ny9caw+0x310>
    d78d:	48 8d 34 00          	lea    rsi,[rax+rax*1]
    d791:	48 83 c0 01          	add    rax,0x1
    d795:	0f 80 df 01 00 00    	jo     d97a <add__8FwY5enLGB0dFerO6Ny9caw+0x27a>
    d79b:	48 83 c0 08          	add    rax,0x8
    d79f:	49 89 c6             	mov    r14,rax
    d7a2:	0f 80 d2 01 00 00    	jo     d97a <add__8FwY5enLGB0dFerO6Ny9caw+0x27a>
    d7a8:	48 85 c0             	test   rax,rax
    d7ab:	0f 88 ff 01 00 00    	js     d9b0 <add__8FwY5enLGB0dFerO6Ny9caw+0x2b0>
    d7b1:	48 39 f7             	cmp    rdi,rsi
    d7b4:	48 89 f1             	mov    rcx,rsi
    d7b7:	48 0f 4d cf          	cmovge rcx,rdi
    d7bb:	48 89 cf             	mov    rdi,rcx
    d7be:	48 83 c7 01          	add    rdi,0x1
    d7c2:	0f 80 b2 01 00 00    	jo     d97a <add__8FwY5enLGB0dFerO6Ny9caw+0x27a>
    d7c8:	48 83 c7 08          	add    rdi,0x8
    d7cc:	0f 80 a8 01 00 00    	jo     d97a <add__8FwY5enLGB0dFerO6Ny9caw+0x27a>
    d7d2:	48 85 ff             	test   rdi,rdi
    d7d5:	0f 88 55 02 00 00    	js     da30 <add__8FwY5enLGB0dFerO6Ny9caw+0x330>
    d7db:	48 89 0c 24          	mov    QWORD PTR [rsp],rcx
    d7df:	4d 8b 5f 08          	mov    r11,QWORD PTR [r15+0x8]
    d7e3:	75 2a                	jne    d80f <add__8FwY5enLGB0dFerO6Ny9caw+0x10f>
    d7e5:	4d 85 db             	test   r11,r11
    d7e8:	74 0f                	je     d7f9 <add__8FwY5enLGB0dFerO6Ny9caw+0xf9>
    d7ea:	48 8d 3d 8f 48 20 00 	lea    rdi,[rip+0x20488f]        # 212080 <allocator__Het9ctRSeaVb4hPekZZNCJQ>
    d7f1:	4c 89 de             	mov    rsi,r11
    d7f4:	e8 87 49 ff ff       	call   2180 <rawDealloc__K7uQ6aTKvW6OnOV8EMoNNQ>
    d7f9:	49 c7 47 08 00 00 00 	mov    QWORD PTR [r15+0x8],0x0
    d800:	00 
    d801:	48 c7 04 25 00 00 00 	mov    QWORD PTR ds:0x0,0x0
    d808:	00 00 00 00 00 
    d80d:	0f 0b                	ud2    
    d80f:	48 89 fe             	mov    rsi,rdi
    d812:	48 89 7c 24 08       	mov    QWORD PTR [rsp+0x8],rdi
    d817:	48 8d 3d 62 48 20 00 	lea    rdi,[rip+0x204862]        # 212080 <allocator__Het9ctRSeaVb4hPekZZNCJQ>
    d81e:	4c 89 5c 24 10       	mov    QWORD PTR [rsp+0x10],r11
    d823:	e8 28 81 ff ff       	call   5950 <rawAlloc__mE4QEVyMvGRVliDWDngZCQ>
    d828:	4c 8b 5c 24 10       	mov    r11,QWORD PTR [rsp+0x10]
    d82d:	49 89 c2             	mov    r10,rax
    d830:	4c 8b 4c 24 08       	mov    r9,QWORD PTR [rsp+0x8]
    d835:	48 8b 0c 24          	mov    rcx,QWORD PTR [rsp]
    d839:	4d 85 db             	test   r11,r11
    d83c:	74 65                	je     d8a3 <add__8FwY5enLGB0dFerO6Ny9caw+0x1a3>
    d83e:	4c 89 d8             	mov    rax,r11
    d841:	4c 89 d7             	mov    rdi,r10
    d844:	4c 89 de             	mov    rsi,r11
    d847:	48 25 00 f0 ff ff    	and    rax,0xfffffffffffff000
    d84d:	48 89 4c 24 18       	mov    QWORD PTR [rsp+0x18],rcx
    d852:	4c 89 4c 24 10       	mov    QWORD PTR [rsp+0x10],r9
    d857:	48 8b 40 08          	mov    rax,QWORD PTR [rax+0x8]
    d85b:	4c 89 14 24          	mov    QWORD PTR [rsp],r10
    d85f:	4c 89 5c 24 08       	mov    QWORD PTR [rsp+0x8],r11
    d864:	48 8d 50 e0          	lea    rdx,[rax-0x20]
    d868:	48 3d c8 0f 00 00    	cmp    rax,0xfc8
    d86e:	48 0f 4f c2          	cmovg  rax,rdx
    d872:	49 39 c1             	cmp    r9,rax
    d875:	49 0f 4e c1          	cmovle rax,r9
    d879:	48 89 c2             	mov    rdx,rax
    d87c:	e8 3f 31 ff ff       	call   9c0 <memcpy@plt>
    d881:	4c 8b 5c 24 08       	mov    r11,QWORD PTR [rsp+0x8]
    d886:	48 8d 3d f3 47 20 00 	lea    rdi,[rip+0x2047f3]        # 212080 <allocator__Het9ctRSeaVb4hPekZZNCJQ>
    d88d:	4c 89 de             	mov    rsi,r11
    d890:	e8 eb 48 ff ff       	call   2180 <rawDealloc__K7uQ6aTKvW6OnOV8EMoNNQ>
    d895:	4c 8b 14 24          	mov    r10,QWORD PTR [rsp]
    d899:	4c 8b 4c 24 10       	mov    r9,QWORD PTR [rsp+0x10]
    d89e:	48 8b 4c 24 18       	mov    rcx,QWORD PTR [rsp+0x18]
    d8a3:	4d 39 ce             	cmp    r14,r9
    d8a6:	7d 23                	jge    d8cb <add__8FwY5enLGB0dFerO6Ny9caw+0x1cb>
    d8a8:	4c 89 ca             	mov    rdx,r9
    d8ab:	4b 8d 3c 32          	lea    rdi,[r10+r14*1]
    d8af:	31 f6                	xor    esi,esi
    d8b1:	4c 29 f2             	sub    rdx,r14
    d8b4:	48 89 4c 24 08       	mov    QWORD PTR [rsp+0x8],rcx
    d8b9:	4c 89 14 24          	mov    QWORD PTR [rsp],r10
    d8bd:	e8 be 30 ff ff       	call   980 <memset@plt>
    d8c2:	48 8b 4c 24 08       	mov    rcx,QWORD PTR [rsp+0x8]
    d8c7:	4c 8b 14 24          	mov    r10,QWORD PTR [rsp]
    d8cb:	4d 89 57 08          	mov    QWORD PTR [r15+0x8],r10
    d8cf:	49 89 0a             	mov    QWORD PTR [r10],rcx
    d8d2:	49 8b 4f 08          	mov    rcx,QWORD PTR [r15+0x8]
    d8d6:	49 8b 17             	mov    rdx,QWORD PTR [r15]
    d8d9:	0f 1f 80 00 00 00 00 	nop    DWORD PTR [rax+0x0]
    d8e0:	44 88 6c 11 08       	mov    BYTE PTR [rcx+rdx*1+0x8],r13b
    d8e5:	49 8b 07             	mov    rax,QWORD PTR [r15]
    d8e8:	48 83 c0 01          	add    rax,0x1
    d8ec:	0f 80 99 00 00 00    	jo     d98b <add__8FwY5enLGB0dFerO6Ny9caw+0x28b>
    d8f2:	49 8b 57 08          	mov    rdx,QWORD PTR [r15+0x8]
    d8f6:	c6 44 02 08 00       	mov    BYTE PTR [rdx+rax*1+0x8],0x0
    d8fb:	49 8b 07             	mov    rax,QWORD PTR [r15]
    d8fe:	48 83 c0 01          	add    rax,0x1
    d902:	0f 80 83 00 00 00    	jo     d98b <add__8FwY5enLGB0dFerO6Ny9caw+0x28b>
    d908:	49 89 07             	mov    QWORD PTR [r15],rax
    d90b:	48 83 c3 01          	add    rbx,0x1
    d90f:	44 0f b6 6b ff       	movzx  r13d,BYTE PTR [rbx-0x1]
    d914:	45 84 ed             	test   r13b,r13b
    d917:	0f 85 23 fe ff ff    	jne    d740 <add__8FwY5enLGB0dFerO6Ny9caw+0x40>
    d91d:	48 83 c4 28          	add    rsp,0x28
    d921:	5b                   	pop    rbx
    d922:	5d                   	pop    rbp
    d923:	41 5c                	pop    r12
    d925:	41 5d                	pop    r13
    d927:	41 5e                	pop    r14
    d929:	41 5f                	pop    r15
    d92b:	c3                   	ret    
    d92c:	0f 1f 40 00          	nop    DWORD PTR [rax+0x0]
    d930:	48 83 c2 01          	add    rdx,0x1
    d934:	70 44                	jo     d97a <add__8FwY5enLGB0dFerO6Ny9caw+0x27a>
    d936:	48 83 c2 01          	add    rdx,0x1
    d93a:	70 3e                	jo     d97a <add__8FwY5enLGB0dFerO6Ny9caw+0x27a>
    d93c:	48 83 c2 08          	add    rdx,0x8
    d940:	49 89 d6             	mov    r14,rdx
    d943:	70 35                	jo     d97a <add__8FwY5enLGB0dFerO6Ny9caw+0x27a>
    d945:	48 85 d2             	test   rdx,rdx
    d948:	78 66                	js     d9b0 <add__8FwY5enLGB0dFerO6Ny9caw+0x2b0>
    d94a:	48 8d 3d 2f 47 20 00 	lea    rdi,[rip+0x20472f]        # 212080 <allocator__Het9ctRSeaVb4hPekZZNCJQ>
    d951:	48 89 d6             	mov    rsi,rdx
    d954:	48 89 0c 24          	mov    QWORD PTR [rsp],rcx
    d958:	e8 f3 7f ff ff       	call   5950 <rawAlloc__mE4QEVyMvGRVliDWDngZCQ>
    d95d:	31 f6                	xor    esi,esi
    d95f:	4c 89 f2             	mov    rdx,r14
    d962:	48 89 c7             	mov    rdi,rax
    d965:	e8 16 30 ff ff       	call   980 <memset@plt>
    d96a:	49 89 c1             	mov    r9,rax
    d96d:	49 89 47 08          	mov    QWORD PTR [r15+0x8],rax
    d971:	49 8b 07             	mov    rax,QWORD PTR [r15]
    d974:	48 83 c0 01          	add    rax,0x1
    d978:	71 1e                	jno    d998 <add__8FwY5enLGB0dFerO6Ny9caw+0x298>
    d97a:	e8 c1 be ff ff       	call   9840 <raiseOverflow>
    d97f:	49 8b 4f 08          	mov    rcx,QWORD PTR [r15+0x8]
    d983:	49 8b 17             	mov    rdx,QWORD PTR [r15]
    d986:	e9 55 ff ff ff       	jmp    d8e0 <add__8FwY5enLGB0dFerO6Ny9caw+0x1e0>
    d98b:	e8 b0 be ff ff       	call   9840 <raiseOverflow>
    d990:	e9 76 ff ff ff       	jmp    d90b <add__8FwY5enLGB0dFerO6Ny9caw+0x20b>
    d995:	0f 1f 00             	nop    DWORD PTR [rax]
    d998:	49 89 01             	mov    QWORD PTR [r9],rax
    d99b:	49 8b 17             	mov    rdx,QWORD PTR [r15]
    d99e:	48 85 d2             	test   rdx,rdx
    d9a1:	7f 45                	jg     d9e8 <add__8FwY5enLGB0dFerO6Ny9caw+0x2e8>
    d9a3:	49 8b 4f 08          	mov    rcx,QWORD PTR [r15+0x8]
    d9a7:	e9 34 ff ff ff       	jmp    d8e0 <add__8FwY5enLGB0dFerO6Ny9caw+0x1e0>
    d9ac:	0f 1f 40 00          	nop    DWORD PTR [rax+0x0]
    d9b0:	48 ba ff ff ff ff ff 	movabs rdx,0x7fffffffffffffff
    d9b7:	ff ff 7f 
    d9ba:	31 f6                	xor    esi,esi
    d9bc:	4c 89 f7             	mov    rdi,r14
    d9bf:	e8 1c b6 ff ff       	call   8fe0 <raiseRangeErrorI>
    d9c4:	49 8b 4f 08          	mov    rcx,QWORD PTR [r15+0x8]
    d9c8:	49 8b 17             	mov    rdx,QWORD PTR [r15]
    d9cb:	e9 10 ff ff ff       	jmp    d8e0 <add__8FwY5enLGB0dFerO6Ny9caw+0x1e0>
    d9d0:	be 04 00 00 00       	mov    esi,0x4
    d9d5:	e9 b7 fd ff ff       	jmp    d791 <add__8FwY5enLGB0dFerO6Ny9caw+0x91>
    d9da:	66 0f 1f 44 00 00    	nop    WORD PTR [rax+rax*1+0x0]
    d9e0:	f3 c3                	repz ret 
    d9e2:	66 0f 1f 44 00 00    	nop    WORD PTR [rax+rax*1+0x0]
    d9e8:	48 8b 0c 24          	mov    rcx,QWORD PTR [rsp]
    d9ec:	49 8b 47 08          	mov    rax,QWORD PTR [r15+0x8]
    d9f0:	48 8d 71 08          	lea    rsi,[rcx+0x8]
    d9f4:	48 8d 78 08          	lea    rdi,[rax+0x8]
    d9f8:	e8 c3 2f ff ff       	call   9c0 <memcpy@plt>
    d9fd:	49 8b 4f 08          	mov    rcx,QWORD PTR [r15+0x8]
    da01:	49 8b 17             	mov    rdx,QWORD PTR [r15]
    da04:	e9 d7 fe ff ff       	jmp    d8e0 <add__8FwY5enLGB0dFerO6Ny9caw+0x1e0>
    da09:	0f 1f 80 00 00 00 00 	nop    DWORD PTR [rax+0x0]
    da10:	48 6b d0 03          	imul   rdx,rax,0x3
    da14:	70 37                	jo     da4d <add__8FwY5enLGB0dFerO6Ny9caw+0x34d>
    da16:	48 89 d6             	mov    rsi,rdx
    da19:	48 c1 ee 3f          	shr    rsi,0x3f
    da1d:	48 01 d6             	add    rsi,rdx
    da20:	48 d1 fe             	sar    rsi,1
    da23:	e9 69 fd ff ff       	jmp    d791 <add__8FwY5enLGB0dFerO6Ny9caw+0x91>
    da28:	0f 1f 84 00 00 00 00 	nop    DWORD PTR [rax+rax*1+0x0]
    da2f:	00 
    da30:	48 ba ff ff ff ff ff 	movabs rdx,0x7fffffffffffffff
    da37:	ff ff 7f 
    da3a:	31 f6                	xor    esi,esi
    da3c:	e8 9f b5 ff ff       	call   8fe0 <raiseRangeErrorI>
    da41:	49 8b 4f 08          	mov    rcx,QWORD PTR [r15+0x8]
    da45:	49 8b 17             	mov    rdx,QWORD PTR [r15]
    da48:	e9 93 fe ff ff       	jmp    d8e0 <add__8FwY5enLGB0dFerO6Ny9caw+0x1e0>
    da4d:	48 89 7c 24 10       	mov    QWORD PTR [rsp+0x10],rdi
    da52:	48 89 74 24 08       	mov    QWORD PTR [rsp+0x8],rsi
    da57:	48 89 04 24          	mov    QWORD PTR [rsp],rax
    da5b:	e8 e0 bd ff ff       	call   9840 <raiseOverflow>
    da60:	48 8b 04 24          	mov    rax,QWORD PTR [rsp]
    da64:	48 8b 74 24 08       	mov    rsi,QWORD PTR [rsp+0x8]
    da69:	48 8b 7c 24 10       	mov    rdi,QWORD PTR [rsp+0x10]
    da6e:	e9 1e fd ff ff       	jmp    d791 <add__8FwY5enLGB0dFerO6Ny9caw+0x91>
    da73:	0f 1f 00             	nop    DWORD PTR [rax]
    da76:	66 2e 0f 1f 84 00 00 	nop    WORD PTR cs:[rax+rax*1+0x0]
    da7d:	00 00 00 

000000000000da80 <dollar___qXwhltkA4r6d4Hcwmx9cN8A>:
    da80:	41 57                	push   r15
    da82:	41 56                	push   r14
    da84:	49 89 fe             	mov    r14,rdi
    da87:	41 55                	push   r13
    da89:	41 54                	push   r12
    da8b:	55                   	push   rbp
    da8c:	53                   	push   rbx
    da8d:	48 89 f5             	mov    rbp,rsi
    da90:	66 0f ef c0          	pxor   xmm0,xmm0
    da94:	be d9 07 00 00       	mov    esi,0x7d9
    da99:	48 81 ec 98 00 00 00 	sub    rsp,0x98
    daa0:	48 89 7c 24 08       	mov    QWORD PTR [rsp+0x8],rdi
    daa5:	4c 8d 7c 24 70       	lea    r15,[rsp+0x70]
    daaa:	48 8d 3d cf 45 20 00 	lea    rdi,[rip+0x2045cf]        # 212080 <allocator__Het9ctRSeaVb4hPekZZNCJQ>
    dab1:	64 48 8b 04 25 28 00 	mov    rax,QWORD PTR fs:0x28
    dab8:	00 00 
    daba:	48 89 84 24 88 00 00 	mov    QWORD PTR [rsp+0x88],rax
    dac1:	00 
    dac2:	31 c0                	xor    eax,eax
    dac4:	0f 29 44 24 70       	movaps XMMWORD PTR [rsp+0x70],xmm0
    dac9:	48 c7 44 24 50 00 00 	mov    QWORD PTR [rsp+0x50],0x0
    dad0:	00 00 
    dad2:	48 c7 44 24 58 00 00 	mov    QWORD PTR [rsp+0x58],0x0
    dad9:	00 00 
    dadb:	4c 89 7c 24 38       	mov    QWORD PTR [rsp+0x38],r15
    dae0:	e8 6b 7e ff ff       	call   5950 <rawAlloc__mE4QEVyMvGRVliDWDngZCQ>
    dae5:	48 8d 78 08          	lea    rdi,[rax+0x8]
    dae9:	48 89 c1             	mov    rcx,rax
    daec:	48 c7 80 d1 07 00 00 	mov    QWORD PTR [rax+0x7d1],0x0
    daf3:	00 00 00 00 
    daf7:	48 89 c3             	mov    rbx,rax
    dafa:	31 c0                	xor    eax,eax
    dafc:	48 83 e7 f8          	and    rdi,0xfffffffffffffff8
    db00:	48 29 f9             	sub    rcx,rdi
    db03:	81 c1 d9 07 00 00    	add    ecx,0x7d9
    db09:	c1 e9 03             	shr    ecx,0x3
    db0c:	f3 48 ab             	rep stos QWORD PTR es:[rdi],rax
    db0f:	48 c7 03 d0 07 00 00 	mov    QWORD PTR [rbx],0x7d0
    db16:	4c 89 ff             	mov    rdi,r15
    db19:	e8 82 b2 ff ff       	call   8da0 <chckNil>
    db1e:	4d 85 f6             	test   r14,r14
    db21:	48 c7 44 24 50 00 00 	mov    QWORD PTR [rsp+0x50],0x0
    db28:	00 00 
    db2a:	48 89 5c 24 58       	mov    QWORD PTR [rsp+0x58],rbx
    db2f:	0f 8e ff 05 00 00    	jle    e134 <dollar___qXwhltkA4r6d4Hcwmx9cN8A+0x6b4>
    db35:	48 83 c5 08          	add    rbp,0x8
    db39:	48 c7 44 24 18 00 00 	mov    QWORD PTR [rsp+0x18],0x0
    db40:	00 00 
    db42:	48 c7 44 24 30 00 00 	mov    QWORD PTR [rsp+0x30],0x0
    db49:	00 00 
    db4b:	48 c7 04 24 00 00 00 	mov    QWORD PTR [rsp],0x0
    db52:	00 
    db53:	48 bb 00 00 00 00 00 	movabs rbx,0x4000000000000000
    db5a:	00 00 40 
    db5d:	0f 1f 00             	nop    DWORD PTR [rax]
    db60:	48 8b 45 08          	mov    rax,QWORD PTR [rbp+0x8]
    db64:	48 83 f8 f6          	cmp    rax,0xfffffffffffffff6
    db68:	0f 84 92 08 00 00    	je     e400 <dollar___qXwhltkA4r6d4Hcwmx9cN8A+0x980>
    db6e:	48 83 f8 9c          	cmp    rax,0xffffffffffffff9c
    db72:	0f 84 98 06 00 00    	je     e210 <dollar___qXwhltkA4r6d4Hcwmx9cN8A+0x790>
    db78:	4c 8b 7d 10          	mov    r15,QWORD PTR [rbp+0x10]
    db7c:	48 8b 54 24 50       	mov    rdx,QWORD PTR [rsp+0x50]
    db81:	4d 85 ff             	test   r15,r15
    db84:	48 89 54 24 10       	mov    QWORD PTR [rsp+0x10],rdx
    db89:	0f 84 a5 01 00 00    	je     dd34 <dollar___qXwhltkA4r6d4Hcwmx9cN8A+0x2b4>
    db8f:	45 0f b6 27          	movzx  r12d,BYTE PTR [r15]
    db93:	45 84 e4             	test   r12b,r12b
    db96:	0f 84 98 01 00 00    	je     dd34 <dollar___qXwhltkA4r6d4Hcwmx9cN8A+0x2b4>
    db9c:	4c 8b 74 24 58       	mov    r14,QWORD PTR [rsp+0x58]
    dba1:	49 83 c7 01          	add    r15,0x1
    dba5:	4d 85 f6             	test   r14,r14
    dba8:	0f 84 04 01 00 00    	je     dcb2 <dollar___qXwhltkA4r6d4Hcwmx9cN8A+0x232>
    dbae:	66 90                	xchg   ax,ax
    dbb0:	49 8b 06             	mov    rax,QWORD PTR [r14]
    dbb3:	48 89 c1             	mov    rcx,rax
    dbb6:	48 21 d9             	and    rcx,rbx
    dbb9:	0f 85 f3 00 00 00    	jne    dcb2 <dollar___qXwhltkA4r6d4Hcwmx9cN8A+0x232>
    dbbf:	49 89 d5             	mov    r13,rdx
    dbc2:	49 83 c5 01          	add    r13,0x1
    dbc6:	0f 80 93 00 00 00    	jo     dc5f <dollar___qXwhltkA4r6d4Hcwmx9cN8A+0x1df>
    dbcc:	48 bf ff ff ff ff ff 	movabs rdi,0xbfffffffffffffff
    dbd3:	ff ff bf 
    dbd6:	48 21 f8             	and    rax,rdi
    dbd9:	4c 39 e8             	cmp    rax,r13
    dbdc:	0f 8d 7e 06 00 00    	jge    e260 <dollar___qXwhltkA4r6d4Hcwmx9cN8A+0x7e0>
    dbe2:	48 85 c0             	test   rax,rax
    dbe5:	0f 8e 85 08 00 00    	jle    e470 <dollar___qXwhltkA4r6d4Hcwmx9cN8A+0x9f0>
    dbeb:	48 3d ff ff 00 00    	cmp    rax,0xffff
    dbf1:	0f 8f 19 09 00 00    	jg     e510 <dollar___qXwhltkA4r6d4Hcwmx9cN8A+0xa90>
    dbf7:	48 8d 0c 00          	lea    rcx,[rax+rax*1]
    dbfb:	48 83 c0 01          	add    rax,0x1
    dbff:	70 5e                	jo     dc5f <dollar___qXwhltkA4r6d4Hcwmx9cN8A+0x1df>
    dc01:	48 83 c0 08          	add    rax,0x8
    dc05:	49 89 c6             	mov    r14,rax
    dc08:	70 55                	jo     dc5f <dollar___qXwhltkA4r6d4Hcwmx9cN8A+0x1df>
    dc0a:	48 85 c0             	test   rax,rax
    dc0d:	0f 88 16 0b 00 00    	js     e729 <dollar___qXwhltkA4r6d4Hcwmx9cN8A+0xca9>
    dc13:	49 39 cd             	cmp    r13,rcx
    dc16:	4c 0f 4c e9          	cmovl  r13,rcx
    dc1a:	4c 89 ef             	mov    rdi,r13
    dc1d:	48 83 c7 01          	add    rdi,0x1
    dc21:	70 3c                	jo     dc5f <dollar___qXwhltkA4r6d4Hcwmx9cN8A+0x1df>
    dc23:	48 83 c7 08          	add    rdi,0x8
    dc27:	70 36                	jo     dc5f <dollar___qXwhltkA4r6d4Hcwmx9cN8A+0x1df>
    dc29:	48 85 ff             	test   rdi,rdi
    dc2c:	0f 88 33 0b 00 00    	js     e765 <dollar___qXwhltkA4r6d4Hcwmx9cN8A+0xce5>
    dc32:	4c 8b 54 24 58       	mov    r10,QWORD PTR [rsp+0x58]
    dc37:	0f 85 37 0a 00 00    	jne    e674 <dollar___qXwhltkA4r6d4Hcwmx9cN8A+0xbf4>
    dc3d:	4d 85 d2             	test   r10,r10
    dc40:	74 0f                	je     dc51 <dollar___qXwhltkA4r6d4Hcwmx9cN8A+0x1d1>
    dc42:	48 8d 3d 37 44 20 00 	lea    rdi,[rip+0x204437]        # 212080 <allocator__Het9ctRSeaVb4hPekZZNCJQ>
    dc49:	4c 89 d6             	mov    rsi,r10
    dc4c:	e8 2f 45 ff ff       	call   2180 <rawDealloc__K7uQ6aTKvW6OnOV8EMoNNQ>
    dc51:	48 c7 04 25 00 00 00 	mov    QWORD PTR ds:0x0,0x0
    dc58:	00 00 00 00 00 
    dc5d:	0f 0b                	ud2    
    dc5f:	e8 dc bb ff ff       	call   9840 <raiseOverflow>
    dc64:	4c 8b 6c 24 50       	mov    r13,QWORD PTR [rsp+0x50]
    dc69:	48 8b 44 24 58       	mov    rax,QWORD PTR [rsp+0x58]
    dc6e:	46 88 64 28 08       	mov    BYTE PTR [rax+r13*1+0x8],r12b
    dc73:	49 83 c5 01          	add    r13,0x1
    dc77:	0f 80 28 0b 00 00    	jo     e7a5 <dollar___qXwhltkA4r6d4Hcwmx9cN8A+0xd25>
    dc7d:	48 8b 44 24 58       	mov    rax,QWORD PTR [rsp+0x58]
    dc82:	42 c6 44 28 08 00    	mov    BYTE PTR [rax+r13*1+0x8],0x0
    dc88:	4c 89 6c 24 50       	mov    QWORD PTR [rsp+0x50],r13
    dc8d:	49 83 c7 01          	add    r15,0x1
    dc91:	45 0f b6 67 ff       	movzx  r12d,BYTE PTR [r15-0x1]
    dc96:	45 84 e4             	test   r12b,r12b
    dc99:	0f 84 91 00 00 00    	je     dd30 <dollar___qXwhltkA4r6d4Hcwmx9cN8A+0x2b0>
    dc9f:	4c 8b 74 24 58       	mov    r14,QWORD PTR [rsp+0x58]
    dca4:	48 8b 54 24 50       	mov    rdx,QWORD PTR [rsp+0x50]
    dca9:	4d 85 f6             	test   r14,r14
    dcac:	0f 85 fe fe ff ff    	jne    dbb0 <dollar___qXwhltkA4r6d4Hcwmx9cN8A+0x130>
    dcb2:	48 83 c2 01          	add    rdx,0x1
    dcb6:	70 a7                	jo     dc5f <dollar___qXwhltkA4r6d4Hcwmx9cN8A+0x1df>
    dcb8:	48 83 c2 01          	add    rdx,0x1
    dcbc:	70 a1                	jo     dc5f <dollar___qXwhltkA4r6d4Hcwmx9cN8A+0x1df>
    dcbe:	48 83 c2 08          	add    rdx,0x8
    dcc2:	49 89 d5             	mov    r13,rdx
    dcc5:	70 98                	jo     dc5f <dollar___qXwhltkA4r6d4Hcwmx9cN8A+0x1df>
    dcc7:	48 85 d2             	test   rdx,rdx
    dcca:	0f 88 c0 07 00 00    	js     e490 <dollar___qXwhltkA4r6d4Hcwmx9cN8A+0xa10>
    dcd0:	48 8d 3d a9 43 20 00 	lea    rdi,[rip+0x2043a9]        # 212080 <allocator__Het9ctRSeaVb4hPekZZNCJQ>
    dcd7:	48 89 d6             	mov    rsi,rdx
    dcda:	e8 71 7c ff ff       	call   5950 <rawAlloc__mE4QEVyMvGRVliDWDngZCQ>
    dcdf:	31 f6                	xor    esi,esi
    dce1:	4c 89 ea             	mov    rdx,r13
    dce4:	48 89 c7             	mov    rdi,rax
    dce7:	e8 94 2c ff ff       	call   980 <memset@plt>
    dcec:	48 89 c1             	mov    rcx,rax
    dcef:	48 89 44 24 58       	mov    QWORD PTR [rsp+0x58],rax
    dcf4:	48 8b 44 24 50       	mov    rax,QWORD PTR [rsp+0x50]
    dcf9:	48 83 c0 01          	add    rax,0x1
    dcfd:	0f 80 5c ff ff ff    	jo     dc5f <dollar___qXwhltkA4r6d4Hcwmx9cN8A+0x1df>
    dd03:	48 89 01             	mov    QWORD PTR [rcx],rax
    dd06:	4c 8b 6c 24 50       	mov    r13,QWORD PTR [rsp+0x50]
    dd0b:	4d 85 ed             	test   r13,r13
    dd0e:	0f 8e 55 ff ff ff    	jle    dc69 <dollar___qXwhltkA4r6d4Hcwmx9cN8A+0x1e9>
    dd14:	48 8b 44 24 58       	mov    rax,QWORD PTR [rsp+0x58]
    dd19:	49 8d 76 08          	lea    rsi,[r14+0x8]
    dd1d:	4c 89 ea             	mov    rdx,r13
    dd20:	48 8d 78 08          	lea    rdi,[rax+0x8]
    dd24:	e8 97 2c ff ff       	call   9c0 <memcpy@plt>
    dd29:	e9 3b ff ff ff       	jmp    dc69 <dollar___qXwhltkA4r6d4Hcwmx9cN8A+0x1e9>
    dd2e:	66 90                	xchg   ax,ax
    dd30:	48 8b 45 08          	mov    rax,QWORD PTR [rbp+0x8]
    dd34:	48 85 c0             	test   rax,rax
    dd37:	0f 8f 33 05 00 00    	jg     e270 <dollar___qXwhltkA4r6d4Hcwmx9cN8A+0x7f0>
    dd3d:	48 8b 54 24 50       	mov    rdx,QWORD PTR [rsp+0x50]
    dd42:	4c 8b 64 24 10       	mov    r12,QWORD PTR [rsp+0x10]
    dd47:	4c 8b 74 24 58       	mov    r14,QWORD PTR [rsp+0x58]
    dd4c:	b8 01 00 00 00       	mov    eax,0x1
    dd51:	41 bf 01 00 00 00    	mov    r15d,0x1
    dd57:	49 29 d4             	sub    r12,rdx
    dd5a:	4d 8d 6c 24 19       	lea    r13,[r12+0x19]
    dd5f:	4d 85 ed             	test   r13,r13
    dd62:	4c 0f 4e e8          	cmovle r13,rax
    dd66:	4d 85 f6             	test   r14,r14
    dd69:	0f 84 08 01 00 00    	je     de77 <dollar___qXwhltkA4r6d4Hcwmx9cN8A+0x3f7>
    dd6f:	90                   	nop
    dd70:	49 8b 06             	mov    rax,QWORD PTR [r14]
    dd73:	48 89 c1             	mov    rcx,rax
    dd76:	48 21 d9             	and    rcx,rbx
    dd79:	0f 85 f8 00 00 00    	jne    de77 <dollar___qXwhltkA4r6d4Hcwmx9cN8A+0x3f7>
    dd7f:	49 89 d4             	mov    r12,rdx
    dd82:	49 83 c4 01          	add    r12,0x1
    dd86:	0f 80 9c 00 00 00    	jo     de28 <dollar___qXwhltkA4r6d4Hcwmx9cN8A+0x3a8>
    dd8c:	48 be ff ff ff ff ff 	movabs rsi,0xbfffffffffffffff
    dd93:	ff ff bf 
    dd96:	48 21 f0             	and    rax,rsi
    dd99:	4c 39 e0             	cmp    rax,r12
    dd9c:	0f 8d 5e 04 00 00    	jge    e200 <dollar___qXwhltkA4r6d4Hcwmx9cN8A+0x780>
    dda2:	48 85 c0             	test   rax,rax
    dda5:	0f 8e 45 06 00 00    	jle    e3f0 <dollar___qXwhltkA4r6d4Hcwmx9cN8A+0x970>
    ddab:	48 3d ff ff 00 00    	cmp    rax,0xffff
    ddb1:	0f 8f 31 07 00 00    	jg     e4e8 <dollar___qXwhltkA4r6d4Hcwmx9cN8A+0xa68>
    ddb7:	48 8d 0c 00          	lea    rcx,[rax+rax*1]
    ddbb:	48 83 c0 01          	add    rax,0x1
    ddbf:	70 67                	jo     de28 <dollar___qXwhltkA4r6d4Hcwmx9cN8A+0x3a8>
    ddc1:	48 83 c0 08          	add    rax,0x8
    ddc5:	49 89 c6             	mov    r14,rax
    ddc8:	70 5e                	jo     de28 <dollar___qXwhltkA4r6d4Hcwmx9cN8A+0x3a8>
    ddca:	48 85 c0             	test   rax,rax
    ddcd:	0f 88 9d 07 00 00    	js     e570 <dollar___qXwhltkA4r6d4Hcwmx9cN8A+0xaf0>
    ddd3:	49 39 cc             	cmp    r12,rcx
    ddd6:	4c 0f 4c e1          	cmovl  r12,rcx
    ddda:	4c 89 e7             	mov    rdi,r12
    dddd:	48 83 c7 01          	add    rdi,0x1
    dde1:	70 45                	jo     de28 <dollar___qXwhltkA4r6d4Hcwmx9cN8A+0x3a8>
    dde3:	48 83 c7 08          	add    rdi,0x8
    dde7:	70 3f                	jo     de28 <dollar___qXwhltkA4r6d4Hcwmx9cN8A+0x3a8>
    dde9:	48 85 ff             	test   rdi,rdi
    ddec:	0f 88 9e 07 00 00    	js     e590 <dollar___qXwhltkA4r6d4Hcwmx9cN8A+0xb10>
    ddf2:	4c 8b 4c 24 58       	mov    r9,QWORD PTR [rsp+0x58]
    ddf7:	0f 85 ae 07 00 00    	jne    e5ab <dollar___qXwhltkA4r6d4Hcwmx9cN8A+0xb2b>
    ddfd:	4d 85 c9             	test   r9,r9
    de00:	0f 84 4b fe ff ff    	je     dc51 <dollar___qXwhltkA4r6d4Hcwmx9cN8A+0x1d1>
    de06:	48 8d 3d 73 42 20 00 	lea    rdi,[rip+0x204273]        # 212080 <allocator__Het9ctRSeaVb4hPekZZNCJQ>
    de0d:	4c 89 ce             	mov    rsi,r9
    de10:	e8 6b 43 ff ff       	call   2180 <rawDealloc__K7uQ6aTKvW6OnOV8EMoNNQ>
    de15:	48 c7 04 25 00 00 00 	mov    QWORD PTR ds:0x0,0x0
    de1c:	00 00 00 00 00 
    de21:	0f 0b                	ud2    
    de23:	0f 1f 44 00 00       	nop    DWORD PTR [rax+rax*1+0x0]
    de28:	e8 13 ba ff ff       	call   9840 <raiseOverflow>
    de2d:	4c 8b 64 24 50       	mov    r12,QWORD PTR [rsp+0x50]
    de32:	48 8b 44 24 58       	mov    rax,QWORD PTR [rsp+0x58]
    de37:	42 c6 44 20 08 20    	mov    BYTE PTR [rax+r12*1+0x8],0x20
    de3d:	49 83 c4 01          	add    r12,0x1
    de41:	0f 80 54 09 00 00    	jo     e79b <dollar___qXwhltkA4r6d4Hcwmx9cN8A+0xd1b>
    de47:	48 8b 44 24 58       	mov    rax,QWORD PTR [rsp+0x58]
    de4c:	42 c6 44 20 08 00    	mov    BYTE PTR [rax+r12*1+0x8],0x0
    de52:	4c 89 64 24 50       	mov    QWORD PTR [rsp+0x50],r12
    de57:	49 83 c7 01          	add    r15,0x1
    de5b:	4d 39 fd             	cmp    r13,r15
    de5e:	0f 8c 94 00 00 00    	jl     def8 <dollar___qXwhltkA4r6d4Hcwmx9cN8A+0x478>
    de64:	4c 8b 74 24 58       	mov    r14,QWORD PTR [rsp+0x58]
    de69:	48 8b 54 24 50       	mov    rdx,QWORD PTR [rsp+0x50]
    de6e:	4d 85 f6             	test   r14,r14
    de71:	0f 85 f9 fe ff ff    	jne    dd70 <dollar___qXwhltkA4r6d4Hcwmx9cN8A+0x2f0>
    de77:	48 83 c2 01          	add    rdx,0x1
    de7b:	70 ab                	jo     de28 <dollar___qXwhltkA4r6d4Hcwmx9cN8A+0x3a8>
    de7d:	48 83 c2 01          	add    rdx,0x1
    de81:	70 a5                	jo     de28 <dollar___qXwhltkA4r6d4Hcwmx9cN8A+0x3a8>
    de83:	48 83 c2 08          	add    rdx,0x8
    de87:	49 89 d4             	mov    r12,rdx
    de8a:	70 9c                	jo     de28 <dollar___qXwhltkA4r6d4Hcwmx9cN8A+0x3a8>
    de8c:	48 85 d2             	test   rdx,rdx
    de8f:	0f 88 bb 05 00 00    	js     e450 <dollar___qXwhltkA4r6d4Hcwmx9cN8A+0x9d0>
    de95:	48 8d 3d e4 41 20 00 	lea    rdi,[rip+0x2041e4]        # 212080 <allocator__Het9ctRSeaVb4hPekZZNCJQ>
    de9c:	48 89 d6             	mov    rsi,rdx
    de9f:	e8 ac 7a ff ff       	call   5950 <rawAlloc__mE4QEVyMvGRVliDWDngZCQ>
    dea4:	31 f6                	xor    esi,esi
    dea6:	4c 89 e2             	mov    rdx,r12
    dea9:	48 89 c7             	mov    rdi,rax
    deac:	e8 cf 2a ff ff       	call   980 <memset@plt>
    deb1:	48 89 c1             	mov    rcx,rax
    deb4:	48 89 44 24 58       	mov    QWORD PTR [rsp+0x58],rax
    deb9:	48 8b 44 24 50       	mov    rax,QWORD PTR [rsp+0x50]
    debe:	48 83 c0 01          	add    rax,0x1
    dec2:	0f 80 60 ff ff ff    	jo     de28 <dollar___qXwhltkA4r6d4Hcwmx9cN8A+0x3a8>
    dec8:	48 89 01             	mov    QWORD PTR [rcx],rax
    decb:	4c 8b 64 24 50       	mov    r12,QWORD PTR [rsp+0x50]
    ded0:	4d 85 e4             	test   r12,r12
    ded3:	0f 8e 59 ff ff ff    	jle    de32 <dollar___qXwhltkA4r6d4Hcwmx9cN8A+0x3b2>
    ded9:	48 8b 44 24 58       	mov    rax,QWORD PTR [rsp+0x58]
    dede:	49 8d 76 08          	lea    rsi,[r14+0x8]
    dee2:	4c 89 e2             	mov    rdx,r12
    dee5:	48 8d 78 08          	lea    rdi,[rax+0x8]
    dee9:	e8 d2 2a ff ff       	call   9c0 <memcpy@plt>
    deee:	e9 3f ff ff ff       	jmp    de32 <dollar___qXwhltkA4r6d4Hcwmx9cN8A+0x3b2>
    def3:	0f 1f 44 00 00       	nop    DWORD PTR [rax+rax*1+0x0]
    def8:	4c 8b 75 00          	mov    r14,QWORD PTR [rbp+0x0]
    defc:	4d 85 f6             	test   r14,r14
    deff:	0f 84 c3 01 00 00    	je     e0c8 <dollar___qXwhltkA4r6d4Hcwmx9cN8A+0x648>
    df05:	45 0f b6 3e          	movzx  r15d,BYTE PTR [r14]
    df09:	45 84 ff             	test   r15b,r15b
    df0c:	0f 84 b6 01 00 00    	je     e0c8 <dollar___qXwhltkA4r6d4Hcwmx9cN8A+0x648>
    df12:	49 83 c6 01          	add    r14,0x1
    df16:	66 2e 0f 1f 84 00 00 	nop    WORD PTR cs:[rax+rax*1+0x0]
    df1d:	00 00 00 
    df20:	4c 8b 6c 24 58       	mov    r13,QWORD PTR [rsp+0x58]
    df25:	48 8b 54 24 50       	mov    rdx,QWORD PTR [rsp+0x50]
    df2a:	4d 85 ed             	test   r13,r13
    df2d:	0f 84 3d 02 00 00    	je     e170 <dollar___qXwhltkA4r6d4Hcwmx9cN8A+0x6f0>
    df33:	49 8b 45 00          	mov    rax,QWORD PTR [r13+0x0]
    df37:	48 89 c1             	mov    rcx,rax
    df3a:	48 21 d9             	and    rcx,rbx
    df3d:	0f 85 2d 02 00 00    	jne    e170 <dollar___qXwhltkA4r6d4Hcwmx9cN8A+0x6f0>
    df43:	49 89 d4             	mov    r12,rdx
    df46:	49 83 c4 01          	add    r12,0x1
    df4a:	0f 80 38 01 00 00    	jo     e088 <dollar___qXwhltkA4r6d4Hcwmx9cN8A+0x608>
    df50:	48 be ff ff ff ff ff 	movabs rsi,0xbfffffffffffffff
    df57:	ff ff bf 
    df5a:	48 21 f0             	and    rax,rsi
    df5d:	4c 39 e0             	cmp    rax,r12
    df60:	0f 8d ea 02 00 00    	jge    e250 <dollar___qXwhltkA4r6d4Hcwmx9cN8A+0x7d0>
    df66:	48 85 c0             	test   rax,rax
    df69:	0f 8e 11 05 00 00    	jle    e480 <dollar___qXwhltkA4r6d4Hcwmx9cN8A+0xa00>
    df6f:	48 3d ff ff 00 00    	cmp    rax,0xffff
    df75:	0f 8f b5 05 00 00    	jg     e530 <dollar___qXwhltkA4r6d4Hcwmx9cN8A+0xab0>
    df7b:	48 8d 0c 00          	lea    rcx,[rax+rax*1]
    df7f:	48 83 c0 01          	add    rax,0x1
    df83:	0f 80 ff 00 00 00    	jo     e088 <dollar___qXwhltkA4r6d4Hcwmx9cN8A+0x608>
    df89:	48 83 c0 08          	add    rax,0x8
    df8d:	49 89 c5             	mov    r13,rax
    df90:	0f 80 f2 00 00 00    	jo     e088 <dollar___qXwhltkA4r6d4Hcwmx9cN8A+0x608>
    df96:	48 85 c0             	test   rax,rax
    df99:	0f 88 a8 07 00 00    	js     e747 <dollar___qXwhltkA4r6d4Hcwmx9cN8A+0xcc7>
    df9f:	49 39 cc             	cmp    r12,rcx
    dfa2:	4c 0f 4c e1          	cmovl  r12,rcx
    dfa6:	4c 89 e7             	mov    rdi,r12
    dfa9:	48 83 c7 01          	add    rdi,0x1
    dfad:	0f 80 d5 00 00 00    	jo     e088 <dollar___qXwhltkA4r6d4Hcwmx9cN8A+0x608>
    dfb3:	48 83 c7 08          	add    rdi,0x8
    dfb7:	0f 80 cb 00 00 00    	jo     e088 <dollar___qXwhltkA4r6d4Hcwmx9cN8A+0x608>
    dfbd:	48 85 ff             	test   rdi,rdi
    dfc0:	0f 88 ba 07 00 00    	js     e780 <dollar___qXwhltkA4r6d4Hcwmx9cN8A+0xd00>
    dfc6:	4c 8b 4c 24 58       	mov    r9,QWORD PTR [rsp+0x58]
    dfcb:	0f 84 2c fe ff ff    	je     ddfd <dollar___qXwhltkA4r6d4Hcwmx9cN8A+0x37d>
    dfd1:	48 89 fe             	mov    rsi,rdi
    dfd4:	48 89 7c 24 10       	mov    QWORD PTR [rsp+0x10],rdi
    dfd9:	48 8d 3d a0 40 20 00 	lea    rdi,[rip+0x2040a0]        # 212080 <allocator__Het9ctRSeaVb4hPekZZNCJQ>
    dfe0:	4c 89 4c 24 20       	mov    QWORD PTR [rsp+0x20],r9
    dfe5:	e8 66 79 ff ff       	call   5950 <rawAlloc__mE4QEVyMvGRVliDWDngZCQ>
    dfea:	4c 8b 4c 24 20       	mov    r9,QWORD PTR [rsp+0x20]
    dfef:	49 89 c0             	mov    r8,rax
    dff2:	48 8b 4c 24 10       	mov    rcx,QWORD PTR [rsp+0x10]
    dff7:	4d 85 c9             	test   r9,r9
    dffa:	74 58                	je     e054 <dollar___qXwhltkA4r6d4Hcwmx9cN8A+0x5d4>
    dffc:	4c 89 c8             	mov    rax,r9
    dfff:	4c 89 c7             	mov    rdi,r8
    e002:	4c 89 ce             	mov    rsi,r9
    e005:	48 25 00 f0 ff ff    	and    rax,0xfffffffffffff000
    e00b:	48 89 4c 24 40       	mov    QWORD PTR [rsp+0x40],rcx
    e010:	4c 89 44 24 10       	mov    QWORD PTR [rsp+0x10],r8
    e015:	48 8b 40 08          	mov    rax,QWORD PTR [rax+0x8]
    e019:	48 8d 50 e0          	lea    rdx,[rax-0x20]
    e01d:	48 3d c8 0f 00 00    	cmp    rax,0xfc8
    e023:	48 0f 4f c2          	cmovg  rax,rdx
    e027:	48 39 c1             	cmp    rcx,rax
    e02a:	48 0f 4e c1          	cmovle rax,rcx
    e02e:	48 89 c2             	mov    rdx,rax
    e031:	e8 8a 29 ff ff       	call   9c0 <memcpy@plt>
    e036:	4c 8b 4c 24 20       	mov    r9,QWORD PTR [rsp+0x20]
    e03b:	48 8d 3d 3e 40 20 00 	lea    rdi,[rip+0x20403e]        # 212080 <allocator__Het9ctRSeaVb4hPekZZNCJQ>
    e042:	4c 89 ce             	mov    rsi,r9
    e045:	e8 36 41 ff ff       	call   2180 <rawDealloc__K7uQ6aTKvW6OnOV8EMoNNQ>
    e04a:	4c 8b 44 24 10       	mov    r8,QWORD PTR [rsp+0x10]
    e04f:	48 8b 4c 24 40       	mov    rcx,QWORD PTR [rsp+0x40]
    e054:	49 39 cd             	cmp    r13,rcx
    e057:	7d 1b                	jge    e074 <dollar___qXwhltkA4r6d4Hcwmx9cN8A+0x5f4>
    e059:	4c 29 e9             	sub    rcx,r13
    e05c:	4b 8d 3c 28          	lea    rdi,[r8+r13*1]
    e060:	31 f6                	xor    esi,esi
    e062:	48 89 ca             	mov    rdx,rcx
    e065:	4c 89 44 24 10       	mov    QWORD PTR [rsp+0x10],r8
    e06a:	e8 11 29 ff ff       	call   980 <memset@plt>
    e06f:	4c 8b 44 24 10       	mov    r8,QWORD PTR [rsp+0x10]
    e074:	4c 89 44 24 58       	mov    QWORD PTR [rsp+0x58],r8
    e079:	4d 89 20             	mov    QWORD PTR [r8],r12
    e07c:	4c 8b 64 24 50       	mov    r12,QWORD PTR [rsp+0x50]
    e081:	eb 0f                	jmp    e092 <dollar___qXwhltkA4r6d4Hcwmx9cN8A+0x612>
    e083:	0f 1f 44 00 00       	nop    DWORD PTR [rax+rax*1+0x0]
    e088:	e8 b3 b7 ff ff       	call   9840 <raiseOverflow>
    e08d:	4c 8b 64 24 50       	mov    r12,QWORD PTR [rsp+0x50]
    e092:	48 8b 44 24 58       	mov    rax,QWORD PTR [rsp+0x58]
    e097:	46 88 7c 20 08       	mov    BYTE PTR [rax+r12*1+0x8],r15b
    e09c:	49 83 c4 01          	add    r12,0x1
    e0a0:	0f 80 09 07 00 00    	jo     e7af <dollar___qXwhltkA4r6d4Hcwmx9cN8A+0xd2f>
    e0a6:	48 8b 44 24 58       	mov    rax,QWORD PTR [rsp+0x58]
    e0ab:	42 c6 44 20 08 00    	mov    BYTE PTR [rax+r12*1+0x8],0x0
    e0b1:	4c 89 64 24 50       	mov    QWORD PTR [rsp+0x50],r12
    e0b6:	49 83 c6 01          	add    r14,0x1
    e0ba:	45 0f b6 7e ff       	movzx  r15d,BYTE PTR [r14-0x1]
    e0bf:	45 84 ff             	test   r15b,r15b
    e0c2:	0f 85 58 fe ff ff    	jne    df20 <dollar___qXwhltkA4r6d4Hcwmx9cN8A+0x4a0>
    e0c8:	48 8d 7c 24 50       	lea    rdi,[rsp+0x50]
    e0cd:	be 01 00 00 00       	mov    esi,0x1
    e0d2:	e8 c9 be ff ff       	call   9fa0 <prepareAdd>
    e0d7:	48 8b 44 24 50       	mov    rax,QWORD PTR [rsp+0x50]
    e0dc:	48 8b 54 24 58       	mov    rdx,QWORD PTR [rsp+0x58]
    e0e1:	b9 0a 00 00 00       	mov    ecx,0xa
    e0e6:	66 89 4c 02 08       	mov    WORD PTR [rdx+rax*1+0x8],cx
    e0eb:	48 8b 44 24 50       	mov    rax,QWORD PTR [rsp+0x50]
    e0f0:	48 83 c0 01          	add    rax,0x1
    e0f4:	0f 80 46 01 00 00    	jo     e240 <dollar___qXwhltkA4r6d4Hcwmx9cN8A+0x7c0>
    e0fa:	48 89 44 24 50       	mov    QWORD PTR [rsp+0x50],rax
    e0ff:	48 83 04 24 01       	add    QWORD PTR [rsp],0x1
    e104:	48 83 c5 18          	add    rbp,0x18
    e108:	48 8b 04 24          	mov    rax,QWORD PTR [rsp]
    e10c:	48 39 44 24 08       	cmp    QWORD PTR [rsp+0x8],rax
    e111:	0f 85 49 fa ff ff    	jne    db60 <dollar___qXwhltkA4r6d4Hcwmx9cN8A+0xe0>
    e117:	48 8b 5c 24 18       	mov    rbx,QWORD PTR [rsp+0x18]
    e11c:	48 85 db             	test   rbx,rbx
    e11f:	74 13                	je     e134 <dollar___qXwhltkA4r6d4Hcwmx9cN8A+0x6b4>
    e121:	48 b8 00 00 00 00 00 	movabs rax,0x4000000000000000
    e128:	00 00 40 
    e12b:	48 85 03             	test   QWORD PTR [rbx],rax
    e12e:	0f 84 9c 03 00 00    	je     e4d0 <dollar___qXwhltkA4r6d4Hcwmx9cN8A+0xa50>
    e134:	48 8b 9c 24 88 00 00 	mov    rbx,QWORD PTR [rsp+0x88]
    e13b:	00 
    e13c:	64 48 33 1c 25 28 00 	xor    rbx,QWORD PTR fs:0x28
    e143:	00 00 
    e145:	48 8b 44 24 50       	mov    rax,QWORD PTR [rsp+0x50]
    e14a:	48 8b 54 24 58       	mov    rdx,QWORD PTR [rsp+0x58]
    e14f:	0f 85 82 06 00 00    	jne    e7d7 <dollar___qXwhltkA4r6d4Hcwmx9cN8A+0xd57>
    e155:	48 81 c4 98 00 00 00 	add    rsp,0x98
    e15c:	5b                   	pop    rbx
    e15d:	5d                   	pop    rbp
    e15e:	41 5c                	pop    r12
    e160:	41 5d                	pop    r13
    e162:	41 5e                	pop    r14
    e164:	41 5f                	pop    r15
    e166:	c3                   	ret    
    e167:	66 0f 1f 84 00 00 00 	nop    WORD PTR [rax+rax*1+0x0]
    e16e:	00 00 
    e170:	48 83 c2 01          	add    rdx,0x1
    e174:	0f 80 0e ff ff ff    	jo     e088 <dollar___qXwhltkA4r6d4Hcwmx9cN8A+0x608>
    e17a:	48 83 c2 01          	add    rdx,0x1
    e17e:	0f 80 04 ff ff ff    	jo     e088 <dollar___qXwhltkA4r6d4Hcwmx9cN8A+0x608>
    e184:	48 83 c2 08          	add    rdx,0x8
    e188:	49 89 d4             	mov    r12,rdx
    e18b:	0f 80 f7 fe ff ff    	jo     e088 <dollar___qXwhltkA4r6d4Hcwmx9cN8A+0x608>
    e191:	48 85 d2             	test   rdx,rdx
    e194:	0f 88 16 03 00 00    	js     e4b0 <dollar___qXwhltkA4r6d4Hcwmx9cN8A+0xa30>
    e19a:	48 8d 3d df 3e 20 00 	lea    rdi,[rip+0x203edf]        # 212080 <allocator__Het9ctRSeaVb4hPekZZNCJQ>
    e1a1:	48 89 d6             	mov    rsi,rdx
    e1a4:	e8 a7 77 ff ff       	call   5950 <rawAlloc__mE4QEVyMvGRVliDWDngZCQ>
    e1a9:	31 f6                	xor    esi,esi
    e1ab:	4c 89 e2             	mov    rdx,r12
    e1ae:	48 89 c7             	mov    rdi,rax
    e1b1:	e8 ca 27 ff ff       	call   980 <memset@plt>
    e1b6:	48 89 c1             	mov    rcx,rax
    e1b9:	48 89 44 24 58       	mov    QWORD PTR [rsp+0x58],rax
    e1be:	48 8b 44 24 50       	mov    rax,QWORD PTR [rsp+0x50]
    e1c3:	48 83 c0 01          	add    rax,0x1
    e1c7:	0f 80 bb fe ff ff    	jo     e088 <dollar___qXwhltkA4r6d4Hcwmx9cN8A+0x608>
    e1cd:	48 89 01             	mov    QWORD PTR [rcx],rax
    e1d0:	4c 8b 64 24 50       	mov    r12,QWORD PTR [rsp+0x50]
    e1d5:	4d 85 e4             	test   r12,r12
    e1d8:	0f 8e b4 fe ff ff    	jle    e092 <dollar___qXwhltkA4r6d4Hcwmx9cN8A+0x612>
    e1de:	48 8b 44 24 58       	mov    rax,QWORD PTR [rsp+0x58]
    e1e3:	49 8d 75 08          	lea    rsi,[r13+0x8]
    e1e7:	4c 89 e2             	mov    rdx,r12
    e1ea:	48 8d 78 08          	lea    rdi,[rax+0x8]
    e1ee:	e8 cd 27 ff ff       	call   9c0 <memcpy@plt>
    e1f3:	e9 9a fe ff ff       	jmp    e092 <dollar___qXwhltkA4r6d4Hcwmx9cN8A+0x612>
    e1f8:	0f 1f 84 00 00 00 00 	nop    DWORD PTR [rax+rax*1+0x0]
    e1ff:	00 
    e200:	41 c6 44 16 08 20    	mov    BYTE PTR [r14+rdx*1+0x8],0x20
    e206:	e9 3c fc ff ff       	jmp    de47 <dollar___qXwhltkA4r6d4Hcwmx9cN8A+0x3c7>
    e20b:	0f 1f 44 00 00       	nop    DWORD PTR [rax+rax*1+0x0]
    e210:	48 8d 7c 24 50       	lea    rdi,[rsp+0x50]
    e215:	be 03 00 00 00       	mov    esi,0x3
    e21a:	e8 81 bd ff ff       	call   9fa0 <prepareAdd>
    e21f:	48 8b 44 24 50       	mov    rax,QWORD PTR [rsp+0x50]
    e224:	48 8b 54 24 58       	mov    rdx,QWORD PTR [rsp+0x58]
    e229:	c7 44 02 08 5d 5d 0a 	mov    DWORD PTR [rdx+rax*1+0x8],0xa5d5d
    e230:	00 
    e231:	48 8b 44 24 50       	mov    rax,QWORD PTR [rsp+0x50]
    e236:	48 83 c0 03          	add    rax,0x3
    e23a:	0f 81 ba fe ff ff    	jno    e0fa <dollar___qXwhltkA4r6d4Hcwmx9cN8A+0x67a>
    e240:	e8 fb b5 ff ff       	call   9840 <raiseOverflow>
    e245:	e9 b5 fe ff ff       	jmp    e0ff <dollar___qXwhltkA4r6d4Hcwmx9cN8A+0x67f>
    e24a:	66 0f 1f 44 00 00    	nop    WORD PTR [rax+rax*1+0x0]
    e250:	45 88 7c 15 08       	mov    BYTE PTR [r13+rdx*1+0x8],r15b
    e255:	e9 4c fe ff ff       	jmp    e0a6 <dollar___qXwhltkA4r6d4Hcwmx9cN8A+0x626>
    e25a:	66 0f 1f 44 00 00    	nop    WORD PTR [rax+rax*1+0x0]
    e260:	45 88 64 16 08       	mov    BYTE PTR [r14+rdx*1+0x8],r12b
    e265:	e9 13 fa ff ff       	jmp    dc7d <dollar___qXwhltkA4r6d4Hcwmx9cN8A+0x1fd>
    e26a:	66 0f 1f 44 00 00    	nop    WORD PTR [rax+rax*1+0x0]
    e270:	4c 8d 74 24 50       	lea    r14,[rsp+0x50]
    e275:	be 01 00 00 00       	mov    esi,0x1
    e27a:	4c 89 f7             	mov    rdi,r14
    e27d:	e8 1e bd ff ff       	call   9fa0 <prepareAdd>
    e282:	48 8b 44 24 50       	mov    rax,QWORD PTR [rsp+0x50]
    e287:	48 8b 54 24 58       	mov    rdx,QWORD PTR [rsp+0x58]
    e28c:	c6 44 02 08 28       	mov    BYTE PTR [rdx+rax*1+0x8],0x28
    e291:	48 83 c0 01          	add    rax,0x1
    e295:	0f 80 96 05 00 00    	jo     e831 <dollar___qXwhltkA4r6d4Hcwmx9cN8A+0xdb1>
    e29b:	48 8b 54 24 58       	mov    rdx,QWORD PTR [rsp+0x58]
    e2a0:	c6 44 02 08 00       	mov    BYTE PTR [rdx+rax*1+0x8],0x0
    e2a5:	48 89 44 24 50       	mov    QWORD PTR [rsp+0x50],rax
    e2aa:	66 0f ef c0          	pxor   xmm0,xmm0
    e2ae:	4c 8b 64 24 38       	mov    r12,QWORD PTR [rsp+0x38]
    e2b3:	48 8d 3d c6 3d 20 00 	lea    rdi,[rip+0x203dc6]        # 212080 <allocator__Het9ctRSeaVb4hPekZZNCJQ>
    e2ba:	be 29 00 00 00       	mov    esi,0x29
    e2bf:	4c 8b 6d 08          	mov    r13,QWORD PTR [rbp+0x8]
    e2c3:	48 c7 44 24 60 00 00 	mov    QWORD PTR [rsp+0x60],0x0
    e2ca:	00 00 
    e2cc:	48 c7 44 24 68 00 00 	mov    QWORD PTR [rsp+0x68],0x0
    e2d3:	00 00 
    e2d5:	41 0f 29 04 24       	movaps XMMWORD PTR [r12],xmm0
    e2da:	0f 29 44 24 20       	movaps XMMWORD PTR [rsp+0x20],xmm0
    e2df:	e8 6c 76 ff ff       	call   5950 <rawAlloc__mE4QEVyMvGRVliDWDngZCQ>
    e2e4:	4c 89 e7             	mov    rdi,r12
    e2e7:	49 89 c7             	mov    r15,rax
    e2ea:	66 0f 6f 44 24 20    	movdqa xmm0,XMMWORD PTR [rsp+0x20]
    e2f0:	c6 40 28 00          	mov    BYTE PTR [rax+0x28],0x0
    e2f4:	48 c7 00 20 00 00 00 	mov    QWORD PTR [rax],0x20
    e2fb:	0f 11 40 08          	movups XMMWORD PTR [rax+0x8],xmm0
    e2ff:	0f 11 40 18          	movups XMMWORD PTR [rax+0x18],xmm0
    e303:	e8 98 aa ff ff       	call   8da0 <chckNil>
    e308:	48 8d 7c 24 60       	lea    rdi,[rsp+0x60]
    e30d:	4c 89 ee             	mov    rsi,r13
    e310:	4c 89 7c 24 68       	mov    QWORD PTR [rsp+0x68],r15
    e315:	48 c7 44 24 60 00 00 	mov    QWORD PTR [rsp+0x60],0x0
    e31c:	00 00 
    e31e:	e8 6d d3 ff ff       	call   b690 <addInt__mftMOxbyu0h4yByfs3sqjA>
    e323:	48 83 7c 24 30 00    	cmp    QWORD PTR [rsp+0x30],0x0
    e329:	4c 8b 6c 24 60       	mov    r13,QWORD PTR [rsp+0x60]
    e32e:	4c 8b 7c 24 68       	mov    r15,QWORD PTR [rsp+0x68]
    e333:	0f 84 1f 00 00 00    	je     e358 <dollar___qXwhltkA4r6d4Hcwmx9cN8A+0x8d8>
    e339:	48 8b 44 24 18       	mov    rax,QWORD PTR [rsp+0x18]
    e33e:	4c 39 f8             	cmp    rax,r15
    e341:	74 15                	je     e358 <dollar___qXwhltkA4r6d4Hcwmx9cN8A+0x8d8>
    e343:	48 85 c0             	test   rax,rax
    e346:	74 10                	je     e358 <dollar___qXwhltkA4r6d4Hcwmx9cN8A+0x8d8>
    e348:	48 85 18             	test   QWORD PTR [rax],rbx
    e34b:	0f 84 0f 03 00 00    	je     e660 <dollar___qXwhltkA4r6d4Hcwmx9cN8A+0xbe0>
    e351:	0f 1f 80 00 00 00 00 	nop    DWORD PTR [rax+0x0]
    e358:	4c 89 ee             	mov    rsi,r13
    e35b:	4c 89 f7             	mov    rdi,r14
    e35e:	e8 3d bc ff ff       	call   9fa0 <prepareAdd>
    e363:	4d 85 ed             	test   r13,r13
    e366:	7e 41                	jle    e3a9 <dollar___qXwhltkA4r6d4Hcwmx9cN8A+0x929>
    e368:	4c 89 ea             	mov    rdx,r13
    e36b:	48 83 c2 01          	add    rdx,0x1
    e36f:	0f 80 8f 01 00 00    	jo     e504 <dollar___qXwhltkA4r6d4Hcwmx9cN8A+0xa84>
    e375:	48 85 d2             	test   rdx,rdx
    e378:	0f 88 d2 01 00 00    	js     e550 <dollar___qXwhltkA4r6d4Hcwmx9cN8A+0xad0>
    e37e:	48 8b 44 24 50       	mov    rax,QWORD PTR [rsp+0x50]
    e383:	48 8b 4c 24 58       	mov    rcx,QWORD PTR [rsp+0x58]
    e388:	49 8d 77 08          	lea    rsi,[r15+0x8]
    e38c:	48 8d 7c 01 08       	lea    rdi,[rcx+rax*1+0x8]
    e391:	e8 2a 26 ff ff       	call   9c0 <memcpy@plt>
    e396:	4c 89 e8             	mov    rax,r13
    e399:	48 03 44 24 50       	add    rax,QWORD PTR [rsp+0x50]
    e39e:	0f 80 60 01 00 00    	jo     e504 <dollar___qXwhltkA4r6d4Hcwmx9cN8A+0xa84>
    e3a4:	48 89 44 24 50       	mov    QWORD PTR [rsp+0x50],rax
    e3a9:	be 01 00 00 00       	mov    esi,0x1
    e3ae:	4c 89 f7             	mov    rdi,r14
    e3b1:	e8 ea bb ff ff       	call   9fa0 <prepareAdd>
    e3b6:	48 8b 54 24 50       	mov    rdx,QWORD PTR [rsp+0x50]
    e3bb:	48 8b 44 24 58       	mov    rax,QWORD PTR [rsp+0x58]
    e3c0:	c6 44 10 08 29       	mov    BYTE PTR [rax+rdx*1+0x8],0x29
    e3c5:	48 83 c2 01          	add    rdx,0x1
    e3c9:	0f 80 49 04 00 00    	jo     e818 <dollar___qXwhltkA4r6d4Hcwmx9cN8A+0xd98>
    e3cf:	48 8b 44 24 58       	mov    rax,QWORD PTR [rsp+0x58]
    e3d4:	4c 89 7c 24 18       	mov    QWORD PTR [rsp+0x18],r15
    e3d9:	4c 89 6c 24 30       	mov    QWORD PTR [rsp+0x30],r13
    e3de:	c6 44 10 08 00       	mov    BYTE PTR [rax+rdx*1+0x8],0x0
    e3e3:	48 89 54 24 50       	mov    QWORD PTR [rsp+0x50],rdx
    e3e8:	e9 55 f9 ff ff       	jmp    dd42 <dollar___qXwhltkA4r6d4Hcwmx9cN8A+0x2c2>
    e3ed:	0f 1f 00             	nop    DWORD PTR [rax]
    e3f0:	b9 04 00 00 00       	mov    ecx,0x4
    e3f5:	e9 c1 f9 ff ff       	jmp    ddbb <dollar___qXwhltkA4r6d4Hcwmx9cN8A+0x33b>
    e3fa:	66 0f 1f 44 00 00    	nop    WORD PTR [rax+rax*1+0x0]
    e400:	48 8d 7c 24 50       	lea    rdi,[rsp+0x50]
    e405:	be 11 00 00 00       	mov    esi,0x11
    e40a:	e8 91 bb ff ff       	call   9fa0 <prepareAdd>
    e40f:	48 8b 54 24 58       	mov    rdx,QWORD PTR [rsp+0x58]
    e414:	48 8b 44 24 50       	mov    rax,QWORD PTR [rsp+0x50]
    e419:	f3 0f 6f 05 87 10 00 	movdqu xmm0,XMMWORD PTR [rip+0x1087]        # f4a8 <TM__Q5wkpxktOdTGvlSRo9bzt9aw_62+0x8>
    e420:	00 
    e421:	48 8d 44 02 08       	lea    rax,[rdx+rax*1+0x8]
    e426:	0f b7 15 8b 10 00 00 	movzx  edx,WORD PTR [rip+0x108b]        # f4b8 <TM__Q5wkpxktOdTGvlSRo9bzt9aw_62+0x18>
    e42d:	0f 11 00             	movups XMMWORD PTR [rax],xmm0
    e430:	66 89 50 10          	mov    WORD PTR [rax+0x10],dx
    e434:	48 8b 44 24 50       	mov    rax,QWORD PTR [rsp+0x50]
    e439:	48 83 c0 11          	add    rax,0x11
    e43d:	0f 81 b7 fc ff ff    	jno    e0fa <dollar___qXwhltkA4r6d4Hcwmx9cN8A+0x67a>
    e443:	e9 f8 fd ff ff       	jmp    e240 <dollar___qXwhltkA4r6d4Hcwmx9cN8A+0x7c0>
    e448:	0f 1f 84 00 00 00 00 	nop    DWORD PTR [rax+rax*1+0x0]
    e44f:	00 
    e450:	4c 89 e7             	mov    rdi,r12
    e453:	48 ba ff ff ff ff ff 	movabs rdx,0x7fffffffffffffff
    e45a:	ff ff 7f 
    e45d:	31 f6                	xor    esi,esi
    e45f:	e8 7c ab ff ff       	call   8fe0 <raiseRangeErrorI>
    e464:	4c 8b 64 24 50       	mov    r12,QWORD PTR [rsp+0x50]
    e469:	e9 c4 f9 ff ff       	jmp    de32 <dollar___qXwhltkA4r6d4Hcwmx9cN8A+0x3b2>
    e46e:	66 90                	xchg   ax,ax
    e470:	b9 04 00 00 00       	mov    ecx,0x4
    e475:	e9 81 f7 ff ff       	jmp    dbfb <dollar___qXwhltkA4r6d4Hcwmx9cN8A+0x17b>
    e47a:	66 0f 1f 44 00 00    	nop    WORD PTR [rax+rax*1+0x0]
    e480:	b9 04 00 00 00       	mov    ecx,0x4
    e485:	e9 f5 fa ff ff       	jmp    df7f <dollar___qXwhltkA4r6d4Hcwmx9cN8A+0x4ff>
    e48a:	66 0f 1f 44 00 00    	nop    WORD PTR [rax+rax*1+0x0]
    e490:	4c 89 ef             	mov    rdi,r13
    e493:	48 ba ff ff ff ff ff 	movabs rdx,0x7fffffffffffffff
    e49a:	ff ff 7f 
    e49d:	31 f6                	xor    esi,esi
    e49f:	e8 3c ab ff ff       	call   8fe0 <raiseRangeErrorI>
    e4a4:	4c 8b 6c 24 50       	mov    r13,QWORD PTR [rsp+0x50]
    e4a9:	e9 bb f7 ff ff       	jmp    dc69 <dollar___qXwhltkA4r6d4Hcwmx9cN8A+0x1e9>
    e4ae:	66 90                	xchg   ax,ax
    e4b0:	4c 89 e7             	mov    rdi,r12
    e4b3:	48 ba ff ff ff ff ff 	movabs rdx,0x7fffffffffffffff
    e4ba:	ff ff 7f 
    e4bd:	31 f6                	xor    esi,esi
    e4bf:	e8 1c ab ff ff       	call   8fe0 <raiseRangeErrorI>
    e4c4:	4c 8b 64 24 50       	mov    r12,QWORD PTR [rsp+0x50]
    e4c9:	e9 c4 fb ff ff       	jmp    e092 <dollar___qXwhltkA4r6d4Hcwmx9cN8A+0x612>
    e4ce:	66 90                	xchg   ax,ax
    e4d0:	48 8d 3d a9 3b 20 00 	lea    rdi,[rip+0x203ba9]        # 212080 <allocator__Het9ctRSeaVb4hPekZZNCJQ>
    e4d7:	48 89 de             	mov    rsi,rbx
    e4da:	e8 a1 3c ff ff       	call   2180 <rawDealloc__K7uQ6aTKvW6OnOV8EMoNNQ>
    e4df:	e9 50 fc ff ff       	jmp    e134 <dollar___qXwhltkA4r6d4Hcwmx9cN8A+0x6b4>
    e4e4:	0f 1f 40 00          	nop    DWORD PTR [rax+0x0]
    e4e8:	48 6b d0 03          	imul   rdx,rax,0x3
    e4ec:	0f 80 08 03 00 00    	jo     e7fa <dollar___qXwhltkA4r6d4Hcwmx9cN8A+0xd7a>
    e4f2:	48 89 d1             	mov    rcx,rdx
    e4f5:	48 c1 e9 3f          	shr    rcx,0x3f
    e4f9:	48 01 d1             	add    rcx,rdx
    e4fc:	48 d1 f9             	sar    rcx,1
    e4ff:	e9 b7 f8 ff ff       	jmp    ddbb <dollar___qXwhltkA4r6d4Hcwmx9cN8A+0x33b>
    e504:	e8 37 b3 ff ff       	call   9840 <raiseOverflow>
    e509:	e9 9b fe ff ff       	jmp    e3a9 <dollar___qXwhltkA4r6d4Hcwmx9cN8A+0x929>
    e50e:	66 90                	xchg   ax,ax
    e510:	48 6b d0 03          	imul   rdx,rax,0x3
    e514:	0f 80 9f 02 00 00    	jo     e7b9 <dollar___qXwhltkA4r6d4Hcwmx9cN8A+0xd39>
    e51a:	48 89 d1             	mov    rcx,rdx
    e51d:	48 c1 e9 3f          	shr    rcx,0x3f
    e521:	48 01 d1             	add    rcx,rdx
    e524:	48 d1 f9             	sar    rcx,1
    e527:	e9 cf f6 ff ff       	jmp    dbfb <dollar___qXwhltkA4r6d4Hcwmx9cN8A+0x17b>
    e52c:	0f 1f 40 00          	nop    DWORD PTR [rax+0x0]
    e530:	48 6b d0 03          	imul   rdx,rax,0x3
    e534:	0f 80 a2 02 00 00    	jo     e7dc <dollar___qXwhltkA4r6d4Hcwmx9cN8A+0xd5c>
    e53a:	48 89 d1             	mov    rcx,rdx
    e53d:	48 c1 e9 3f          	shr    rcx,0x3f
    e541:	48 01 d1             	add    rcx,rdx
    e544:	48 d1 f9             	sar    rcx,1
    e547:	e9 33 fa ff ff       	jmp    df7f <dollar___qXwhltkA4r6d4Hcwmx9cN8A+0x4ff>
    e54c:	0f 1f 40 00          	nop    DWORD PTR [rax+0x0]
    e550:	48 ba ff ff ff ff ff 	movabs rdx,0x7fffffffffffffff
    e557:	ff ff 7f 
    e55a:	31 f6                	xor    esi,esi
    e55c:	48 bf 00 00 00 00 00 	movabs rdi,0x8000000000000000
    e563:	00 00 80 
    e566:	e8 75 aa ff ff       	call   8fe0 <raiseRangeErrorI>
    e56b:	e9 39 fe ff ff       	jmp    e3a9 <dollar___qXwhltkA4r6d4Hcwmx9cN8A+0x929>
    e570:	48 ba ff ff ff ff ff 	movabs rdx,0x7fffffffffffffff
    e577:	ff ff 7f 
    e57a:	31 f6                	xor    esi,esi
    e57c:	48 89 c7             	mov    rdi,rax
    e57f:	e8 5c aa ff ff       	call   8fe0 <raiseRangeErrorI>
    e584:	4c 8b 64 24 50       	mov    r12,QWORD PTR [rsp+0x50]
    e589:	e9 a4 f8 ff ff       	jmp    de32 <dollar___qXwhltkA4r6d4Hcwmx9cN8A+0x3b2>
    e58e:	66 90                	xchg   ax,ax
    e590:	48 ba ff ff ff ff ff 	movabs rdx,0x7fffffffffffffff
    e597:	ff ff 7f 
    e59a:	31 f6                	xor    esi,esi
    e59c:	e8 3f aa ff ff       	call   8fe0 <raiseRangeErrorI>
    e5a1:	4c 8b 64 24 50       	mov    r12,QWORD PTR [rsp+0x50]
    e5a6:	e9 87 f8 ff ff       	jmp    de32 <dollar___qXwhltkA4r6d4Hcwmx9cN8A+0x3b2>
    e5ab:	48 89 fe             	mov    rsi,rdi
    e5ae:	48 89 7c 24 10       	mov    QWORD PTR [rsp+0x10],rdi
    e5b3:	48 8d 3d c6 3a 20 00 	lea    rdi,[rip+0x203ac6]        # 212080 <allocator__Het9ctRSeaVb4hPekZZNCJQ>
    e5ba:	4c 89 4c 24 20       	mov    QWORD PTR [rsp+0x20],r9
    e5bf:	e8 8c 73 ff ff       	call   5950 <rawAlloc__mE4QEVyMvGRVliDWDngZCQ>
    e5c4:	4c 8b 4c 24 20       	mov    r9,QWORD PTR [rsp+0x20]
    e5c9:	49 89 c0             	mov    r8,rax
    e5cc:	48 8b 4c 24 10       	mov    rcx,QWORD PTR [rsp+0x10]
    e5d1:	4d 85 c9             	test   r9,r9
    e5d4:	74 58                	je     e62e <dollar___qXwhltkA4r6d4Hcwmx9cN8A+0xbae>
    e5d6:	4c 89 c8             	mov    rax,r9
    e5d9:	4c 89 c7             	mov    rdi,r8
    e5dc:	4c 89 ce             	mov    rsi,r9
    e5df:	48 25 00 f0 ff ff    	and    rax,0xfffffffffffff000
    e5e5:	48 89 4c 24 40       	mov    QWORD PTR [rsp+0x40],rcx
    e5ea:	4c 89 44 24 10       	mov    QWORD PTR [rsp+0x10],r8
    e5ef:	48 8b 40 08          	mov    rax,QWORD PTR [rax+0x8]
    e5f3:	48 8d 50 e0          	lea    rdx,[rax-0x20]
    e5f7:	48 3d c8 0f 00 00    	cmp    rax,0xfc8
    e5fd:	48 0f 4f c2          	cmovg  rax,rdx
    e601:	48 39 c1             	cmp    rcx,rax
    e604:	48 0f 4e c1          	cmovle rax,rcx
    e608:	48 89 c2             	mov    rdx,rax
    e60b:	e8 b0 23 ff ff       	call   9c0 <memcpy@plt>
    e610:	4c 8b 4c 24 20       	mov    r9,QWORD PTR [rsp+0x20]
    e615:	48 8d 3d 64 3a 20 00 	lea    rdi,[rip+0x203a64]        # 212080 <allocator__Het9ctRSeaVb4hPekZZNCJQ>
    e61c:	4c 89 ce             	mov    rsi,r9
    e61f:	e8 5c 3b ff ff       	call   2180 <rawDealloc__K7uQ6aTKvW6OnOV8EMoNNQ>
    e624:	4c 8b 44 24 10       	mov    r8,QWORD PTR [rsp+0x10]
    e629:	48 8b 4c 24 40       	mov    rcx,QWORD PTR [rsp+0x40]
    e62e:	49 39 ce             	cmp    r14,rcx
    e631:	7d 1b                	jge    e64e <dollar___qXwhltkA4r6d4Hcwmx9cN8A+0xbce>
    e633:	4c 29 f1             	sub    rcx,r14
    e636:	4b 8d 3c 30          	lea    rdi,[r8+r14*1]
    e63a:	31 f6                	xor    esi,esi
    e63c:	48 89 ca             	mov    rdx,rcx
    e63f:	4c 89 44 24 10       	mov    QWORD PTR [rsp+0x10],r8
    e644:	e8 37 23 ff ff       	call   980 <memset@plt>
    e649:	4c 8b 44 24 10       	mov    r8,QWORD PTR [rsp+0x10]
    e64e:	4c 89 44 24 58       	mov    QWORD PTR [rsp+0x58],r8
    e653:	4d 89 20             	mov    QWORD PTR [r8],r12
    e656:	4c 8b 64 24 50       	mov    r12,QWORD PTR [rsp+0x50]
    e65b:	e9 d2 f7 ff ff       	jmp    de32 <dollar___qXwhltkA4r6d4Hcwmx9cN8A+0x3b2>
    e660:	48 8d 3d 19 3a 20 00 	lea    rdi,[rip+0x203a19]        # 212080 <allocator__Het9ctRSeaVb4hPekZZNCJQ>
    e667:	48 89 c6             	mov    rsi,rax
    e66a:	e8 11 3b ff ff       	call   2180 <rawDealloc__K7uQ6aTKvW6OnOV8EMoNNQ>
    e66f:	e9 e4 fc ff ff       	jmp    e358 <dollar___qXwhltkA4r6d4Hcwmx9cN8A+0x8d8>
    e674:	48 89 fe             	mov    rsi,rdi
    e677:	48 89 7c 24 20       	mov    QWORD PTR [rsp+0x20],rdi
    e67c:	48 8d 3d fd 39 20 00 	lea    rdi,[rip+0x2039fd]        # 212080 <allocator__Het9ctRSeaVb4hPekZZNCJQ>
    e683:	4c 89 54 24 40       	mov    QWORD PTR [rsp+0x40],r10
    e688:	e8 c3 72 ff ff       	call   5950 <rawAlloc__mE4QEVyMvGRVliDWDngZCQ>
    e68d:	4c 8b 54 24 40       	mov    r10,QWORD PTR [rsp+0x40]
    e692:	49 89 c0             	mov    r8,rax
    e695:	48 8b 4c 24 20       	mov    rcx,QWORD PTR [rsp+0x20]
    e69a:	4d 85 d2             	test   r10,r10
    e69d:	74 58                	je     e6f7 <dollar___qXwhltkA4r6d4Hcwmx9cN8A+0xc77>
    e69f:	4c 89 d0             	mov    rax,r10
    e6a2:	4c 89 c7             	mov    rdi,r8
    e6a5:	4c 89 d6             	mov    rsi,r10
    e6a8:	48 25 00 f0 ff ff    	and    rax,0xfffffffffffff000
    e6ae:	48 89 4c 24 48       	mov    QWORD PTR [rsp+0x48],rcx
    e6b3:	4c 89 44 24 20       	mov    QWORD PTR [rsp+0x20],r8
    e6b8:	48 8b 40 08          	mov    rax,QWORD PTR [rax+0x8]
    e6bc:	48 8d 50 e0          	lea    rdx,[rax-0x20]
    e6c0:	48 3d c8 0f 00 00    	cmp    rax,0xfc8
    e6c6:	48 0f 4f c2          	cmovg  rax,rdx
    e6ca:	48 39 c1             	cmp    rcx,rax
    e6cd:	48 0f 4e c1          	cmovle rax,rcx
    e6d1:	48 89 c2             	mov    rdx,rax
    e6d4:	e8 e7 22 ff ff       	call   9c0 <memcpy@plt>
    e6d9:	4c 8b 54 24 40       	mov    r10,QWORD PTR [rsp+0x40]
    e6de:	48 8d 3d 9b 39 20 00 	lea    rdi,[rip+0x20399b]        # 212080 <allocator__Het9ctRSeaVb4hPekZZNCJQ>
    e6e5:	4c 89 d6             	mov    rsi,r10
    e6e8:	e8 93 3a ff ff       	call   2180 <rawDealloc__K7uQ6aTKvW6OnOV8EMoNNQ>
    e6ed:	4c 8b 44 24 20       	mov    r8,QWORD PTR [rsp+0x20]
    e6f2:	48 8b 4c 24 48       	mov    rcx,QWORD PTR [rsp+0x48]
    e6f7:	49 39 ce             	cmp    r14,rcx
    e6fa:	7d 1b                	jge    e717 <dollar___qXwhltkA4r6d4Hcwmx9cN8A+0xc97>
    e6fc:	4c 29 f1             	sub    rcx,r14
    e6ff:	4b 8d 3c 30          	lea    rdi,[r8+r14*1]
    e703:	31 f6                	xor    esi,esi
    e705:	48 89 ca             	mov    rdx,rcx
    e708:	4c 89 44 24 20       	mov    QWORD PTR [rsp+0x20],r8
    e70d:	e8 6e 22 ff ff       	call   980 <memset@plt>
    e712:	4c 8b 44 24 20       	mov    r8,QWORD PTR [rsp+0x20]
    e717:	4c 89 44 24 58       	mov    QWORD PTR [rsp+0x58],r8
    e71c:	4d 89 28             	mov    QWORD PTR [r8],r13
    e71f:	4c 8b 6c 24 50       	mov    r13,QWORD PTR [rsp+0x50]
    e724:	e9 40 f5 ff ff       	jmp    dc69 <dollar___qXwhltkA4r6d4Hcwmx9cN8A+0x1e9>
    e729:	48 ba ff ff ff ff ff 	movabs rdx,0x7fffffffffffffff
    e730:	ff ff 7f 
    e733:	31 f6                	xor    esi,esi
    e735:	48 89 c7             	mov    rdi,rax
    e738:	e8 a3 a8 ff ff       	call   8fe0 <raiseRangeErrorI>
    e73d:	4c 8b 6c 24 50       	mov    r13,QWORD PTR [rsp+0x50]
    e742:	e9 22 f5 ff ff       	jmp    dc69 <dollar___qXwhltkA4r6d4Hcwmx9cN8A+0x1e9>
    e747:	48 ba ff ff ff ff ff 	movabs rdx,0x7fffffffffffffff
    e74e:	ff ff 7f 
    e751:	31 f6                	xor    esi,esi
    e753:	48 89 c7             	mov    rdi,rax
    e756:	e8 85 a8 ff ff       	call   8fe0 <raiseRangeErrorI>
    e75b:	4c 8b 64 24 50       	mov    r12,QWORD PTR [rsp+0x50]
    e760:	e9 2d f9 ff ff       	jmp    e092 <dollar___qXwhltkA4r6d4Hcwmx9cN8A+0x612>
    e765:	48 ba ff ff ff ff ff 	movabs rdx,0x7fffffffffffffff
    e76c:	ff ff 7f 
    e76f:	31 f6                	xor    esi,esi
    e771:	e8 6a a8 ff ff       	call   8fe0 <raiseRangeErrorI>
    e776:	4c 8b 6c 24 50       	mov    r13,QWORD PTR [rsp+0x50]
    e77b:	e9 e9 f4 ff ff       	jmp    dc69 <dollar___qXwhltkA4r6d4Hcwmx9cN8A+0x1e9>
    e780:	48 ba ff ff ff ff ff 	movabs rdx,0x7fffffffffffffff
    e787:	ff ff 7f 
    e78a:	31 f6                	xor    esi,esi
    e78c:	e8 4f a8 ff ff       	call   8fe0 <raiseRangeErrorI>
    e791:	4c 8b 64 24 50       	mov    r12,QWORD PTR [rsp+0x50]
    e796:	e9 f7 f8 ff ff       	jmp    e092 <dollar___qXwhltkA4r6d4Hcwmx9cN8A+0x612>
    e79b:	e8 a0 b0 ff ff       	call   9840 <raiseOverflow>
    e7a0:	e9 b2 f6 ff ff       	jmp    de57 <dollar___qXwhltkA4r6d4Hcwmx9cN8A+0x3d7>
    e7a5:	e8 96 b0 ff ff       	call   9840 <raiseOverflow>
    e7aa:	e9 de f4 ff ff       	jmp    dc8d <dollar___qXwhltkA4r6d4Hcwmx9cN8A+0x20d>
    e7af:	e8 8c b0 ff ff       	call   9840 <raiseOverflow>
    e7b4:	e9 fd f8 ff ff       	jmp    e0b6 <dollar___qXwhltkA4r6d4Hcwmx9cN8A+0x636>
    e7b9:	48 89 4c 24 40       	mov    QWORD PTR [rsp+0x40],rcx
    e7be:	48 89 44 24 20       	mov    QWORD PTR [rsp+0x20],rax
    e7c3:	e8 78 b0 ff ff       	call   9840 <raiseOverflow>
    e7c8:	48 8b 44 24 20       	mov    rax,QWORD PTR [rsp+0x20]
    e7cd:	48 8b 4c 24 40       	mov    rcx,QWORD PTR [rsp+0x40]
    e7d2:	e9 24 f4 ff ff       	jmp    dbfb <dollar___qXwhltkA4r6d4Hcwmx9cN8A+0x17b>
    e7d7:	e8 84 21 ff ff       	call   960 <__stack_chk_fail@plt>
    e7dc:	48 89 4c 24 20       	mov    QWORD PTR [rsp+0x20],rcx
    e7e1:	48 89 44 24 10       	mov    QWORD PTR [rsp+0x10],rax
    e7e6:	e8 55 b0 ff ff       	call   9840 <raiseOverflow>
    e7eb:	48 8b 44 24 10       	mov    rax,QWORD PTR [rsp+0x10]
    e7f0:	48 8b 4c 24 20       	mov    rcx,QWORD PTR [rsp+0x20]
    e7f5:	e9 85 f7 ff ff       	jmp    df7f <dollar___qXwhltkA4r6d4Hcwmx9cN8A+0x4ff>
    e7fa:	48 89 4c 24 20       	mov    QWORD PTR [rsp+0x20],rcx
    e7ff:	48 89 44 24 10       	mov    QWORD PTR [rsp+0x10],rax
    e804:	e8 37 b0 ff ff       	call   9840 <raiseOverflow>
    e809:	48 8b 44 24 10       	mov    rax,QWORD PTR [rsp+0x10]
    e80e:	48 8b 4c 24 20       	mov    rcx,QWORD PTR [rsp+0x20]
    e813:	e9 a3 f5 ff ff       	jmp    ddbb <dollar___qXwhltkA4r6d4Hcwmx9cN8A+0x33b>
    e818:	e8 23 b0 ff ff       	call   9840 <raiseOverflow>
    e81d:	48 8b 54 24 50       	mov    rdx,QWORD PTR [rsp+0x50]
    e822:	4c 89 7c 24 18       	mov    QWORD PTR [rsp+0x18],r15
    e827:	4c 89 6c 24 30       	mov    QWORD PTR [rsp+0x30],r13
    e82c:	e9 11 f5 ff ff       	jmp    dd42 <dollar___qXwhltkA4r6d4Hcwmx9cN8A+0x2c2>
    e831:	e8 0a b0 ff ff       	call   9840 <raiseOverflow>
    e836:	e9 6f fa ff ff       	jmp    e2aa <dollar___qXwhltkA4r6d4Hcwmx9cN8A+0x82a>
    e83b:	0f 1f 44 00 00       	nop    DWORD PTR [rax+rax*1+0x0]

000000000000e840 <reportUnhandledErrorAux__na8C8pUZ9cLQWVwk35l5vfw_3>:
    e840:	41 57                	push   r15
    e842:	41 56                	push   r14
    e844:	b9 fa 00 00 00       	mov    ecx,0xfa
    e849:	41 55                	push   r13
    e84b:	41 54                	push   r12
    e84d:	49 89 fd             	mov    r13,rdi
    e850:	55                   	push   rbp
    e851:	53                   	push   rbx
    e852:	48 81 ec e8 07 00 00 	sub    rsp,0x7e8
    e859:	64 48 8b 04 25 28 00 	mov    rax,QWORD PTR fs:0x28
    e860:	00 00 
    e862:	48 89 84 24 d8 07 00 	mov    QWORD PTR [rsp+0x7d8],rax
    e869:	00 
    e86a:	31 c0                	xor    eax,eax
    e86c:	48 89 e5             	mov    rbp,rsp
    e86f:	49 83 7d 28 00       	cmp    QWORD PTR [r13+0x28],0x0
    e874:	48 89 ef             	mov    rdi,rbp
    e877:	f3 48 ab             	rep stos QWORD PTR es:[rdi],rax
    e87a:	c6 07 00             	mov    BYTE PTR [rdi],0x0
    e87d:	0f 85 9d 01 00 00    	jne    ea20 <reportUnhandledErrorAux__na8C8pUZ9cLQWVwk35l5vfw_3+0x1e0>
    e883:	41 bc 1c 00 00 00    	mov    r12d,0x1c
    e889:	bb 1c 00 00 00       	mov    ebx,0x1c
    e88e:	48 89 e8             	mov    rax,rbp
    e891:	66 0f 6f 05 67 0e 00 	movdqa xmm0,XMMWORD PTR [rip+0xe67]        # f700 <fsLookupTable__Gn52IZvqY4slyBTOYwGNRQ+0x100>
    e898:	00 
    e899:	48 b9 20 65 78 63 65 	movabs rcx,0x6974706563786520
    e8a0:	70 74 69 
    e8a3:	48 89 48 10          	mov    QWORD PTR [rax+0x10],rcx
    e8a7:	c7 40 18 6f 6e 3a 20 	mov    DWORD PTR [rax+0x18],0x203a6e6f
    e8ae:	0f 11 00             	movups XMMWORD PTR [rax],xmm0
    e8b1:	49 8b 55 18          	mov    rdx,QWORD PTR [r13+0x18]
    e8b5:	4c 8d 34 1a          	lea    r14,[rdx+rbx*1]
    e8b9:	49 81 fe cf 07 00 00 	cmp    r14,0x7cf
    e8c0:	7f 26                	jg     e8e8 <reportUnhandledErrorAux__na8C8pUZ9cLQWVwk35l5vfw_3+0xa8>
    e8c2:	49 8b 45 20          	mov    rax,QWORD PTR [r13+0x20]
    e8c6:	48 85 d2             	test   rdx,rdx
    e8c9:	4a 8d 7c 25 00       	lea    rdi,[rbp+r12*1+0x0]
    e8ce:	4c 89 f3             	mov    rbx,r14
    e8d1:	4d 89 f4             	mov    r12,r14
    e8d4:	48 8d 70 08          	lea    rsi,[rax+0x8]
    e8d8:	48 8d 05 2a 0a 00 00 	lea    rax,[rip+0xa2a]        # f309 <_IO_stdin_used+0xc9>
    e8df:	48 0f 44 f0          	cmove  rsi,rax
    e8e3:	e8 d8 20 ff ff       	call   9c0 <memcpy@plt>
    e8e8:	48 81 fb cd 07 00 00 	cmp    rbx,0x7cd
    e8ef:	0f 8e 0b 01 00 00    	jle    ea00 <reportUnhandledErrorAux__na8C8pUZ9cLQWVwk35l5vfw_3+0x1c0>
    e8f5:	4d 8b 6d 10          	mov    r13,QWORD PTR [r13+0x10]
    e8f9:	31 c0                	xor    eax,eax
    e8fb:	4d 85 ed             	test   r13,r13
    e8fe:	0f 84 ac 00 00 00    	je     e9b0 <reportUnhandledErrorAux__na8C8pUZ9cLQWVwk35l5vfw_3+0x170>
    e904:	4c 89 ef             	mov    rdi,r13
    e907:	e8 44 20 ff ff       	call   950 <strlen@plt>
    e90c:	4a 8d 14 20          	lea    rdx,[rax+r12*1]
    e910:	48 81 fa cf 07 00 00 	cmp    rdx,0x7cf
    e917:	0f 8e 93 00 00 00    	jle    e9b0 <reportUnhandledErrorAux__na8C8pUZ9cLQWVwk35l5vfw_3+0x170>
    e91d:	48 81 fb cd 07 00 00 	cmp    rbx,0x7cd
    e924:	0f 8e af 00 00 00    	jle    e9d9 <reportUnhandledErrorAux__na8C8pUZ9cLQWVwk35l5vfw_3+0x199>
    e92a:	48 83 3d 2e 37 20 00 	cmp    QWORD PTR [rip+0x20372e],0x0        # 212060 <onUnhandledException__bFrawQlTKZhLweDD36j9b8g>
    e931:	00 
    e932:	0f 84 b9 00 00 00    	je     e9f1 <reportUnhandledErrorAux__na8C8pUZ9cLQWVwk35l5vfw_3+0x1b1>
    e938:	48 89 ee             	mov    rsi,rbp
    e93b:	8b 16                	mov    edx,DWORD PTR [rsi]
    e93d:	48 83 c6 04          	add    rsi,0x4
    e941:	8d 82 ff fe fe fe    	lea    eax,[rdx-0x1010101]
    e947:	f7 d2                	not    edx
    e949:	21 d0                	and    eax,edx
    e94b:	25 80 80 80 80       	and    eax,0x80808080
    e950:	74 e9                	je     e93b <reportUnhandledErrorAux__na8C8pUZ9cLQWVwk35l5vfw_3+0xfb>
    e952:	89 c2                	mov    edx,eax
    e954:	48 89 ef             	mov    rdi,rbp
    e957:	c1 ea 10             	shr    edx,0x10
    e95a:	a9 80 80 00 00       	test   eax,0x8080
    e95f:	0f 44 c2             	cmove  eax,edx
    e962:	48 8d 56 02          	lea    rdx,[rsi+0x2]
    e966:	89 c1                	mov    ecx,eax
    e968:	48 0f 44 f2          	cmove  rsi,rdx
    e96c:	00 c1                	add    cl,al
    e96e:	48 83 de 03          	sbb    rsi,0x3
    e972:	48 29 ee             	sub    rsi,rbp
    e975:	e8 36 d7 ff ff       	call   c0b0 <toNimStr>
    e97a:	48 89 c7             	mov    rdi,rax
    e97d:	48 89 d6             	mov    rsi,rdx
    e980:	ff 15 da 36 20 00    	call   QWORD PTR [rip+0x2036da]        # 212060 <onUnhandledException__bFrawQlTKZhLweDD36j9b8g>
    e986:	48 8b 84 24 d8 07 00 	mov    rax,QWORD PTR [rsp+0x7d8]
    e98d:	00 
    e98e:	64 48 33 04 25 28 00 	xor    rax,QWORD PTR fs:0x28
    e995:	00 00 
    e997:	0f 85 4c 01 00 00    	jne    eae9 <reportUnhandledErrorAux__na8C8pUZ9cLQWVwk35l5vfw_3+0x2a9>
    e99d:	48 81 c4 e8 07 00 00 	add    rsp,0x7e8
    e9a4:	5b                   	pop    rbx
    e9a5:	5d                   	pop    rbp
    e9a6:	41 5c                	pop    r12
    e9a8:	41 5d                	pop    r13
    e9aa:	41 5e                	pop    r14
    e9ac:	41 5f                	pop    r15
    e9ae:	c3                   	ret    
    e9af:	90                   	nop
    e9b0:	4a 8d 7c 25 00       	lea    rdi,[rbp+r12*1+0x0]
    e9b5:	48 89 c2             	mov    rdx,rax
    e9b8:	4c 89 ee             	mov    rsi,r13
    e9bb:	e8 00 20 ff ff       	call   9c0 <memcpy@plt>
    e9c0:	4c 89 ef             	mov    rdi,r13
    e9c3:	e8 88 1f ff ff       	call   950 <strlen@plt>
    e9c8:	4a 8d 1c 20          	lea    rbx,[rax+r12*1]
    e9cc:	48 81 fb cd 07 00 00 	cmp    rbx,0x7cd
    e9d3:	0f 8f 51 ff ff ff    	jg     e92a <reportUnhandledErrorAux__na8C8pUZ9cLQWVwk35l5vfw_3+0xea>
    e9d9:	48 83 3d 7f 36 20 00 	cmp    QWORD PTR [rip+0x20367f],0x0        # 212060 <onUnhandledException__bFrawQlTKZhLweDD36j9b8g>
    e9e0:	00 
    e9e1:	b8 5d 0a 00 00       	mov    eax,0xa5d
    e9e6:	66 89 44 1d 00       	mov    WORD PTR [rbp+rbx*1+0x0],ax
    e9eb:	0f 85 47 ff ff ff    	jne    e938 <reportUnhandledErrorAux__na8C8pUZ9cLQWVwk35l5vfw_3+0xf8>
    e9f1:	48 89 ef             	mov    rdi,rbp
    e9f4:	e8 67 d9 ff ff       	call   c360 <showErrorMessage__zsORN9crdKxsL9cHrQcdHSMw>
    e9f9:	eb 8b                	jmp    e986 <reportUnhandledErrorAux__na8C8pUZ9cLQWVwk35l5vfw_3+0x146>
    e9fb:	0f 1f 44 00 00       	nop    DWORD PTR [rax+rax*1+0x0]
    ea00:	ba 20 5b 00 00       	mov    edx,0x5b20
    ea05:	48 83 c3 02          	add    rbx,0x2
    ea09:	66 42 89 54 25 00    	mov    WORD PTR [rbp+r12*1+0x0],dx
    ea0f:	49 89 dc             	mov    r12,rbx
    ea12:	e9 de fe ff ff       	jmp    e8f5 <reportUnhandledErrorAux__na8C8pUZ9cLQWVwk35l5vfw_3+0xb5>
    ea17:	66 0f 1f 84 00 00 00 	nop    WORD PTR [rax+rax*1+0x0]
    ea1e:	00 00 
    ea20:	49 8b 7d 28          	mov    rdi,QWORD PTR [r13+0x28]
    ea24:	49 8b 75 30          	mov    rsi,QWORD PTR [r13+0x30]
    ea28:	e8 53 f0 ff ff       	call   da80 <dollar___qXwhltkA4r6d4Hcwmx9cN8A>
    ea2d:	48 3d cf 07 00 00    	cmp    rax,0x7cf
    ea33:	49 89 c6             	mov    r14,rax
    ea36:	49 89 d7             	mov    r15,rdx
    ea39:	48 89 c3             	mov    rbx,rax
    ea3c:	7f 42                	jg     ea80 <reportUnhandledErrorAux__na8C8pUZ9cLQWVwk35l5vfw_3+0x240>
    ea3e:	48 85 c0             	test   rax,rax
    ea41:	49 89 c4             	mov    r12,rax
    ea44:	74 7a                	je     eac0 <reportUnhandledErrorAux__na8C8pUZ9cLQWVwk35l5vfw_3+0x280>
    ea46:	48 8d 72 08          	lea    rsi,[rdx+0x8]
    ea4a:	b9 d1 07 00 00       	mov    ecx,0x7d1
    ea4f:	48 89 c2             	mov    rdx,rax
    ea52:	48 89 ef             	mov    rdi,rbp
    ea55:	e8 56 1f ff ff       	call   9b0 <__memcpy_chk@plt>
    ea5a:	4d 85 ff             	test   r15,r15
    ea5d:	74 0f                	je     ea6e <reportUnhandledErrorAux__na8C8pUZ9cLQWVwk35l5vfw_3+0x22e>
    ea5f:	48 b8 00 00 00 00 00 	movabs rax,0x4000000000000000
    ea66:	00 00 40 
    ea69:	49 85 07             	test   QWORD PTR [r15],rax
    ea6c:	74 6a                	je     ead8 <reportUnhandledErrorAux__na8C8pUZ9cLQWVwk35l5vfw_3+0x298>
    ea6e:	49 81 fe b3 07 00 00 	cmp    r14,0x7b3
    ea75:	0f 8f 36 fe ff ff    	jg     e8b1 <reportUnhandledErrorAux__na8C8pUZ9cLQWVwk35l5vfw_3+0x71>
    ea7b:	eb 30                	jmp    eaad <reportUnhandledErrorAux__na8C8pUZ9cLQWVwk35l5vfw_3+0x26d>
    ea7d:	0f 1f 00             	nop    DWORD PTR [rax]
    ea80:	48 85 d2             	test   rdx,rdx
    ea83:	0f 84 fa fd ff ff    	je     e883 <reportUnhandledErrorAux__na8C8pUZ9cLQWVwk35l5vfw_3+0x43>
    ea89:	49 bc 00 00 00 00 00 	movabs r12,0x4000000000000000
    ea90:	00 00 40 
    ea93:	4c 23 22             	and    r12,QWORD PTR [rdx]
    ea96:	0f 85 e7 fd ff ff    	jne    e883 <reportUnhandledErrorAux__na8C8pUZ9cLQWVwk35l5vfw_3+0x43>
    ea9c:	48 8d 3d dd 35 20 00 	lea    rdi,[rip+0x2035dd]        # 212080 <allocator__Het9ctRSeaVb4hPekZZNCJQ>
    eaa3:	48 89 d6             	mov    rsi,rdx
    eaa6:	31 db                	xor    ebx,ebx
    eaa8:	e8 d3 36 ff ff       	call   2180 <rawDealloc__K7uQ6aTKvW6OnOV8EMoNNQ>
    eaad:	48 83 c3 1c          	add    rbx,0x1c
    eab1:	4a 8d 44 25 00       	lea    rax,[rbp+r12*1+0x0]
    eab6:	49 89 dc             	mov    r12,rbx
    eab9:	e9 d3 fd ff ff       	jmp    e891 <reportUnhandledErrorAux__na8C8pUZ9cLQWVwk35l5vfw_3+0x51>
    eabe:	66 90                	xchg   ax,ax
    eac0:	48 85 d2             	test   rdx,rdx
    eac3:	0f 84 ba fd ff ff    	je     e883 <reportUnhandledErrorAux__na8C8pUZ9cLQWVwk35l5vfw_3+0x43>
    eac9:	48 b8 00 00 00 00 00 	movabs rax,0x4000000000000000
    ead0:	00 00 40 
    ead3:	48 85 02             	test   QWORD PTR [rdx],rax
    ead6:	75 16                	jne    eaee <reportUnhandledErrorAux__na8C8pUZ9cLQWVwk35l5vfw_3+0x2ae>
    ead8:	48 8d 3d a1 35 20 00 	lea    rdi,[rip+0x2035a1]        # 212080 <allocator__Het9ctRSeaVb4hPekZZNCJQ>
    eadf:	4c 89 fe             	mov    rsi,r15
    eae2:	e8 99 36 ff ff       	call   2180 <rawDealloc__K7uQ6aTKvW6OnOV8EMoNNQ>
    eae7:	eb 85                	jmp    ea6e <reportUnhandledErrorAux__na8C8pUZ9cLQWVwk35l5vfw_3+0x22e>
    eae9:	e8 72 1e ff ff       	call   960 <__stack_chk_fail@plt>
    eaee:	49 89 dc             	mov    r12,rbx
    eaf1:	eb ba                	jmp    eaad <reportUnhandledErrorAux__na8C8pUZ9cLQWVwk35l5vfw_3+0x26d>
    eaf3:	0f 1f 00             	nop    DWORD PTR [rax]
    eaf6:	66 2e 0f 1f 84 00 00 	nop    WORD PTR cs:[rax+rax*1+0x0]
    eafd:	00 00 00 

000000000000eb00 <reportUnhandledError__na8C8pUZ9cLQWVwk35l5vfw_2>:
    eb00:	48 8b 05 81 69 20 00 	mov    rax,QWORD PTR [rip+0x206981]        # 215488 <unhandledExceptionHook__RJpSsXsRUH8ochbXTEhRIw>
    eb07:	53                   	push   rbx
    eb08:	48 89 fb             	mov    rbx,rdi
    eb0b:	48 85 c0             	test   rax,rax
    eb0e:	74 02                	je     eb12 <reportUnhandledError__na8C8pUZ9cLQWVwk35l5vfw_2+0x12>
    eb10:	ff d0                	call   rax
    eb12:	48 89 df             	mov    rdi,rbx
    eb15:	5b                   	pop    rbx
    eb16:	e9 25 fd ff ff       	jmp    e840 <reportUnhandledErrorAux__na8C8pUZ9cLQWVwk35l5vfw_3>
    eb1b:	0f 1f 44 00 00       	nop    DWORD PTR [rax+rax*1+0x0]

000000000000eb20 <nimTestErrorFlag>:
    eb20:	53                   	push   rbx
    eb21:	48 8b 1d 40 35 20 00 	mov    rbx,QWORD PTR [rip+0x203540]        # 212068 <currException__9bVPeDJlYTi9bQApZpfH8wjg>
    eb28:	48 85 db             	test   rbx,rbx
    eb2b:	75 02                	jne    eb2f <nimTestErrorFlag+0xf>
    eb2d:	5b                   	pop    rbx
    eb2e:	c3                   	ret    
    eb2f:	48 8b 05 52 69 20 00 	mov    rax,QWORD PTR [rip+0x206952]        # 215488 <unhandledExceptionHook__RJpSsXsRUH8ochbXTEhRIw>
    eb36:	48 85 c0             	test   rax,rax
    eb39:	74 05                	je     eb40 <nimTestErrorFlag+0x20>
    eb3b:	48 89 df             	mov    rdi,rbx
    eb3e:	ff d0                	call   rax
    eb40:	48 89 df             	mov    rdi,rbx
    eb43:	e8 f8 fc ff ff       	call   e840 <reportUnhandledErrorAux__na8C8pUZ9cLQWVwk35l5vfw_3>
    eb48:	48 8d 3d 19 35 20 00 	lea    rdi,[rip+0x203519]        # 212068 <currException__9bVPeDJlYTi9bQApZpfH8wjg>
    eb4f:	31 f6                	xor    esi,esi
    eb51:	e8 fa c3 ff ff       	call   af50 <eqsink___rR9boD7urcxl7uyUtE46AOA_2>
    eb56:	bf 01 00 00 00       	mov    edi,0x1
    eb5b:	e8 90 1e ff ff       	call   9f0 <exit@plt>

000000000000eb60 <systemInit000>:
    eb60:	48 8d 35 09 d9 ff ff 	lea    rsi,[rip+0xffffffffffffd909]        # c470 <signalHandler>
    eb67:	48 83 ec 08          	sub    rsp,0x8
    eb6b:	bf 02 00 00 00       	mov    edi,0x2
    eb70:	e8 2b 1e ff ff       	call   9a0 <signal@plt>
    eb75:	48 83 3d 93 68 20 00 	cmp    QWORD PTR [rip+0x206893],0x0        # 215410 <nimInErrorMode__759bT87luu8XGcbkw13FUjA>
    eb7c:	00 
    eb7d:	0f 85 85 00 00 00    	jne    ec08 <systemInit000+0xa8>
    eb83:	48 8d 35 e6 d8 ff ff 	lea    rsi,[rip+0xffffffffffffd8e6]        # c470 <signalHandler>
    eb8a:	bf 0b 00 00 00       	mov    edi,0xb
    eb8f:	e8 0c 1e ff ff       	call   9a0 <signal@plt>
    eb94:	48 83 3d 74 68 20 00 	cmp    QWORD PTR [rip+0x206874],0x0        # 215410 <nimInErrorMode__759bT87luu8XGcbkw13FUjA>
    eb9b:	00 
    eb9c:	75 6a                	jne    ec08 <systemInit000+0xa8>
    eb9e:	48 8d 35 cb d8 ff ff 	lea    rsi,[rip+0xffffffffffffd8cb]        # c470 <signalHandler>
    eba5:	bf 06 00 00 00       	mov    edi,0x6
    ebaa:	e8 f1 1d ff ff       	call   9a0 <signal@plt>
    ebaf:	48 83 3d 59 68 20 00 	cmp    QWORD PTR [rip+0x206859],0x0        # 215410 <nimInErrorMode__759bT87luu8XGcbkw13FUjA>
    ebb6:	00 
    ebb7:	75 4f                	jne    ec08 <systemInit000+0xa8>
    ebb9:	48 8d 35 b0 d8 ff ff 	lea    rsi,[rip+0xffffffffffffd8b0]        # c470 <signalHandler>
    ebc0:	bf 08 00 00 00       	mov    edi,0x8
    ebc5:	e8 d6 1d ff ff       	call   9a0 <signal@plt>
    ebca:	48 83 3d 3e 68 20 00 	cmp    QWORD PTR [rip+0x20683e],0x0        # 215410 <nimInErrorMode__759bT87luu8XGcbkw13FUjA>
    ebd1:	00 
    ebd2:	75 34                	jne    ec08 <systemInit000+0xa8>
    ebd4:	48 8d 35 95 d8 ff ff 	lea    rsi,[rip+0xffffffffffffd895]        # c470 <signalHandler>
    ebdb:	bf 04 00 00 00       	mov    edi,0x4
    ebe0:	e8 bb 1d ff ff       	call   9a0 <signal@plt>
    ebe5:	48 83 3d 23 68 20 00 	cmp    QWORD PTR [rip+0x206823],0x0        # 215410 <nimInErrorMode__759bT87luu8XGcbkw13FUjA>
    ebec:	00 
    ebed:	75 19                	jne    ec08 <systemInit000+0xa8>
    ebef:	48 8d 35 7a d8 ff ff 	lea    rsi,[rip+0xffffffffffffd87a]        # c470 <signalHandler>
    ebf6:	bf 0d 00 00 00       	mov    edi,0xd
    ebfb:	48 83 c4 08          	add    rsp,0x8
    ebff:	e9 9c 1d ff ff       	jmp    9a0 <signal@plt>
    ec04:	0f 1f 40 00          	nop    DWORD PTR [rax+0x0]
    ec08:	48 83 c4 08          	add    rsp,0x8
    ec0c:	c3                   	ret    
    ec0d:	0f 1f 00             	nop    DWORD PTR [rax]

000000000000ec10 <systemDatInit000>:
    ec10:	48 8d 05 c9 c1 ff ff 	lea    rax,[rip+0xffffffffffffc1c9]        # ade0 <eqdestroy___SJcVq9aHUKEeQF6mKDkE6pw>
    ec17:	48 c7 05 46 68 20 00 	mov    QWORD PTR [rip+0x206846],0x48        # 215468 <NTI__Ss6DFlX5iSZpHRZDmP74bg_+0x8>
    ec1e:	48 00 00 00 
    ec22:	48 c7 05 4b 68 20 00 	mov    QWORD PTR [rip+0x20684b],0x0        # 215478 <NTI__Ss6DFlX5iSZpHRZDmP74bg_+0x18>
    ec29:	00 00 00 00 
    ec2d:	48 c7 05 48 68 20 00 	mov    QWORD PTR [rip+0x206848],0x0        # 215480 <NTI__Ss6DFlX5iSZpHRZDmP74bg_+0x20>
    ec34:	00 00 00 00 
    ec38:	48 c7 05 a5 67 20 00 	mov    QWORD PTR [rip+0x2067a5],0x48        # 2153e8 <NTI__8inKGns6i1OoXN9aLZwcSOw_+0x8>
    ec3f:	48 00 00 00 
    ec43:	48 89 05 16 68 20 00 	mov    QWORD PTR [rip+0x206816],rax        # 215460 <NTI__Ss6DFlX5iSZpHRZDmP74bg_>
    ec4a:	48 8d 05 47 07 00 00 	lea    rax,[rip+0x747]        # f398 <_IO_stdin_used+0x158>
    ec51:	48 c7 05 9c 67 20 00 	mov    QWORD PTR [rip+0x20679c],0x0        # 2153f8 <NTI__8inKGns6i1OoXN9aLZwcSOw_+0x18>
    ec58:	00 00 00 00 
    ec5c:	48 c7 05 99 67 20 00 	mov    QWORD PTR [rip+0x206799],0x0        # 215400 <NTI__8inKGns6i1OoXN9aLZwcSOw_+0x20>
    ec63:	00 00 00 00 
    ec67:	48 c7 05 36 68 20 00 	mov    QWORD PTR [rip+0x206836],0x48        # 2154a8 <NTI__vASt1Zy2CLWqyBeLxcXqow_+0x8>
    ec6e:	48 00 00 00 
    ec72:	48 89 05 f7 67 20 00 	mov    QWORD PTR [rip+0x2067f7],rax        # 215470 <NTI__Ss6DFlX5iSZpHRZDmP74bg_+0x10>
    ec79:	48 8d 05 a0 bb ff ff 	lea    rax,[rip+0xffffffffffffbba0]        # a820 <eqdestroy___p2qOs6FbMz4AMrZbQK62BQ>
    ec80:	48 c7 05 2d 68 20 00 	mov    QWORD PTR [rip+0x20682d],0x0        # 2154b8 <NTI__vASt1Zy2CLWqyBeLxcXqow_+0x18>
    ec87:	00 00 00 00 
    ec8b:	48 c7 05 2a 68 20 00 	mov    QWORD PTR [rip+0x20682a],0x0        # 2154c0 <NTI__vASt1Zy2CLWqyBeLxcXqow_+0x20>
    ec92:	00 00 00 00 
    ec96:	48 c7 05 87 67 20 00 	mov    QWORD PTR [rip+0x206787],0x48        # 215428 <NTI__GOcOTSJVFwA9bjh66gBCclQ_+0x8>
    ec9d:	48 00 00 00 
    eca1:	48 89 05 38 67 20 00 	mov    QWORD PTR [rip+0x206738],rax        # 2153e0 <NTI__8inKGns6i1OoXN9aLZwcSOw_>
    eca8:	48 8d 05 29 07 00 00 	lea    rax,[rip+0x729]        # f3d8 <_IO_stdin_used+0x198>
    ecaf:	48 c7 05 7e 67 20 00 	mov    QWORD PTR [rip+0x20677e],0x0        # 215438 <NTI__GOcOTSJVFwA9bjh66gBCclQ_+0x18>
    ecb6:	00 00 00 00 
    ecba:	48 c7 05 7b 67 20 00 	mov    QWORD PTR [rip+0x20677b],0x0        # 215440 <NTI__GOcOTSJVFwA9bjh66gBCclQ_+0x20>
    ecc1:	00 00 00 00 
    ecc5:	48 c7 05 b8 66 20 00 	mov    QWORD PTR [rip+0x2066b8],0x48        # 215388 <NTI__K39aEGuwNdydKn2WFEpUygg_+0x8>
    eccc:	48 00 00 00 
    ecd0:	48 89 05 19 67 20 00 	mov    QWORD PTR [rip+0x206719],rax        # 2153f0 <NTI__8inKGns6i1OoXN9aLZwcSOw_+0x10>
    ecd7:	48 8d 05 92 bf ff ff 	lea    rax,[rip+0xffffffffffffbf92]        # ac70 <eqdestroy___CiaBzGuSuzPVhX0vLVmlsg>
    ecde:	48 c7 05 af 66 20 00 	mov    QWORD PTR [rip+0x2066af],0x0        # 215398 <NTI__K39aEGuwNdydKn2WFEpUygg_+0x18>
    ece5:	00 00 00 00 
    ece9:	48 c7 05 ac 66 20 00 	mov    QWORD PTR [rip+0x2066ac],0x0        # 2153a0 <NTI__K39aEGuwNdydKn2WFEpUygg_+0x20>
    ecf0:	00 00 00 00 
    ecf4:	48 89 05 a5 67 20 00 	mov    QWORD PTR [rip+0x2067a5],rax        # 2154a0 <NTI__vASt1Zy2CLWqyBeLxcXqow_>
    ecfb:	48 8d 05 fe 06 00 00 	lea    rax,[rip+0x6fe]        # f400 <_IO_stdin_used+0x1c0>
    ed02:	48 89 05 a7 67 20 00 	mov    QWORD PTR [rip+0x2067a7],rax        # 2154b0 <NTI__vASt1Zy2CLWqyBeLxcXqow_+0x10>
    ed09:	48 8d 05 80 bc ff ff 	lea    rax,[rip+0xffffffffffffbc80]        # a990 <eqdestroy___sS6ejz4UvAmG5PeEn1axqQ>
    ed10:	48 89 05 09 67 20 00 	mov    QWORD PTR [rip+0x206709],rax        # 215420 <NTI__GOcOTSJVFwA9bjh66gBCclQ_>
    ed17:	48 8d 05 22 07 00 00 	lea    rax,[rip+0x722]        # f440 <_IO_stdin_used+0x200>
    ed1e:	48 89 05 0b 67 20 00 	mov    QWORD PTR [rip+0x20670b],rax        # 215430 <NTI__GOcOTSJVFwA9bjh66gBCclQ_+0x10>
    ed25:	48 8d 05 d4 bd ff ff 	lea    rax,[rip+0xffffffffffffbdd4]        # ab00 <eqdestroy___sRq6fVNuRqehA44ZL38Jbw>
    ed2c:	48 89 05 4d 66 20 00 	mov    QWORD PTR [rip+0x20664d],rax        # 215380 <NTI__K39aEGuwNdydKn2WFEpUygg_>
    ed33:	48 8d 05 36 07 00 00 	lea    rax,[rip+0x736]        # f470 <_IO_stdin_used+0x230>
    ed3a:	48 89 05 4f 66 20 00 	mov    QWORD PTR [rip+0x20664f],rax        # 215390 <NTI__K39aEGuwNdydKn2WFEpUygg_+0x10>
    ed41:	c3                   	ret    
    ed42:	66 2e 0f 1f 84 00 00 	nop    WORD PTR cs:[rax+rax*1+0x0]
    ed49:	00 00 00 
    ed4c:	0f 1f 40 00          	nop    DWORD PTR [rax+0x0]

000000000000ed50 <roof___e6fgxN584SyDK8XF8s1uig>:
    ed50:	53                   	push   rbx
    ed51:	48 83 ec 10          	sub    rsp,0x10
    ed55:	48 83 fe 01          	cmp    rsi,0x1
    ed59:	74 20                	je     ed7b <roof___e6fgxN584SyDK8XF8s1uig+0x2b>
    ed5b:	48 89 f3             	mov    rbx,rsi
    ed5e:	7e 40                	jle    eda0 <roof___e6fgxN584SyDK8XF8s1uig+0x50>
    ed60:	48 83 fe 02          	cmp    rsi,0x2
    ed64:	74 22                	je     ed88 <roof___e6fgxN584SyDK8XF8s1uig+0x38>
    ed66:	48 83 fe 03          	cmp    rsi,0x3
    ed6a:	75 3e                	jne    edaa <roof___e6fgxN584SyDK8XF8s1uig+0x5a>
    ed6c:	48 89 f8             	mov    rax,rdi
    ed6f:	48 0f af c7          	imul   rax,rdi
    ed73:	70 19                	jo     ed8e <roof___e6fgxN584SyDK8XF8s1uig+0x3e>
    ed75:	48 0f af f8          	imul   rdi,rax
    ed79:	70 13                	jo     ed8e <roof___e6fgxN584SyDK8XF8s1uig+0x3e>
    ed7b:	48 89 f8             	mov    rax,rdi
    ed7e:	48 83 c4 10          	add    rsp,0x10
    ed82:	5b                   	pop    rbx
    ed83:	c3                   	ret    
    ed84:	0f 1f 40 00          	nop    DWORD PTR [rax+0x0]
    ed88:	48 0f af ff          	imul   rdi,rdi
    ed8c:	71 ed                	jno    ed7b <roof___e6fgxN584SyDK8XF8s1uig+0x2b>
    ed8e:	e8 ad aa ff ff       	call   9840 <raiseOverflow>
    ed93:	48 83 c4 10          	add    rsp,0x10
    ed97:	31 c0                	xor    eax,eax
    ed99:	5b                   	pop    rbx
    ed9a:	c3                   	ret    
    ed9b:	0f 1f 44 00 00       	nop    DWORD PTR [rax+rax*1+0x0]
    eda0:	48 85 f6             	test   rsi,rsi
    eda3:	b8 01 00 00 00       	mov    eax,0x1
    eda8:	74 d4                	je     ed7e <roof___e6fgxN584SyDK8XF8s1uig+0x2e>
    edaa:	b8 01 00 00 00       	mov    eax,0x1
    edaf:	eb 15                	jmp    edc6 <roof___e6fgxN584SyDK8XF8s1uig+0x76>
    edb1:	0f 1f 80 00 00 00 00 	nop    DWORD PTR [rax+0x0]
    edb8:	74 c4                	je     ed7e <roof___e6fgxN584SyDK8XF8s1uig+0x2e>
    edba:	48 89 fa             	mov    rdx,rdi
    edbd:	48 0f af d7          	imul   rdx,rdi
    edc1:	70 3b                	jo     edfe <roof___e6fgxN584SyDK8XF8s1uig+0xae>
    edc3:	48 89 d7             	mov    rdi,rdx
    edc6:	f6 c3 01             	test   bl,0x1
    edc9:	74 0c                	je     edd7 <roof___e6fgxN584SyDK8XF8s1uig+0x87>
    edcb:	48 89 c2             	mov    rdx,rax
    edce:	48 0f af d7          	imul   rdx,rdi
    edd2:	70 43                	jo     ee17 <roof___e6fgxN584SyDK8XF8s1uig+0xc7>
    edd4:	48 89 d0             	mov    rax,rdx
    edd7:	48 d1 fb             	sar    rbx,1
    edda:	79 dc                	jns    edb8 <roof___e6fgxN584SyDK8XF8s1uig+0x68>
    eddc:	48 89 df             	mov    rdi,rbx
    eddf:	48 ba ff ff ff ff ff 	movabs rdx,0x7fffffffffffffff
    ede6:	ff ff 7f 
    ede9:	31 f6                	xor    esi,esi
    edeb:	48 89 04 24          	mov    QWORD PTR [rsp],rax
    edef:	e8 ec a1 ff ff       	call   8fe0 <raiseRangeErrorI>
    edf4:	48 8b 04 24          	mov    rax,QWORD PTR [rsp]
    edf8:	48 83 c4 10          	add    rsp,0x10
    edfc:	5b                   	pop    rbx
    edfd:	c3                   	ret    
    edfe:	48 89 7c 24 08       	mov    QWORD PTR [rsp+0x8],rdi
    ee03:	48 89 04 24          	mov    QWORD PTR [rsp],rax
    ee07:	e8 34 aa ff ff       	call   9840 <raiseOverflow>
    ee0c:	48 8b 04 24          	mov    rax,QWORD PTR [rsp]
    ee10:	48 8b 7c 24 08       	mov    rdi,QWORD PTR [rsp+0x8]
    ee15:	eb af                	jmp    edc6 <roof___e6fgxN584SyDK8XF8s1uig+0x76>
    ee17:	48 89 7c 24 08       	mov    QWORD PTR [rsp+0x8],rdi
    ee1c:	48 89 04 24          	mov    QWORD PTR [rsp],rax
    ee20:	e8 1b aa ff ff       	call   9840 <raiseOverflow>
    ee25:	48 8b 7c 24 08       	mov    rdi,QWORD PTR [rsp+0x8]
    ee2a:	48 8b 04 24          	mov    rax,QWORD PTR [rsp]
    ee2e:	eb a7                	jmp    edd7 <roof___e6fgxN584SyDK8XF8s1uig+0x87>

000000000000ee30 <PreMainInner>:
    ee30:	f3 c3                	repz ret 
    ee32:	0f 1f 40 00          	nop    DWORD PTR [rax+0x0]
    ee36:	66 2e 0f 1f 84 00 00 	nop    WORD PTR cs:[rax+rax*1+0x0]
    ee3d:	00 00 00 

000000000000ee40 <NimMainInner>:
    ee40:	55                   	push   rbp
    ee41:	53                   	push   rbx
    ee42:	be 02 00 00 00       	mov    esi,0x2
    ee47:	bf 76 0d 00 00       	mov    edi,0xd76
    ee4c:	48 83 ec 48          	sub    rsp,0x48
    ee50:	48 c7 05 b5 65 20 00 	mov    QWORD PTR [rip+0x2065b5],0x0        # 215410 <nimInErrorMode__759bT87luu8XGcbkw13FUjA>
    ee57:	00 00 00 00 
    ee5b:	64 48 8b 04 25 28 00 	mov    rax,QWORD PTR fs:0x28
    ee62:	00 00 
    ee64:	48 89 44 24 38       	mov    QWORD PTR [rsp+0x38],rax
    ee69:	31 c0                	xor    eax,eax
    ee6b:	48 c7 44 24 10 00 00 	mov    QWORD PTR [rsp+0x10],0x0
    ee72:	00 00 
    ee74:	48 c7 44 24 18 00 00 	mov    QWORD PTR [rsp+0x18],0x0
    ee7b:	00 00 
    ee7d:	e8 ce fe ff ff       	call   ed50 <roof___e6fgxN584SyDK8XF8s1uig>
    ee82:	48 8b 2d 87 65 20 00 	mov    rbp,QWORD PTR [rip+0x206587]        # 215410 <nimInErrorMode__759bT87luu8XGcbkw13FUjA>
    ee89:	48 85 ed             	test   rbp,rbp
    ee8c:	0f 85 d6 00 00 00    	jne    ef68 <NimMainInner+0x128>
    ee92:	be 02 00 00 00       	mov    esi,0x2
    ee97:	bf 68 11 00 00       	mov    edi,0x1168
    ee9c:	48 89 c3             	mov    rbx,rax
    ee9f:	e8 ac fe ff ff       	call   ed50 <roof___e6fgxN584SyDK8XF8s1uig>
    eea4:	48 8b 2d 65 65 20 00 	mov    rbp,QWORD PTR [rip+0x206565]        # 215410 <nimInErrorMode__759bT87luu8XGcbkw13FUjA>
    eeab:	48 85 ed             	test   rbp,rbp
    eeae:	0f 85 b4 00 00 00    	jne    ef68 <NimMainInner+0x128>
    eeb4:	48 01 c3             	add    rbx,rax
    eeb7:	0f 80 b7 00 00 00    	jo     ef74 <NimMainInner+0x134>
    eebd:	66 0f ef c0          	pxor   xmm0,xmm0
    eec1:	66 0f ef d2          	pxor   xmm2,xmm2
    eec5:	f2 48 0f 2a c3       	cvtsi2sd xmm0,rbx
    eeca:	66 0f 2e d0          	ucomisd xmm2,xmm0
    eece:	f2 0f 51 c8          	sqrtsd xmm1,xmm0
    eed2:	77 70                	ja     ef44 <NimMainInner+0x104>
    eed4:	66 0f 28 c1          	movapd xmm0,xmm1
    eed8:	48 8d 5c 24 10       	lea    rbx,[rsp+0x10]
    eedd:	e8 be d8 ff ff       	call   c7a0 <nimFloatToStr>
    eee2:	48 89 df             	mov    rdi,rbx
    eee5:	48 89 c6             	mov    rsi,rax
    eee8:	e8 f3 48 ff ff       	call   37e0 <eqsink___aBBXmHFBEivKqERloP6zmA>
    eeed:	66 0f 6f 44 24 10    	movdqa xmm0,XMMWORD PTR [rsp+0x10]
    eef3:	48 8d 7c 24 20       	lea    rdi,[rsp+0x20]
    eef8:	be 01 00 00 00       	mov    esi,0x1
    eefd:	0f 29 44 24 20       	movaps XMMWORD PTR [rsp+0x20],xmm0
    ef02:	e8 39 1e ff ff       	call   d40 <echoBinSafe>
    ef07:	48 8b 2d 02 65 20 00 	mov    rbp,QWORD PTR [rip+0x206502]        # 215410 <nimInErrorMode__759bT87luu8XGcbkw13FUjA>
    ef0e:	48 89 df             	mov    rdi,rbx
    ef11:	48 c7 05 f4 64 20 00 	mov    QWORD PTR [rip+0x2064f4],0x0        # 215410 <nimInErrorMode__759bT87luu8XGcbkw13FUjA>
    ef18:	00 00 00 00 
    ef1c:	e8 6f 48 ff ff       	call   3790 <eqdestroy___dS1BF3Vxjg9aJMmmhVJKSpQ>
    ef21:	48 01 2d e8 64 20 00 	add    QWORD PTR [rip+0x2064e8],rbp        # 215410 <nimInErrorMode__759bT87luu8XGcbkw13FUjA>
    ef28:	e8 f3 fb ff ff       	call   eb20 <nimTestErrorFlag>
    ef2d:	48 8b 44 24 38       	mov    rax,QWORD PTR [rsp+0x38]
    ef32:	64 48 33 04 25 28 00 	xor    rax,QWORD PTR fs:0x28
    ef39:	00 00 
    ef3b:	75 32                	jne    ef6f <NimMainInner+0x12f>
    ef3d:	48 83 c4 48          	add    rsp,0x48
    ef41:	5b                   	pop    rbx
    ef42:	5d                   	pop    rbp
    ef43:	c3                   	ret    
    ef44:	f2 0f 11 4c 24 08    	movsd  QWORD PTR [rsp+0x8],xmm1
    ef4a:	e8 c1 1a ff ff       	call   a10 <sqrt@plt>
    ef4f:	f2 0f 10 4c 24 08    	movsd  xmm1,QWORD PTR [rsp+0x8]
    ef55:	48 8b 2d b4 64 20 00 	mov    rbp,QWORD PTR [rip+0x2064b4]        # 215410 <nimInErrorMode__759bT87luu8XGcbkw13FUjA>
    ef5c:	48 85 ed             	test   rbp,rbp
    ef5f:	0f 84 6f ff ff ff    	je     eed4 <NimMainInner+0x94>
    ef65:	0f 1f 00             	nop    DWORD PTR [rax]
    ef68:	48 8d 5c 24 10       	lea    rbx,[rsp+0x10]
    ef6d:	eb 9f                	jmp    ef0e <NimMainInner+0xce>
    ef6f:	e8 ec 19 ff ff       	call   960 <__stack_chk_fail@plt>
    ef74:	e8 c7 a8 ff ff       	call   9840 <raiseOverflow>
    ef79:	66 0f ef c9          	pxor   xmm1,xmm1
    ef7d:	eb d6                	jmp    ef55 <NimMainInner+0x115>
    ef7f:	90                   	nop

000000000000ef80 <norm__OnnqquhnRT9aFOBsXs28Hwg>:
    ef80:	55                   	push   rbp
    ef81:	53                   	push   rbx
    ef82:	48 89 f5             	mov    rbp,rsi
    ef85:	be 02 00 00 00       	mov    esi,0x2
    ef8a:	48 83 ec 18          	sub    rsp,0x18
    ef8e:	e8 bd fd ff ff       	call   ed50 <roof___e6fgxN584SyDK8XF8s1uig>
    ef93:	48 83 3d 75 64 20 00 	cmp    QWORD PTR [rip+0x206475],0x0        # 215410 <nimInErrorMode__759bT87luu8XGcbkw13FUjA>
    ef9a:	00 
    ef9b:	75 46                	jne    efe3 <norm__OnnqquhnRT9aFOBsXs28Hwg+0x63>
    ef9d:	be 02 00 00 00       	mov    esi,0x2
    efa2:	48 89 ef             	mov    rdi,rbp
    efa5:	48 89 c3             	mov    rbx,rax
    efa8:	e8 a3 fd ff ff       	call   ed50 <roof___e6fgxN584SyDK8XF8s1uig>
    efad:	48 83 3d 5b 64 20 00 	cmp    QWORD PTR [rip+0x20645b],0x0        # 215410 <nimInErrorMode__759bT87luu8XGcbkw13FUjA>
    efb4:	00 
    efb5:	75 2c                	jne    efe3 <norm__OnnqquhnRT9aFOBsXs28Hwg+0x63>
    efb7:	48 01 c3             	add    rbx,rax
    efba:	70 22                	jo     efde <norm__OnnqquhnRT9aFOBsXs28Hwg+0x5e>
    efbc:	66 0f ef c0          	pxor   xmm0,xmm0
    efc0:	66 0f ef d2          	pxor   xmm2,xmm2
    efc4:	f2 48 0f 2a c3       	cvtsi2sd xmm0,rbx
    efc9:	66 0f 2e d0          	ucomisd xmm2,xmm0
    efcd:	f2 0f 51 c8          	sqrtsd xmm1,xmm0
    efd1:	77 1f                	ja     eff2 <norm__OnnqquhnRT9aFOBsXs28Hwg+0x72>
    efd3:	48 83 c4 18          	add    rsp,0x18
    efd7:	66 0f 28 c1          	movapd xmm0,xmm1
    efdb:	5b                   	pop    rbx
    efdc:	5d                   	pop    rbp
    efdd:	c3                   	ret    
    efde:	e8 5d a8 ff ff       	call   9840 <raiseOverflow>
    efe3:	66 0f ef c9          	pxor   xmm1,xmm1
    efe7:	48 83 c4 18          	add    rsp,0x18
    efeb:	5b                   	pop    rbx
    efec:	5d                   	pop    rbp
    efed:	66 0f 28 c1          	movapd xmm0,xmm1
    eff1:	c3                   	ret    
    eff2:	f2 0f 11 4c 24 08    	movsd  QWORD PTR [rsp+0x8],xmm1
    eff8:	e8 13 1a ff ff       	call   a10 <sqrt@plt>
    effd:	f2 0f 10 4c 24 08    	movsd  xmm1,QWORD PTR [rsp+0x8]
    f003:	eb ce                	jmp    efd3 <norm__OnnqquhnRT9aFOBsXs28Hwg+0x53>
    f005:	90                   	nop
    f006:	66 2e 0f 1f 84 00 00 	nop    WORD PTR cs:[rax+rax*1+0x0]
    f00d:	00 00 00 

000000000000f010 <PreMain>:
    f010:	48 8d 05 19 fe ff ff 	lea    rax,[rip+0xfffffffffffffe19]        # ee30 <PreMainInner>
    f017:	48 83 ec 18          	sub    rsp,0x18
    f01b:	48 89 44 24 08       	mov    QWORD PTR [rsp+0x8],rax
    f020:	e8 eb fb ff ff       	call   ec10 <systemDatInit000>
    f025:	e8 36 fb ff ff       	call   eb60 <systemInit000>
    f02a:	48 8b 44 24 08       	mov    rax,QWORD PTR [rsp+0x8]
    f02f:	48 83 c4 18          	add    rsp,0x18
    f033:	ff e0                	jmp    rax
    f035:	90                   	nop
    f036:	66 2e 0f 1f 84 00 00 	nop    WORD PTR cs:[rax+rax*1+0x0]
    f03d:	00 00 00 

000000000000f040 <NimMain>:
    f040:	48 8d 05 e9 fd ff ff 	lea    rax,[rip+0xfffffffffffffde9]        # ee30 <PreMainInner>
    f047:	48 83 ec 18          	sub    rsp,0x18
    f04b:	48 89 44 24 08       	mov    QWORD PTR [rsp+0x8],rax
    f050:	e8 bb fb ff ff       	call   ec10 <systemDatInit000>
    f055:	e8 06 fb ff ff       	call   eb60 <systemInit000>
    f05a:	48 8b 44 24 08       	mov    rax,QWORD PTR [rsp+0x8]
    f05f:	ff d0                	call   rax
    f061:	48 8d 05 d8 fd ff ff 	lea    rax,[rip+0xfffffffffffffdd8]        # ee40 <NimMainInner>
    f068:	48 89 04 24          	mov    QWORD PTR [rsp],rax
    f06c:	48 8b 04 24          	mov    rax,QWORD PTR [rsp]
    f070:	48 83 c4 18          	add    rsp,0x18
    f074:	ff e0                	jmp    rax
    f076:	66 2e 0f 1f 84 00 00 	nop    WORD PTR cs:[rax+rax*1+0x0]
    f07d:	00 00 00 

000000000000f080 <NimMainModule>:
    f080:	55                   	push   rbp
    f081:	53                   	push   rbx
    f082:	be 02 00 00 00       	mov    esi,0x2
    f087:	bf 76 0d 00 00       	mov    edi,0xd76
    f08c:	48 83 ec 48          	sub    rsp,0x48
    f090:	48 c7 05 75 63 20 00 	mov    QWORD PTR [rip+0x206375],0x0        # 215410 <nimInErrorMode__759bT87luu8XGcbkw13FUjA>
    f097:	00 00 00 00 
    f09b:	64 48 8b 04 25 28 00 	mov    rax,QWORD PTR fs:0x28
    f0a2:	00 00 
    f0a4:	48 89 44 24 38       	mov    QWORD PTR [rsp+0x38],rax
    f0a9:	31 c0                	xor    eax,eax
    f0ab:	48 c7 44 24 10 00 00 	mov    QWORD PTR [rsp+0x10],0x0
    f0b2:	00 00 
    f0b4:	48 c7 44 24 18 00 00 	mov    QWORD PTR [rsp+0x18],0x0
    f0bb:	00 00 
    f0bd:	e8 8e fc ff ff       	call   ed50 <roof___e6fgxN584SyDK8XF8s1uig>
    f0c2:	48 8b 2d 47 63 20 00 	mov    rbp,QWORD PTR [rip+0x206347]        # 215410 <nimInErrorMode__759bT87luu8XGcbkw13FUjA>
    f0c9:	48 85 ed             	test   rbp,rbp
    f0cc:	0f 85 d6 00 00 00    	jne    f1a8 <NimMainModule+0x128>
    f0d2:	be 02 00 00 00       	mov    esi,0x2
    f0d7:	bf 68 11 00 00       	mov    edi,0x1168
    f0dc:	48 89 c3             	mov    rbx,rax
    f0df:	e8 6c fc ff ff       	call   ed50 <roof___e6fgxN584SyDK8XF8s1uig>
    f0e4:	48 8b 2d 25 63 20 00 	mov    rbp,QWORD PTR [rip+0x206325]        # 215410 <nimInErrorMode__759bT87luu8XGcbkw13FUjA>
    f0eb:	48 85 ed             	test   rbp,rbp
    f0ee:	0f 85 b4 00 00 00    	jne    f1a8 <NimMainModule+0x128>
    f0f4:	48 01 c3             	add    rbx,rax
    f0f7:	0f 80 b7 00 00 00    	jo     f1b4 <NimMainModule+0x134>
    f0fd:	66 0f ef c0          	pxor   xmm0,xmm0
    f101:	66 0f ef d2          	pxor   xmm2,xmm2
    f105:	f2 48 0f 2a c3       	cvtsi2sd xmm0,rbx
    f10a:	66 0f 2e d0          	ucomisd xmm2,xmm0
    f10e:	f2 0f 51 c8          	sqrtsd xmm1,xmm0
    f112:	77 70                	ja     f184 <NimMainModule+0x104>
    f114:	66 0f 28 c1          	movapd xmm0,xmm1
    f118:	48 8d 5c 24 10       	lea    rbx,[rsp+0x10]
    f11d:	e8 7e d6 ff ff       	call   c7a0 <nimFloatToStr>
    f122:	48 89 df             	mov    rdi,rbx
    f125:	48 89 c6             	mov    rsi,rax
    f128:	e8 b3 46 ff ff       	call   37e0 <eqsink___aBBXmHFBEivKqERloP6zmA>
    f12d:	66 0f 6f 44 24 10    	movdqa xmm0,XMMWORD PTR [rsp+0x10]
    f133:	48 8d 7c 24 20       	lea    rdi,[rsp+0x20]
    f138:	be 01 00 00 00       	mov    esi,0x1
    f13d:	0f 29 44 24 20       	movaps XMMWORD PTR [rsp+0x20],xmm0
    f142:	e8 f9 1b ff ff       	call   d40 <echoBinSafe>
    f147:	48 8b 2d c2 62 20 00 	mov    rbp,QWORD PTR [rip+0x2062c2]        # 215410 <nimInErrorMode__759bT87luu8XGcbkw13FUjA>
    f14e:	48 89 df             	mov    rdi,rbx
    f151:	48 c7 05 b4 62 20 00 	mov    QWORD PTR [rip+0x2062b4],0x0        # 215410 <nimInErrorMode__759bT87luu8XGcbkw13FUjA>
    f158:	00 00 00 00 
    f15c:	e8 2f 46 ff ff       	call   3790 <eqdestroy___dS1BF3Vxjg9aJMmmhVJKSpQ>
    f161:	48 01 2d a8 62 20 00 	add    QWORD PTR [rip+0x2062a8],rbp        # 215410 <nimInErrorMode__759bT87luu8XGcbkw13FUjA>
    f168:	e8 b3 f9 ff ff       	call   eb20 <nimTestErrorFlag>
    f16d:	48 8b 44 24 38       	mov    rax,QWORD PTR [rsp+0x38]
    f172:	64 48 33 04 25 28 00 	xor    rax,QWORD PTR fs:0x28
    f179:	00 00 
    f17b:	75 32                	jne    f1af <NimMainModule+0x12f>
    f17d:	48 83 c4 48          	add    rsp,0x48
    f181:	5b                   	pop    rbx
    f182:	5d                   	pop    rbp
    f183:	c3                   	ret    
    f184:	f2 0f 11 4c 24 08    	movsd  QWORD PTR [rsp+0x8],xmm1
    f18a:	e8 81 18 ff ff       	call   a10 <sqrt@plt>
    f18f:	f2 0f 10 4c 24 08    	movsd  xmm1,QWORD PTR [rsp+0x8]
    f195:	48 8b 2d 74 62 20 00 	mov    rbp,QWORD PTR [rip+0x206274]        # 215410 <nimInErrorMode__759bT87luu8XGcbkw13FUjA>
    f19c:	48 85 ed             	test   rbp,rbp
    f19f:	0f 84 6f ff ff ff    	je     f114 <NimMainModule+0x94>
    f1a5:	0f 1f 00             	nop    DWORD PTR [rax]
    f1a8:	48 8d 5c 24 10       	lea    rbx,[rsp+0x10]
    f1ad:	eb 9f                	jmp    f14e <NimMainModule+0xce>
    f1af:	e8 ac 17 ff ff       	call   960 <__stack_chk_fail@plt>
    f1b4:	e8 87 a6 ff ff       	call   9840 <raiseOverflow>
    f1b9:	66 0f ef c9          	pxor   xmm1,xmm1
    f1bd:	eb d6                	jmp    f195 <NimMainModule+0x115>
    f1bf:	90                   	nop

000000000000f1c0 <__libc_csu_init>:
    f1c0:	41 57                	push   r15
    f1c2:	41 56                	push   r14
    f1c4:	49 89 d7             	mov    r15,rdx
    f1c7:	41 55                	push   r13
    f1c9:	41 54                	push   r12
    f1cb:	4c 8d 25 66 2b 20 00 	lea    r12,[rip+0x202b66]        # 211d38 <__frame_dummy_init_array_entry>
    f1d2:	55                   	push   rbp
    f1d3:	48 8d 2d 66 2b 20 00 	lea    rbp,[rip+0x202b66]        # 211d40 <__init_array_end>
    f1da:	53                   	push   rbx
    f1db:	41 89 fd             	mov    r13d,edi
    f1de:	49 89 f6             	mov    r14,rsi
    f1e1:	4c 29 e5             	sub    rbp,r12
    f1e4:	48 83 ec 08          	sub    rsp,0x8
    f1e8:	48 c1 fd 03          	sar    rbp,0x3
    f1ec:	e8 27 17 ff ff       	call   918 <_init>
    f1f1:	48 85 ed             	test   rbp,rbp
    f1f4:	74 20                	je     f216 <__libc_csu_init+0x56>
    f1f6:	31 db                	xor    ebx,ebx
    f1f8:	0f 1f 84 00 00 00 00 	nop    DWORD PTR [rax+rax*1+0x0]
    f1ff:	00 
    f200:	4c 89 fa             	mov    rdx,r15
    f203:	4c 89 f6             	mov    rsi,r14
    f206:	44 89 ef             	mov    edi,r13d
    f209:	41 ff 14 dc          	call   QWORD PTR [r12+rbx*8]
    f20d:	48 83 c3 01          	add    rbx,0x1
    f211:	48 39 dd             	cmp    rbp,rbx
    f214:	75 ea                	jne    f200 <__libc_csu_init+0x40>
    f216:	48 83 c4 08          	add    rsp,0x8
    f21a:	5b                   	pop    rbx
    f21b:	5d                   	pop    rbp
    f21c:	41 5c                	pop    r12
    f21e:	41 5d                	pop    r13
    f220:	41 5e                	pop    r14
    f222:	41 5f                	pop    r15
    f224:	c3                   	ret    
    f225:	90                   	nop
    f226:	66 2e 0f 1f 84 00 00 	nop    WORD PTR cs:[rax+rax*1+0x0]
    f22d:	00 00 00 

000000000000f230 <__libc_csu_fini>:
    f230:	f3 c3                	repz ret 

Disassembly of section .fini:

000000000000f234 <_fini>:
    f234:	48 83 ec 08          	sub    rsp,0x8
    f238:	48 83 c4 08          	add    rsp,0x8
    f23c:	c3                   	ret    
