
distance2:     file format elf64-x86-64


Disassembly of section .init:

0000000000000918 <_init>:
 918:	48 83 ec 08          	sub    rsp,0x8
 91c:	48 8b 05 c5 16 21 00 	mov    rax,QWORD PTR [rip+0x2116c5]        # 211fe8 <__gmon_start__>
 923:	48 85 c0             	test   rax,rax
 926:	74 02                	je     92a <_init+0x12>
 928:	ff d0                	call   rax
 92a:	48 83 c4 08          	add    rsp,0x8
 92e:	c3                   	ret    

Disassembly of section .plt:

0000000000000930 <.plt>:
 930:	ff 35 1a 16 21 00    	push   QWORD PTR [rip+0x21161a]        # 211f50 <_GLOBAL_OFFSET_TABLE_+0x8>
 936:	ff 25 1c 16 21 00    	jmp    QWORD PTR [rip+0x21161c]        # 211f58 <_GLOBAL_OFFSET_TABLE_+0x10>
 93c:	0f 1f 40 00          	nop    DWORD PTR [rax+0x0]

0000000000000940 <funlockfile@plt>:
 940:	ff 25 1a 16 21 00    	jmp    QWORD PTR [rip+0x21161a]        # 211f60 <funlockfile@GLIBC_2.2.5>
 946:	68 00 00 00 00       	push   0x0
 94b:	e9 e0 ff ff ff       	jmp    930 <.plt>

0000000000000950 <strlen@plt>:
 950:	ff 25 12 16 21 00    	jmp    QWORD PTR [rip+0x211612]        # 211f68 <strlen@GLIBC_2.2.5>
 956:	68 01 00 00 00       	push   0x1
 95b:	e9 d0 ff ff ff       	jmp    930 <.plt>

0000000000000960 <__stack_chk_fail@plt>:
 960:	ff 25 0a 16 21 00    	jmp    QWORD PTR [rip+0x21160a]        # 211f70 <__stack_chk_fail@GLIBC_2.4>
 966:	68 02 00 00 00       	push   0x2
 96b:	e9 c0 ff ff ff       	jmp    930 <.plt>

0000000000000970 <mmap@plt>:
 970:	ff 25 02 16 21 00    	jmp    QWORD PTR [rip+0x211602]        # 211f78 <mmap@GLIBC_2.2.5>
 976:	68 03 00 00 00       	push   0x3
 97b:	e9 b0 ff ff ff       	jmp    930 <.plt>

0000000000000980 <memset@plt>:
 980:	ff 25 fa 15 21 00    	jmp    QWORD PTR [rip+0x2115fa]        # 211f80 <memset@GLIBC_2.2.5>
 986:	68 04 00 00 00       	push   0x4
 98b:	e9 a0 ff ff ff       	jmp    930 <.plt>

0000000000000990 <flockfile@plt>:
 990:	ff 25 f2 15 21 00    	jmp    QWORD PTR [rip+0x2115f2]        # 211f88 <flockfile@GLIBC_2.2.5>
 996:	68 05 00 00 00       	push   0x5
 99b:	e9 90 ff ff ff       	jmp    930 <.plt>

00000000000009a0 <signal@plt>:
 9a0:	ff 25 ea 15 21 00    	jmp    QWORD PTR [rip+0x2115ea]        # 211f90 <signal@GLIBC_2.2.5>
 9a6:	68 06 00 00 00       	push   0x6
 9ab:	e9 80 ff ff ff       	jmp    930 <.plt>

00000000000009b0 <__memcpy_chk@plt>:
 9b0:	ff 25 e2 15 21 00    	jmp    QWORD PTR [rip+0x2115e2]        # 211f98 <__memcpy_chk@GLIBC_2.3.4>
 9b6:	68 07 00 00 00       	push   0x7
 9bb:	e9 70 ff ff ff       	jmp    930 <.plt>

00000000000009c0 <memcpy@plt>:
 9c0:	ff 25 da 15 21 00    	jmp    QWORD PTR [rip+0x2115da]        # 211fa0 <memcpy@GLIBC_2.14>
 9c6:	68 08 00 00 00       	push   0x8
 9cb:	e9 60 ff ff ff       	jmp    930 <.plt>

00000000000009d0 <fflush@plt>:
 9d0:	ff 25 d2 15 21 00    	jmp    QWORD PTR [rip+0x2115d2]        # 211fa8 <fflush@GLIBC_2.2.5>
 9d6:	68 09 00 00 00       	push   0x9
 9db:	e9 50 ff ff ff       	jmp    930 <.plt>

00000000000009e0 <munmap@plt>:
 9e0:	ff 25 ca 15 21 00    	jmp    QWORD PTR [rip+0x2115ca]        # 211fb0 <munmap@GLIBC_2.2.5>
 9e6:	68 0a 00 00 00       	push   0xa
 9eb:	e9 40 ff ff ff       	jmp    930 <.plt>

00000000000009f0 <exit@plt>:
 9f0:	ff 25 c2 15 21 00    	jmp    QWORD PTR [rip+0x2115c2]        # 211fb8 <exit@GLIBC_2.2.5>
 9f6:	68 0b 00 00 00       	push   0xb
 9fb:	e9 30 ff ff ff       	jmp    930 <.plt>

0000000000000a00 <fwrite@plt>:
 a00:	ff 25 ba 15 21 00    	jmp    QWORD PTR [rip+0x2115ba]        # 211fc0 <fwrite@GLIBC_2.2.5>
 a06:	68 0c 00 00 00       	push   0xc
 a0b:	e9 20 ff ff ff       	jmp    930 <.plt>

0000000000000a10 <sqrt@plt>:
 a10:	ff 25 b2 15 21 00    	jmp    QWORD PTR [rip+0x2115b2]        # 211fc8 <sqrt@GLIBC_2.2.5>
 a16:	68 0d 00 00 00       	push   0xd
 a1b:	e9 10 ff ff ff       	jmp    930 <.plt>

0000000000000a20 <__sprintf_chk@plt>:
 a20:	ff 25 aa 15 21 00    	jmp    QWORD PTR [rip+0x2115aa]        # 211fd0 <__sprintf_chk@GLIBC_2.3.4>
 a26:	68 0e 00 00 00       	push   0xe
 a2b:	e9 00 ff ff ff       	jmp    930 <.plt>

Disassembly of section .plt.got:

0000000000000a30 <__cxa_finalize@plt>:
 a30:	ff 25 c2 15 21 00    	jmp    QWORD PTR [rip+0x2115c2]        # 211ff8 <__cxa_finalize@GLIBC_2.2.5>
 a36:	66 90                	xchg   ax,ax

Disassembly of section .text:

0000000000000a40 <main>:
     a40:	48 83 ec 18          	sub    rsp,0x18
     a44:	48 89 35 85 4a 21 00 	mov    QWORD PTR [rip+0x214a85],rsi        # 2154d0 <cmdLine>
     a4b:	89 3d 77 4a 21 00    	mov    DWORD PTR [rip+0x214a77],edi        # 2154c8 <cmdCount>
     a51:	48 89 15 80 4a 21 00 	mov    QWORD PTR [rip+0x214a80],rdx        # 2154d8 <gEnv>
     a58:	e8 b3 e5 00 00       	call   f010 <PreMain>
     a5d:	48 8d 05 dc e3 00 00 	lea    rax,[rip+0xe3dc]        # ee40 <NimMainInner>
     a64:	48 89 44 24 08       	mov    QWORD PTR [rsp+0x8],rax
     a69:	48 8b 44 24 08       	mov    rax,QWORD PTR [rsp+0x8]
     a6e:	ff d0                	call   rax
     a70:	8b 05 3a 49 21 00    	mov    eax,DWORD PTR [rip+0x21493a]        # 2153b0 <nim_program_result>
     a76:	48 83 c4 18          	add    rsp,0x18
     a7a:	c3                   	ret    
     a7b:	0f 1f 44 00 00       	nop    DWORD PTR [rax+rax*1+0x0]

0000000000000a80 <_start>:
     a80:	31 ed                	xor    ebp,ebp
     a82:	49 89 d1             	mov    r9,rdx
     a85:	5e                   	pop    rsi
     a86:	48 89 e2             	mov    rdx,rsp
     a89:	48 83 e4 f0          	and    rsp,0xfffffffffffffff0
     a8d:	50                   	push   rax
     a8e:	54                   	push   rsp
     a8f:	4c 8d 05 9a e7 00 00 	lea    r8,[rip+0xe79a]        # f230 <__libc_csu_fini>
     a96:	48 8d 0d 23 e7 00 00 	lea    rcx,[rip+0xe723]        # f1c0 <__libc_csu_init>
     a9d:	48 8d 3d 9c ff ff ff 	lea    rdi,[rip+0xffffffffffffff9c]        # a40 <main>
     aa4:	ff 15 36 15 21 00    	call   QWORD PTR [rip+0x211536]        # 211fe0 <__libc_start_main@GLIBC_2.2.5>
     aaa:	f4                   	hlt    
     aab:	0f 1f 44 00 00       	nop    DWORD PTR [rax+rax*1+0x0]

0000000000000ab0 <deregister_tm_clones>:
     ab0:	48 8d 3d 59 15 21 00 	lea    rdi,[rip+0x211559]        # 212010 <__TMC_END__>
     ab7:	55                   	push   rbp
     ab8:	48 8d 05 51 15 21 00 	lea    rax,[rip+0x211551]        # 212010 <__TMC_END__>
     abf:	48 39 f8             	cmp    rax,rdi
     ac2:	48 89 e5             	mov    rbp,rsp
     ac5:	74 19                	je     ae0 <deregister_tm_clones+0x30>
     ac7:	48 8b 05 0a 15 21 00 	mov    rax,QWORD PTR [rip+0x21150a]        # 211fd8 <_ITM_deregisterTMCloneTable>
     ace:	48 85 c0             	test   rax,rax
     ad1:	74 0d                	je     ae0 <deregister_tm_clones+0x30>
     ad3:	5d                   	pop    rbp
     ad4:	ff e0                	jmp    rax
     ad6:	66 2e 0f 1f 84 00 00 	nop    WORD PTR cs:[rax+rax*1+0x0]
     add:	00 00 00 
     ae0:	5d                   	pop    rbp
     ae1:	c3                   	ret    
     ae2:	0f 1f 40 00          	nop    DWORD PTR [rax+0x0]
     ae6:	66 2e 0f 1f 84 00 00 	nop    WORD PTR cs:[rax+rax*1+0x0]
     aed:	00 00 00 

0000000000000af0 <register_tm_clones>:
     af0:	48 8d 3d 19 15 21 00 	lea    rdi,[rip+0x211519]        # 212010 <__TMC_END__>
     af7:	48 8d 35 12 15 21 00 	lea    rsi,[rip+0x211512]        # 212010 <__TMC_END__>
     afe:	55                   	push   rbp
     aff:	48 29 fe             	sub    rsi,rdi
     b02:	48 89 e5             	mov    rbp,rsp
     b05:	48 c1 fe 03          	sar    rsi,0x3
     b09:	48 89 f0             	mov    rax,rsi
     b0c:	48 c1 e8 3f          	shr    rax,0x3f
     b10:	48 01 c6             	add    rsi,rax
     b13:	48 d1 fe             	sar    rsi,1
     b16:	74 18                	je     b30 <register_tm_clones+0x40>
     b18:	48 8b 05 d1 14 21 00 	mov    rax,QWORD PTR [rip+0x2114d1]        # 211ff0 <_ITM_registerTMCloneTable>
     b1f:	48 85 c0             	test   rax,rax
     b22:	74 0c                	je     b30 <register_tm_clones+0x40>
     b24:	5d                   	pop    rbp
     b25:	ff e0                	jmp    rax
     b27:	66 0f 1f 84 00 00 00 	nop    WORD PTR [rax+rax*1+0x0]
     b2e:	00 00 
     b30:	5d                   	pop    rbp
     b31:	c3                   	ret    
     b32:	0f 1f 40 00          	nop    DWORD PTR [rax+0x0]
     b36:	66 2e 0f 1f 84 00 00 	nop    WORD PTR cs:[rax+rax*1+0x0]
     b3d:	00 00 00 

0000000000000b40 <__do_global_dtors_aux>:
     b40:	80 3d 01 15 21 00 00 	cmp    BYTE PTR [rip+0x211501],0x0        # 212048 <completed.7698>
     b47:	75 2f                	jne    b78 <__do_global_dtors_aux+0x38>
     b49:	48 83 3d a7 14 21 00 	cmp    QWORD PTR [rip+0x2114a7],0x0        # 211ff8 <__cxa_finalize@GLIBC_2.2.5>
     b50:	00 
     b51:	55                   	push   rbp
     b52:	48 89 e5             	mov    rbp,rsp
     b55:	74 0c                	je     b63 <__do_global_dtors_aux+0x23>
     b57:	48 8b 3d aa 14 21 00 	mov    rdi,QWORD PTR [rip+0x2114aa]        # 212008 <__dso_handle>
     b5e:	e8 cd fe ff ff       	call   a30 <__cxa_finalize@plt>
     b63:	e8 48 ff ff ff       	call   ab0 <deregister_tm_clones>
     b68:	c6 05 d9 14 21 00 01 	mov    BYTE PTR [rip+0x2114d9],0x1        # 212048 <completed.7698>
     b6f:	5d                   	pop    rbp
     b70:	c3                   	ret    
     b71:	0f 1f 80 00 00 00 00 	nop    DWORD PTR [rax+0x0]
     b78:	f3 c3                	repz ret 
     b7a:	66 0f 1f 44 00 00    	nop    WORD PTR [rax+rax*1+0x0]

0000000000000b80 <frame_dummy>:
     b80:	55                   	push   rbp
     b81:	48 89 e5             	mov    rbp,rsp
     b84:	5d                   	pop    rbp
     b85:	e9 66 ff ff ff       	jmp    af0 <register_tm_clones>
     b8a:	66 0f 1f 44 00 00    	nop    WORD PTR [rax+rax*1+0x0]

0000000000000b90 <writeToBuffer__Nntp3gW9b170LCR9cOWNy1tg>:
     b90:	0f b6 16             	movzx  edx,BYTE PTR [rsi]
     b93:	84 d2                	test   dl,dl
     b95:	74 18                	je     baf <writeToBuffer__Nntp3gW9b170LCR9cOWNy1tg+0x1f>
     b97:	31 c0                	xor    eax,eax
     b99:	0f 1f 80 00 00 00 00 	nop    DWORD PTR [rax+0x0]
     ba0:	88 14 07             	mov    BYTE PTR [rdi+rax*1],dl
     ba3:	48 83 c0 01          	add    rax,0x1
     ba7:	0f b6 14 06          	movzx  edx,BYTE PTR [rsi+rax*1]
     bab:	84 d2                	test   dl,dl
     bad:	75 f1                	jne    ba0 <writeToBuffer__Nntp3gW9b170LCR9cOWNy1tg+0x10>
     baf:	f3 c3                	repz ret 
     bb1:	0f 1f 44 00 00       	nop    DWORD PTR [rax+rax*1+0x0]
     bb6:	66 2e 0f 1f 84 00 00 	nop    WORD PTR cs:[rax+rax*1+0x0]
     bbd:	00 00 00 

0000000000000bc0 <writeFloatToBuffer__UrA9aquvUwHFUFx78eUQk3A>:
     bc0:	53                   	push   rbx
     bc1:	48 8d 0d 7c e6 00 00 	lea    rcx,[rip+0xe67c]        # f244 <_IO_stdin_used+0x4>
     bc8:	48 c7 c2 ff ff ff ff 	mov    rdx,0xffffffffffffffff
     bcf:	be 01 00 00 00       	mov    esi,0x1
     bd4:	b8 01 00 00 00       	mov    eax,0x1
     bd9:	48 89 fb             	mov    rbx,rdi
     bdc:	e8 3f fe ff ff       	call   a20 <__sprintf_chk@plt>
     be1:	48 8b 0d 28 48 21 00 	mov    rcx,QWORD PTR [rip+0x214828]        # 215410 <nimInErrorMode__759bT87luu8XGcbkw13FUjA>
     be8:	48 85 c9             	test   rcx,rcx
     beb:	0f 85 07 01 00 00    	jne    cf8 <writeFloatToBuffer__UrA9aquvUwHFUFx78eUQk3A+0x138>
     bf1:	4c 63 c0             	movsxd r8,eax
     bf4:	48 89 da             	mov    rdx,rbx
     bf7:	45 31 c9             	xor    r9d,r9d
     bfa:	4a 8d 04 03          	lea    rax,[rbx+r8*1]
     bfe:	eb 23                	jmp    c23 <writeFloatToBuffer__UrA9aquvUwHFUFx78eUQk3A+0x63>
     c00:	89 f7                	mov    edi,esi
     c02:	83 e7 df             	and    edi,0xffffffdf
     c05:	83 ef 41             	sub    edi,0x41
     c08:	40 80 ff 19          	cmp    dil,0x19
     c0c:	76 06                	jbe    c14 <writeFloatToBuffer__UrA9aquvUwHFUFx78eUQk3A+0x54>
     c0e:	40 80 fe 2e          	cmp    sil,0x2e
     c12:	75 06                	jne    c1a <writeFloatToBuffer__UrA9aquvUwHFUFx78eUQk3A+0x5a>
     c14:	41 b9 01 00 00 00    	mov    r9d,0x1
     c1a:	48 83 c2 01          	add    rdx,0x1
     c1e:	48 39 d0             	cmp    rax,rdx
     c21:	74 1b                	je     c3e <writeFloatToBuffer__UrA9aquvUwHFUFx78eUQk3A+0x7e>
     c23:	0f b6 32             	movzx  esi,BYTE PTR [rdx]
     c26:	40 80 fe 2c          	cmp    sil,0x2c
     c2a:	75 d4                	jne    c00 <writeFloatToBuffer__UrA9aquvUwHFUFx78eUQk3A+0x40>
     c2c:	c6 02 2e             	mov    BYTE PTR [rdx],0x2e
     c2f:	48 83 c2 01          	add    rdx,0x1
     c33:	41 b9 01 00 00 00    	mov    r9d,0x1
     c39:	48 39 d0             	cmp    rax,rdx
     c3c:	75 e5                	jne    c23 <writeFloatToBuffer__UrA9aquvUwHFUFx78eUQk3A+0x63>
     c3e:	45 84 c9             	test   r9b,r9b
     c41:	74 5d                	je     ca0 <writeFloatToBuffer__UrA9aquvUwHFUFx78eUQk3A+0xe0>
     c43:	4c 89 c0             	mov    rax,r8
     c46:	42 0f b6 74 03 ff    	movzx  esi,BYTE PTR [rbx+r8*1-0x1]
     c4c:	89 f2                	mov    edx,esi
     c4e:	83 e2 df             	and    edx,0xffffffdf
     c51:	80 fa 44             	cmp    dl,0x44
     c54:	40 0f 95 c7          	setne  dil
     c58:	80 fa 4e             	cmp    dl,0x4e
     c5b:	0f 95 c2             	setne  dl
     c5e:	40 84 d7             	test   dil,dl
     c61:	74 06                	je     c69 <writeFloatToBuffer__UrA9aquvUwHFUFx78eUQk3A+0xa9>
     c63:	40 80 fe 29          	cmp    sil,0x29
     c67:	75 57                	jne    cc0 <writeFloatToBuffer__UrA9aquvUwHFUFx78eUQk3A+0x100>
     c69:	48 8d 35 da e5 00 00 	lea    rsi,[rip+0xe5da]        # f24a <_IO_stdin_used+0xa>
     c70:	ba 6e 00 00 00       	mov    edx,0x6e
     c75:	0f 1f 00             	nop    DWORD PTR [rax]
     c78:	88 14 0b             	mov    BYTE PTR [rbx+rcx*1],dl
     c7b:	48 83 c1 01          	add    rcx,0x1
     c7f:	0f b6 14 0e          	movzx  edx,BYTE PTR [rsi+rcx*1]
     c83:	84 d2                	test   dl,dl
     c85:	75 f1                	jne    c78 <writeFloatToBuffer__UrA9aquvUwHFUFx78eUQk3A+0xb8>
     c87:	48 83 3d 81 47 21 00 	cmp    QWORD PTR [rip+0x214781],0x0        # 215410 <nimInErrorMode__759bT87luu8XGcbkw13FUjA>
     c8e:	00 
     c8f:	75 05                	jne    c96 <writeFloatToBuffer__UrA9aquvUwHFUFx78eUQk3A+0xd6>
     c91:	b8 03 00 00 00       	mov    eax,0x3
     c96:	5b                   	pop    rbx
     c97:	c3                   	ret    
     c98:	0f 1f 84 00 00 00 00 	nop    DWORD PTR [rax+rax*1+0x0]
     c9f:	00 
     ca0:	42 c6 04 03 2e       	mov    BYTE PTR [rbx+r8*1],0x2e
     ca5:	42 c6 44 03 01 30    	mov    BYTE PTR [rbx+r8*1+0x1],0x30
     cab:	49 8d 40 02          	lea    rax,[r8+0x2]
     caf:	42 c6 44 03 02 00    	mov    BYTE PTR [rbx+r8*1+0x2],0x0
     cb5:	eb 8f                	jmp    c46 <writeFloatToBuffer__UrA9aquvUwHFUFx78eUQk3A+0x86>
     cb7:	66 0f 1f 84 00 00 00 	nop    WORD PTR [rax+rax*1+0x0]
     cbe:	00 00 
     cc0:	40 80 fe 46          	cmp    sil,0x46
     cc4:	75 d0                	jne    c96 <writeFloatToBuffer__UrA9aquvUwHFUFx78eUQk3A+0xd6>
     cc6:	80 3b 2d             	cmp    BYTE PTR [rbx],0x2d
     cc9:	ba 69 00 00 00       	mov    edx,0x69
     cce:	48 8d 35 7a e5 00 00 	lea    rsi,[rip+0xe57a]        # f24f <_IO_stdin_used+0xf>
     cd5:	74 25                	je     cfc <writeFloatToBuffer__UrA9aquvUwHFUFx78eUQk3A+0x13c>
     cd7:	66 0f 1f 84 00 00 00 	nop    WORD PTR [rax+rax*1+0x0]
     cde:	00 00 
     ce0:	88 14 0b             	mov    BYTE PTR [rbx+rcx*1],dl
     ce3:	48 83 c1 01          	add    rcx,0x1
     ce7:	0f b6 14 0e          	movzx  edx,BYTE PTR [rsi+rcx*1]
     ceb:	84 d2                	test   dl,dl
     ced:	75 f1                	jne    ce0 <writeFloatToBuffer__UrA9aquvUwHFUFx78eUQk3A+0x120>
     cef:	eb 96                	jmp    c87 <writeFloatToBuffer__UrA9aquvUwHFUFx78eUQk3A+0xc7>
     cf1:	0f 1f 80 00 00 00 00 	nop    DWORD PTR [rax+0x0]
     cf8:	31 c0                	xor    eax,eax
     cfa:	5b                   	pop    rbx
     cfb:	c3                   	ret    
     cfc:	48 8d 35 4b e5 00 00 	lea    rsi,[rip+0xe54b]        # f24e <_IO_stdin_used+0xe>
     d03:	ba 2d 00 00 00       	mov    edx,0x2d
     d08:	0f 1f 84 00 00 00 00 	nop    DWORD PTR [rax+rax*1+0x0]
     d0f:	00 
     d10:	88 14 0b             	mov    BYTE PTR [rbx+rcx*1],dl
     d13:	48 83 c1 01          	add    rcx,0x1
     d17:	0f b6 14 0e          	movzx  edx,BYTE PTR [rsi+rcx*1]
     d1b:	84 d2                	test   dl,dl
     d1d:	75 f1                	jne    d10 <writeFloatToBuffer__UrA9aquvUwHFUFx78eUQk3A+0x150>
     d1f:	48 83 3d e9 46 21 00 	cmp    QWORD PTR [rip+0x2146e9],0x0        # 215410 <nimInErrorMode__759bT87luu8XGcbkw13FUjA>
     d26:	00 
     d27:	ba 04 00 00 00       	mov    edx,0x4
     d2c:	5b                   	pop    rbx
     d2d:	48 0f 44 c2          	cmove  rax,rdx
     d31:	c3                   	ret    
     d32:	66 2e 0f 1f 84 00 00 	nop    WORD PTR cs:[rax+rax*1+0x0]
     d39:	00 00 00 
     d3c:	0f 1f 40 00          	nop    DWORD PTR [rax+0x0]

0000000000000d40 <echoBinSafe>:
     d40:	41 57                	push   r15
     d42:	41 56                	push   r14
     d44:	41 55                	push   r13
     d46:	41 54                	push   r12
     d48:	49 89 fc             	mov    r12,rdi
     d4b:	55                   	push   rbp
     d4c:	53                   	push   rbx
     d4d:	48 89 f3             	mov    rbx,rsi
     d50:	48 83 ec 28          	sub    rsp,0x28
     d54:	48 8b 3d c5 12 21 00 	mov    rdi,QWORD PTR [rip+0x2112c5]        # 212020 <stdout@@GLIBC_2.2.5>
     d5b:	48 c7 05 aa 46 21 00 	mov    QWORD PTR [rip+0x2146aa],0x0        # 215410 <nimInErrorMode__759bT87luu8XGcbkw13FUjA>
     d62:	00 00 00 00 
     d66:	64 48 8b 04 25 28 00 	mov    rax,QWORD PTR fs:0x28
     d6d:	00 00 
     d6f:	48 89 44 24 18       	mov    QWORD PTR [rsp+0x18],rax
     d74:	31 c0                	xor    eax,eax
     d76:	48 c7 04 24 00 00 00 	mov    QWORD PTR [rsp],0x0
     d7d:	00 
     d7e:	48 c7 44 24 08 00 00 	mov    QWORD PTR [rsp+0x8],0x0
     d85:	00 00 
     d87:	e8 04 fc ff ff       	call   990 <flockfile@plt>
     d8c:	4c 8b 35 7d 46 21 00 	mov    r14,QWORD PTR [rip+0x21467d]        # 215410 <nimInErrorMode__759bT87luu8XGcbkw13FUjA>
     d93:	4d 85 f6             	test   r14,r14
     d96:	0f 85 44 01 00 00    	jne    ee0 <echoBinSafe+0x1a0>
     d9c:	48 85 db             	test   rbx,rbx
     d9f:	48 89 e5             	mov    rbp,rsp
     da2:	0f 8e b8 00 00 00    	jle    e60 <echoBinSafe+0x120>
     da8:	31 c0                	xor    eax,eax
     daa:	48 89 e5             	mov    rbp,rsp
     dad:	4c 8d 2d 55 e5 00 00 	lea    r13,[rip+0xe555]        # f309 <_IO_stdin_used+0xc9>
     db4:	eb 23                	jmp    dd9 <echoBinSafe+0x99>
     db6:	66 2e 0f 1f 84 00 00 	nop    WORD PTR cs:[rax+rax*1+0x0]
     dbd:	00 00 00 
     dc0:	49 83 c6 01          	add    r14,0x1
     dc4:	4c 39 f3             	cmp    rbx,r14
     dc7:	0f 8e 93 00 00 00    	jle    e60 <echoBinSafe+0x120>
     dcd:	49 39 de             	cmp    r14,rbx
     dd0:	4c 89 f0             	mov    rax,r14
     dd3:	0f 83 e7 00 00 00    	jae    ec0 <echoBinSafe+0x180>
     dd9:	48 c1 e0 04          	shl    rax,0x4
     ddd:	48 89 ef             	mov    rdi,rbp
     de0:	4c 01 e0             	add    rax,r12
     de3:	48 8b 30             	mov    rsi,QWORD PTR [rax]
     de6:	48 8b 50 08          	mov    rdx,QWORD PTR [rax+0x8]
     dea:	e8 e1 bc 00 00       	call   cad0 <eq___aBBXmHFBEivKqERloP6zmA_2>
     def:	48 8b 44 24 08       	mov    rax,QWORD PTR [rsp+0x8]
     df4:	48 8b 34 24          	mov    rsi,QWORD PTR [rsp]
     df8:	ba 01 00 00 00       	mov    edx,0x1
     dfd:	48 8b 0d 1c 12 21 00 	mov    rcx,QWORD PTR [rip+0x21121c]        # 212020 <stdout@@GLIBC_2.2.5>
     e04:	48 8d 78 08          	lea    rdi,[rax+0x8]
     e08:	48 85 f6             	test   rsi,rsi
     e0b:	49 0f 44 fd          	cmove  rdi,r13
     e0f:	e8 ec fb ff ff       	call   a00 <fwrite@plt>
     e14:	4c 8b 3d f5 45 21 00 	mov    r15,QWORD PTR [rip+0x2145f5]        # 215410 <nimInErrorMode__759bT87luu8XGcbkw13FUjA>
     e1b:	4d 85 ff             	test   r15,r15
     e1e:	74 a0                	je     dc0 <echoBinSafe+0x80>
     e20:	48 89 ef             	mov    rdi,rbp
     e23:	48 c7 05 e2 45 21 00 	mov    QWORD PTR [rip+0x2145e2],0x0        # 215410 <nimInErrorMode__759bT87luu8XGcbkw13FUjA>
     e2a:	00 00 00 00 
     e2e:	e8 5d 29 00 00       	call   3790 <eqdestroy___dS1BF3Vxjg9aJMmmhVJKSpQ>
     e33:	4c 01 3d d6 45 21 00 	add    QWORD PTR [rip+0x2145d6],r15        # 215410 <nimInErrorMode__759bT87luu8XGcbkw13FUjA>
     e3a:	48 8b 44 24 18       	mov    rax,QWORD PTR [rsp+0x18]
     e3f:	64 48 33 04 25 28 00 	xor    rax,QWORD PTR fs:0x28
     e46:	00 00 
     e48:	0f 85 9d 00 00 00    	jne    eeb <echoBinSafe+0x1ab>
     e4e:	48 83 c4 28          	add    rsp,0x28
     e52:	5b                   	pop    rbx
     e53:	5d                   	pop    rbp
     e54:	41 5c                	pop    r12
     e56:	41 5d                	pop    r13
     e58:	41 5e                	pop    r14
     e5a:	41 5f                	pop    r15
     e5c:	c3                   	ret    
     e5d:	0f 1f 00             	nop    DWORD PTR [rax]
     e60:	48 8b 0d b9 11 21 00 	mov    rcx,QWORD PTR [rip+0x2111b9]        # 212020 <stdout@@GLIBC_2.2.5>
     e67:	48 8d 3d 9a e4 00 00 	lea    rdi,[rip+0xe49a]        # f308 <_IO_stdin_used+0xc8>
     e6e:	ba 01 00 00 00       	mov    edx,0x1
     e73:	be 01 00 00 00       	mov    esi,0x1
     e78:	e8 83 fb ff ff       	call   a00 <fwrite@plt>
     e7d:	4c 8b 3d 8c 45 21 00 	mov    r15,QWORD PTR [rip+0x21458c]        # 215410 <nimInErrorMode__759bT87luu8XGcbkw13FUjA>
     e84:	4d 85 ff             	test   r15,r15
     e87:	75 97                	jne    e20 <echoBinSafe+0xe0>
     e89:	48 8b 3d 90 11 21 00 	mov    rdi,QWORD PTR [rip+0x211190]        # 212020 <stdout@@GLIBC_2.2.5>
     e90:	e8 3b fb ff ff       	call   9d0 <fflush@plt>
     e95:	4c 8b 3d 74 45 21 00 	mov    r15,QWORD PTR [rip+0x214574]        # 215410 <nimInErrorMode__759bT87luu8XGcbkw13FUjA>
     e9c:	4d 85 ff             	test   r15,r15
     e9f:	0f 85 7b ff ff ff    	jne    e20 <echoBinSafe+0xe0>
     ea5:	48 8b 3d 74 11 21 00 	mov    rdi,QWORD PTR [rip+0x211174]        # 212020 <stdout@@GLIBC_2.2.5>
     eac:	e8 8f fa ff ff       	call   940 <funlockfile@plt>
     eb1:	4c 8b 3d 58 45 21 00 	mov    r15,QWORD PTR [rip+0x214558]        # 215410 <nimInErrorMode__759bT87luu8XGcbkw13FUjA>
     eb8:	e9 63 ff ff ff       	jmp    e20 <echoBinSafe+0xe0>
     ebd:	0f 1f 00             	nop    DWORD PTR [rax]
     ec0:	48 8d 73 ff          	lea    rsi,[rbx-0x1]
     ec4:	4c 89 f7             	mov    rdi,r14
     ec7:	e8 e4 c0 00 00       	call   cfb0 <raiseIndexError2>
     ecc:	4c 8b 3d 3d 45 21 00 	mov    r15,QWORD PTR [rip+0x21453d]        # 215410 <nimInErrorMode__759bT87luu8XGcbkw13FUjA>
     ed3:	e9 48 ff ff ff       	jmp    e20 <echoBinSafe+0xe0>
     ed8:	0f 1f 84 00 00 00 00 	nop    DWORD PTR [rax+rax*1+0x0]
     edf:	00 
     ee0:	4d 89 f7             	mov    r15,r14
     ee3:	48 89 e5             	mov    rbp,rsp
     ee6:	e9 35 ff ff ff       	jmp    e20 <echoBinSafe+0xe0>
     eeb:	e8 70 fa ff ff       	call   960 <__stack_chk_fail@plt>

0000000000000ef0 <intSetGet__O3FRrWKKUdi8uRTGxiPdIg>:
     ef0:	40 0f b6 c6          	movzx  eax,sil
     ef4:	48 8b 04 c7          	mov    rax,QWORD PTR [rdi+rax*8]
     ef8:	48 85 c0             	test   rax,rax
     efb:	74 19                	je     f16 <intSetGet__O3FRrWKKUdi8uRTGxiPdIg+0x26>
     efd:	48 3b 70 08          	cmp    rsi,QWORD PTR [rax+0x8]
     f01:	75 0b                	jne    f0e <intSetGet__O3FRrWKKUdi8uRTGxiPdIg+0x1e>
     f03:	eb 1b                	jmp    f20 <intSetGet__O3FRrWKKUdi8uRTGxiPdIg+0x30>
     f05:	0f 1f 00             	nop    DWORD PTR [rax]
     f08:	48 39 70 08          	cmp    QWORD PTR [rax+0x8],rsi
     f0c:	74 08                	je     f16 <intSetGet__O3FRrWKKUdi8uRTGxiPdIg+0x26>
     f0e:	48 8b 00             	mov    rax,QWORD PTR [rax]
     f11:	48 85 c0             	test   rax,rax
     f14:	75 f2                	jne    f08 <intSetGet__O3FRrWKKUdi8uRTGxiPdIg+0x18>
     f16:	f3 c3                	repz ret 
     f18:	0f 1f 84 00 00 00 00 	nop    DWORD PTR [rax+rax*1+0x0]
     f1f:	00 
     f20:	f3 c3                	repz ret 
     f22:	0f 1f 40 00          	nop    DWORD PTR [rax+0x0]
     f26:	66 2e 0f 1f 84 00 00 	nop    WORD PTR cs:[rax+rax*1+0x0]
     f2d:	00 00 00 

0000000000000f30 <contains__9b5xR7VBZVwQDvk5Nr9bDKdQ>:
     f30:	48 89 f2             	mov    rdx,rsi
     f33:	48 c1 fa 09          	sar    rdx,0x9
     f37:	0f b6 c2             	movzx  eax,dl
     f3a:	48 8b 04 c7          	mov    rax,QWORD PTR [rdi+rax*8]
     f3e:	48 85 c0             	test   rax,rax
     f41:	75 0d                	jne    f50 <contains__9b5xR7VBZVwQDvk5Nr9bDKdQ+0x20>
     f43:	eb 3b                	jmp    f80 <contains__9b5xR7VBZVwQDvk5Nr9bDKdQ+0x50>
     f45:	0f 1f 00             	nop    DWORD PTR [rax]
     f48:	48 8b 00             	mov    rax,QWORD PTR [rax]
     f4b:	48 85 c0             	test   rax,rax
     f4e:	74 28                	je     f78 <contains__9b5xR7VBZVwQDvk5Nr9bDKdQ+0x48>
     f50:	48 3b 50 08          	cmp    rdx,QWORD PTR [rax+0x8]
     f54:	75 f2                	jne    f48 <contains__9b5xR7VBZVwQDvk5Nr9bDKdQ+0x18>
     f56:	48 89 f1             	mov    rcx,rsi
     f59:	81 e1 ff 01 00 00    	and    ecx,0x1ff
     f5f:	48 89 ca             	mov    rdx,rcx
     f62:	48 c1 fa 06          	sar    rdx,0x6
     f66:	48 8b 44 d0 10       	mov    rax,QWORD PTR [rax+rdx*8+0x10]
     f6b:	48 d3 e8             	shr    rax,cl
     f6e:	83 e0 01             	and    eax,0x1
     f71:	c3                   	ret    
     f72:	66 0f 1f 44 00 00    	nop    WORD PTR [rax+rax*1+0x0]
     f78:	f3 c3                	repz ret 
     f7a:	66 0f 1f 44 00 00    	nop    WORD PTR [rax+rax*1+0x0]
     f80:	31 c0                	xor    eax,eax
     f82:	c3                   	ret    
     f83:	0f 1f 00             	nop    DWORD PTR [rax]
     f86:	66 2e 0f 1f 84 00 00 	nop    WORD PTR cs:[rax+rax*1+0x0]
     f8d:	00 00 00 

0000000000000f90 <removeChunkFromMatrix__YSJZJgeU5UU2aa8GNvs3WA>:
     f90:	48 8b 46 08          	mov    rax,QWORD PTR [rsi+0x8]
     f94:	3d ff ff 00 00       	cmp    eax,0xffff
     f99:	89 c1                	mov    ecx,eax
     f9b:	77 7b                	ja     1018 <removeChunkFromMatrix__YSJZJgeU5UU2aa8GNvs3WA+0x88>
     f9d:	31 d2                	xor    edx,edx
     f9f:	3d ff 00 00 00       	cmp    eax,0xff
     fa4:	0f 87 96 00 00 00    	ja     1040 <removeChunkFromMatrix__YSJZJgeU5UU2aa8GNvs3WA+0xb0>
     faa:	4c 8d 05 4f e6 00 00 	lea    r8,[rip+0xe64f]        # f600 <fsLookupTable__Gn52IZvqY4slyBTOYwGNRQ>
     fb1:	4c 8b 4e 10          	mov    r9,QWORD PTR [rsi+0x10]
     fb5:	49 0f be 0c 08       	movsx  rcx,BYTE PTR [r8+rcx*1]
     fba:	4c 8b 46 18          	mov    r8,QWORD PTR [rsi+0x18]
     fbe:	48 01 ca             	add    rdx,rcx
     fc1:	8d 4a fb             	lea    ecx,[rdx-0x5]
     fc4:	4c 8d 52 fa          	lea    r10,[rdx-0x6]
     fc8:	48 d3 f8             	sar    rax,cl
     fcb:	48 83 e8 20          	sub    rax,0x20
     fcf:	4d 85 c9             	test   r9,r9
     fd2:	74 08                	je     fdc <removeChunkFromMatrix__YSJZJgeU5UU2aa8GNvs3WA+0x4c>
     fd4:	4d 89 41 18          	mov    QWORD PTR [r9+0x18],r8
     fd8:	4c 8b 46 18          	mov    r8,QWORD PTR [rsi+0x18]
     fdc:	4d 85 c0             	test   r8,r8
     fdf:	74 08                	je     fe9 <removeChunkFromMatrix__YSJZJgeU5UU2aa8GNvs3WA+0x59>
     fe1:	48 8b 4e 10          	mov    rcx,QWORD PTR [rsi+0x10]
     fe5:	49 89 48 10          	mov    QWORD PTR [r8+0x10],rcx
     fe9:	4d 89 d0             	mov    r8,r10
     fec:	49 c1 e0 05          	shl    r8,0x5
     ff0:	49 01 c0             	add    r8,rax
     ff3:	4e 8d 04 c7          	lea    r8,[rdi+r8*8]
     ff7:	49 39 b0 78 10 00 00 	cmp    QWORD PTR [r8+0x1078],rsi
     ffe:	74 50                	je     1050 <removeChunkFromMatrix__YSJZJgeU5UU2aa8GNvs3WA+0xc0>
    1000:	48 c7 46 18 00 00 00 	mov    QWORD PTR [rsi+0x18],0x0
    1007:	00 
    1008:	48 c7 46 10 00 00 00 	mov    QWORD PTR [rsi+0x10],0x0
    100f:	00 
    1010:	c3                   	ret    
    1011:	0f 1f 80 00 00 00 00 	nop    DWORD PTR [rax+0x0]
    1018:	3d ff ff ff 00       	cmp    eax,0xffffff
    101d:	89 c1                	mov    ecx,eax
    101f:	76 0f                	jbe    1030 <removeChunkFromMatrix__YSJZJgeU5UU2aa8GNvs3WA+0xa0>
    1021:	c1 e9 18             	shr    ecx,0x18
    1024:	ba 18 00 00 00       	mov    edx,0x18
    1029:	e9 7c ff ff ff       	jmp    faa <removeChunkFromMatrix__YSJZJgeU5UU2aa8GNvs3WA+0x1a>
    102e:	66 90                	xchg   ax,ax
    1030:	c1 e9 10             	shr    ecx,0x10
    1033:	ba 10 00 00 00       	mov    edx,0x10
    1038:	e9 6d ff ff ff       	jmp    faa <removeChunkFromMatrix__YSJZJgeU5UU2aa8GNvs3WA+0x1a>
    103d:	0f 1f 00             	nop    DWORD PTR [rax]
    1040:	c1 e9 08             	shr    ecx,0x8
    1043:	ba 08 00 00 00       	mov    edx,0x8
    1048:	e9 5d ff ff ff       	jmp    faa <removeChunkFromMatrix__YSJZJgeU5UU2aa8GNvs3WA+0x1a>
    104d:	0f 1f 00             	nop    DWORD PTR [rax]
    1050:	48 8b 4e 10          	mov    rcx,QWORD PTR [rsi+0x10]
    1054:	48 85 c9             	test   rcx,rcx
    1057:	49 89 88 78 10 00 00 	mov    QWORD PTR [r8+0x1078],rcx
    105e:	75 a0                	jne    1000 <removeChunkFromMatrix__YSJZJgeU5UU2aa8GNvs3WA+0x70>
    1060:	83 e0 1f             	and    eax,0x1f
    1063:	4c 8d 04 97          	lea    r8,[rdi+rdx*4]
    1067:	ba 01 00 00 00       	mov    edx,0x1
    106c:	89 c1                	mov    ecx,eax
    106e:	49 89 d3             	mov    r11,rdx
    1071:	49 d3 e3             	shl    r11,cl
    1074:	4c 89 d8             	mov    rax,r11
    1077:	f7 d0                	not    eax
    1079:	41 21 80 fc 0f 00 00 	and    DWORD PTR [r8+0xffc],eax
    1080:	0f 85 7a ff ff ff    	jne    1000 <removeChunkFromMatrix__YSJZJgeU5UU2aa8GNvs3WA+0x70>
    1086:	44 89 d1             	mov    ecx,r10d
    1089:	83 e1 1f             	and    ecx,0x1f
    108c:	48 d3 e2             	shl    rdx,cl
    108f:	f7 d2                	not    edx
    1091:	21 97 10 10 00 00    	and    DWORD PTR [rdi+0x1010],edx
    1097:	e9 64 ff ff ff       	jmp    1000 <removeChunkFromMatrix__YSJZJgeU5UU2aa8GNvs3WA+0x70>
    109c:	0f 1f 40 00          	nop    DWORD PTR [rax+0x0]

00000000000010a0 <excl__9cAWqpgI1NbhhZ3cVPHhI5A>:
    10a0:	48 89 f2             	mov    rdx,rsi
    10a3:	48 c1 fa 09          	sar    rdx,0x9
    10a7:	0f b6 c2             	movzx  eax,dl
    10aa:	48 8b 04 c7          	mov    rax,QWORD PTR [rdi+rax*8]
    10ae:	48 85 c0             	test   rax,rax
    10b1:	75 0d                	jne    10c0 <excl__9cAWqpgI1NbhhZ3cVPHhI5A+0x20>
    10b3:	eb 31                	jmp    10e6 <excl__9cAWqpgI1NbhhZ3cVPHhI5A+0x46>
    10b5:	0f 1f 00             	nop    DWORD PTR [rax]
    10b8:	48 8b 00             	mov    rax,QWORD PTR [rax]
    10bb:	48 85 c0             	test   rax,rax
    10be:	74 30                	je     10f0 <excl__9cAWqpgI1NbhhZ3cVPHhI5A+0x50>
    10c0:	48 3b 50 08          	cmp    rdx,QWORD PTR [rax+0x8]
    10c4:	75 f2                	jne    10b8 <excl__9cAWqpgI1NbhhZ3cVPHhI5A+0x18>
    10c6:	48 89 f1             	mov    rcx,rsi
    10c9:	ba 01 00 00 00       	mov    edx,0x1
    10ce:	81 e1 ff 01 00 00    	and    ecx,0x1ff
    10d4:	48 89 ce             	mov    rsi,rcx
    10d7:	48 d3 e2             	shl    rdx,cl
    10da:	48 c1 fe 06          	sar    rsi,0x6
    10de:	48 f7 d2             	not    rdx
    10e1:	48 21 54 f0 10       	and    QWORD PTR [rax+rsi*8+0x10],rdx
    10e6:	f3 c3                	repz ret 
    10e8:	0f 1f 84 00 00 00 00 	nop    DWORD PTR [rax+rax*1+0x0]
    10ef:	00 
    10f0:	f3 c3                	repz ret 
    10f2:	0f 1f 40 00          	nop    DWORD PTR [rax+0x0]
    10f6:	66 2e 0f 1f 84 00 00 	nop    WORD PTR cs:[rax+rax*1+0x0]
    10fd:	00 00 00 

0000000000001100 <raiseOutOfMem__mMRdr4sgmnykA9aWeM9aDZlw>:
    1100:	48 8b 05 a1 42 21 00 	mov    rax,QWORD PTR [rip+0x2142a1]        # 2153a8 <outOfMemHook__kZNaA7u1MfSW5ZeoGvw8xg>
    1107:	53                   	push   rbx
    1108:	48 85 c0             	test   rax,rax
    110b:	74 02                	je     110f <raiseOutOfMem__mMRdr4sgmnykA9aWeM9aDZlw+0xf>
    110d:	ff d0                	call   rax
    110f:	48 8b 1d 2a 0f 21 00 	mov    rbx,QWORD PTR [rip+0x210f2a]        # 212040 <stderr@@GLIBC_2.2.5>
    1116:	48 8d 3d 36 e1 00 00 	lea    rdi,[rip+0xe136]        # f253 <_IO_stdin_used+0x13>
    111d:	ba 0e 00 00 00       	mov    edx,0xe
    1122:	be 01 00 00 00       	mov    esi,0x1
    1127:	48 89 d9             	mov    rcx,rbx
    112a:	e8 d1 f8 ff ff       	call   a00 <fwrite@plt>
    112f:	48 83 3d d9 42 21 00 	cmp    QWORD PTR [rip+0x2142d9],0x0        # 215410 <nimInErrorMode__759bT87luu8XGcbkw13FUjA>
    1136:	00 
    1137:	75 1f                	jne    1158 <raiseOutOfMem__mMRdr4sgmnykA9aWeM9aDZlw+0x58>
    1139:	48 89 df             	mov    rdi,rbx
    113c:	e8 8f f8 ff ff       	call   9d0 <fflush@plt>
    1141:	48 83 3d c7 42 21 00 	cmp    QWORD PTR [rip+0x2142c7],0x0        # 215410 <nimInErrorMode__759bT87luu8XGcbkw13FUjA>
    1148:	00 
    1149:	75 0d                	jne    1158 <raiseOutOfMem__mMRdr4sgmnykA9aWeM9aDZlw+0x58>
    114b:	bf 01 00 00 00       	mov    edi,0x1
    1150:	e8 9b f8 ff ff       	call   9f0 <exit@plt>
    1155:	0f 1f 00             	nop    DWORD PTR [rax]
    1158:	5b                   	pop    rbx
    1159:	c3                   	ret    
    115a:	66 0f 1f 44 00 00    	nop    WORD PTR [rax+rax*1+0x0]

0000000000001160 <llAlloc__ovw3NMWXeZ0Qi9cGYq1E2Tg>:
    1160:	41 54                	push   r12
    1162:	55                   	push   rbp
    1163:	49 89 f4             	mov    r12,rsi
    1166:	53                   	push   rbx
    1167:	48 89 fd             	mov    rbp,rdi
    116a:	48 83 ec 10          	sub    rsp,0x10
    116e:	48 8b 9f 78 28 00 00 	mov    rbx,QWORD PTR [rdi+0x2878]
    1175:	48 85 db             	test   rbx,rbx
    1178:	74 36                	je     11b0 <llAlloc__ovw3NMWXeZ0Qi9cGYq1E2Tg+0x50>
    117a:	48 8b 03             	mov    rax,QWORD PTR [rbx]
    117d:	48 39 f0             	cmp    rax,rsi
    1180:	7c 2e                	jl     11b0 <llAlloc__ovw3NMWXeZ0Qi9cGYq1E2Tg+0x50>
    1182:	4c 29 e0             	sub    rax,r12
    1185:	48 8b 4b 08          	mov    rcx,QWORD PTR [rbx+0x8]
    1189:	4c 89 e2             	mov    rdx,r12
    118c:	48 89 03             	mov    QWORD PTR [rbx],rax
    118f:	48 8b 85 78 28 00 00 	mov    rax,QWORD PTR [rbp+0x2878]
    1196:	31 f6                	xor    esi,esi
    1198:	48 01 d9             	add    rcx,rbx
    119b:	4c 01 60 08          	add    QWORD PTR [rax+0x8],r12
    119f:	48 89 cf             	mov    rdi,rcx
    11a2:	e8 d9 f7 ff ff       	call   980 <memset@plt>
    11a7:	48 83 c4 10          	add    rsp,0x10
    11ab:	5b                   	pop    rbx
    11ac:	5d                   	pop    rbp
    11ad:	41 5c                	pop    r12
    11af:	c3                   	ret    
    11b0:	45 31 c9             	xor    r9d,r9d
    11b3:	ba 03 00 00 00       	mov    edx,0x3
    11b8:	31 ff                	xor    edi,edi
    11ba:	41 b8 ff ff ff ff    	mov    r8d,0xffffffff
    11c0:	b9 22 00 00 00       	mov    ecx,0x22
    11c5:	be 00 10 00 00       	mov    esi,0x1000
    11ca:	e8 a1 f7 ff ff       	call   970 <mmap@plt>
    11cf:	48 8d 50 ff          	lea    rdx,[rax-0x1]
    11d3:	48 83 fa fd          	cmp    rdx,0xfffffffffffffffd
    11d7:	76 0f                	jbe    11e8 <llAlloc__ovw3NMWXeZ0Qi9cGYq1E2Tg+0x88>
    11d9:	48 89 44 24 08       	mov    QWORD PTR [rsp+0x8],rax
    11de:	e8 1d ff ff ff       	call   1100 <raiseOutOfMem__mMRdr4sgmnykA9aWeM9aDZlw>
    11e3:	48 8b 44 24 08       	mov    rax,QWORD PTR [rsp+0x8]
    11e8:	48 89 85 78 28 00 00 	mov    QWORD PTR [rbp+0x2878],rax
    11ef:	48 81 85 80 28 00 00 	add    QWORD PTR [rbp+0x2880],0x1000
    11f6:	00 10 00 00 
    11fa:	48 c7 00 e8 0f 00 00 	mov    QWORD PTR [rax],0xfe8
    1201:	48 8b 85 78 28 00 00 	mov    rax,QWORD PTR [rbp+0x2878]
    1208:	48 c7 40 08 18 00 00 	mov    QWORD PTR [rax+0x8],0x18
    120f:	00 
    1210:	48 8b 85 78 28 00 00 	mov    rax,QWORD PTR [rbp+0x2878]
    1217:	48 89 58 10          	mov    QWORD PTR [rax+0x10],rbx
    121b:	48 8b 9d 78 28 00 00 	mov    rbx,QWORD PTR [rbp+0x2878]
    1222:	48 8b 03             	mov    rax,QWORD PTR [rbx]
    1225:	e9 58 ff ff ff       	jmp    1182 <llAlloc__ovw3NMWXeZ0Qi9cGYq1E2Tg+0x22>
    122a:	66 0f 1f 44 00 00    	nop    WORD PTR [rax+rax*1+0x0]

0000000000001230 <intSetPut__Cw86Sj6YgVACdT20AkWjcA>:
    1230:	0f b6 c2             	movzx  eax,dl
    1233:	41 55                	push   r13
    1235:	41 54                	push   r12
    1237:	4c 8d 2c c6          	lea    r13,[rsi+rax*8]
    123b:	55                   	push   rbp
    123c:	53                   	push   rbx
    123d:	48 83 ec 18          	sub    rsp,0x18
    1241:	49 8b 45 00          	mov    rax,QWORD PTR [r13+0x0]
    1245:	48 85 c0             	test   rax,rax
    1248:	75 0e                	jne    1258 <intSetPut__Cw86Sj6YgVACdT20AkWjcA+0x28>
    124a:	eb 24                	jmp    1270 <intSetPut__Cw86Sj6YgVACdT20AkWjcA+0x40>
    124c:	0f 1f 40 00          	nop    DWORD PTR [rax+0x0]
    1250:	48 8b 00             	mov    rax,QWORD PTR [rax]
    1253:	48 85 c0             	test   rax,rax
    1256:	74 18                	je     1270 <intSetPut__Cw86Sj6YgVACdT20AkWjcA+0x40>
    1258:	48 3b 50 08          	cmp    rdx,QWORD PTR [rax+0x8]
    125c:	75 f2                	jne    1250 <intSetPut__Cw86Sj6YgVACdT20AkWjcA+0x20>
    125e:	48 83 c4 18          	add    rsp,0x18
    1262:	5b                   	pop    rbx
    1263:	5d                   	pop    rbp
    1264:	41 5c                	pop    r12
    1266:	41 5d                	pop    r13
    1268:	c3                   	ret    
    1269:	0f 1f 80 00 00 00 00 	nop    DWORD PTR [rax+0x0]
    1270:	4c 8b a7 78 28 00 00 	mov    r12,QWORD PTR [rdi+0x2878]
    1277:	48 89 d3             	mov    rbx,rdx
    127a:	48 89 fd             	mov    rbp,rdi
    127d:	4d 85 e4             	test   r12,r12
    1280:	74 5e                	je     12e0 <intSetPut__Cw86Sj6YgVACdT20AkWjcA+0xb0>
    1282:	49 8b 14 24          	mov    rdx,QWORD PTR [r12]
    1286:	48 83 fa 4f          	cmp    rdx,0x4f
    128a:	7e 54                	jle    12e0 <intSetPut__Cw86Sj6YgVACdT20AkWjcA+0xb0>
    128c:	48 83 ea 50          	sub    rdx,0x50
    1290:	49 8b 44 24 08       	mov    rax,QWORD PTR [r12+0x8]
    1295:	49 89 14 24          	mov    QWORD PTR [r12],rdx
    1299:	48 8b 95 78 28 00 00 	mov    rdx,QWORD PTR [rbp+0x2878]
    12a0:	66 0f ef c0          	pxor   xmm0,xmm0
    12a4:	4c 01 e0             	add    rax,r12
    12a7:	48 83 42 08 50       	add    QWORD PTR [rdx+0x8],0x50
    12ac:	0f 11 00             	movups XMMWORD PTR [rax],xmm0
    12af:	0f 11 40 10          	movups XMMWORD PTR [rax+0x10],xmm0
    12b3:	0f 11 40 20          	movups XMMWORD PTR [rax+0x20],xmm0
    12b7:	0f 11 40 30          	movups XMMWORD PTR [rax+0x30],xmm0
    12bb:	0f 11 40 40          	movups XMMWORD PTR [rax+0x40],xmm0
    12bf:	49 8b 55 00          	mov    rdx,QWORD PTR [r13+0x0]
    12c3:	48 89 10             	mov    QWORD PTR [rax],rdx
    12c6:	49 89 45 00          	mov    QWORD PTR [r13+0x0],rax
    12ca:	48 89 58 08          	mov    QWORD PTR [rax+0x8],rbx
    12ce:	48 83 c4 18          	add    rsp,0x18
    12d2:	5b                   	pop    rbx
    12d3:	5d                   	pop    rbp
    12d4:	41 5c                	pop    r12
    12d6:	41 5d                	pop    r13
    12d8:	c3                   	ret    
    12d9:	0f 1f 80 00 00 00 00 	nop    DWORD PTR [rax+0x0]
    12e0:	45 31 c9             	xor    r9d,r9d
    12e3:	ba 03 00 00 00       	mov    edx,0x3
    12e8:	31 ff                	xor    edi,edi
    12ea:	41 b8 ff ff ff ff    	mov    r8d,0xffffffff
    12f0:	b9 22 00 00 00       	mov    ecx,0x22
    12f5:	be 00 10 00 00       	mov    esi,0x1000
    12fa:	e8 71 f6 ff ff       	call   970 <mmap@plt>
    12ff:	48 8d 50 ff          	lea    rdx,[rax-0x1]
    1303:	48 83 fa fd          	cmp    rdx,0xfffffffffffffffd
    1307:	76 0f                	jbe    1318 <intSetPut__Cw86Sj6YgVACdT20AkWjcA+0xe8>
    1309:	48 89 44 24 08       	mov    QWORD PTR [rsp+0x8],rax
    130e:	e8 ed fd ff ff       	call   1100 <raiseOutOfMem__mMRdr4sgmnykA9aWeM9aDZlw>
    1313:	48 8b 44 24 08       	mov    rax,QWORD PTR [rsp+0x8]
    1318:	48 89 85 78 28 00 00 	mov    QWORD PTR [rbp+0x2878],rax
    131f:	48 81 85 80 28 00 00 	add    QWORD PTR [rbp+0x2880],0x1000
    1326:	00 10 00 00 
    132a:	48 c7 00 e8 0f 00 00 	mov    QWORD PTR [rax],0xfe8
    1331:	48 8b 85 78 28 00 00 	mov    rax,QWORD PTR [rbp+0x2878]
    1338:	48 c7 40 08 18 00 00 	mov    QWORD PTR [rax+0x8],0x18
    133f:	00 
    1340:	48 8b 85 78 28 00 00 	mov    rax,QWORD PTR [rbp+0x2878]
    1347:	4c 89 60 10          	mov    QWORD PTR [rax+0x10],r12
    134b:	4c 8b a5 78 28 00 00 	mov    r12,QWORD PTR [rbp+0x2878]
    1352:	49 8b 14 24          	mov    rdx,QWORD PTR [r12]
    1356:	e9 31 ff ff ff       	jmp    128c <intSetPut__Cw86Sj6YgVACdT20AkWjcA+0x5c>
    135b:	0f 1f 44 00 00       	nop    DWORD PTR [rax+rax*1+0x0]

0000000000001360 <incl__tSnfTXv7GxXoDyFDm9bvzqg>:
    1360:	41 56                	push   r14
    1362:	41 55                	push   r13
    1364:	49 89 fd             	mov    r13,rdi
    1367:	41 54                	push   r12
    1369:	55                   	push   rbp
    136a:	48 89 d5             	mov    rbp,rdx
    136d:	53                   	push   rbx
    136e:	48 89 d3             	mov    rbx,rdx
    1371:	48 c1 fb 09          	sar    rbx,0x9
    1375:	0f b6 c3             	movzx  eax,bl
    1378:	48 83 ec 10          	sub    rsp,0x10
    137c:	4c 8d 24 c6          	lea    r12,[rsi+rax*8]
    1380:	49 8b 04 24          	mov    rax,QWORD PTR [r12]
    1384:	48 85 c0             	test   rax,rax
    1387:	75 0f                	jne    1398 <incl__tSnfTXv7GxXoDyFDm9bvzqg+0x38>
    1389:	eb 45                	jmp    13d0 <incl__tSnfTXv7GxXoDyFDm9bvzqg+0x70>
    138b:	0f 1f 44 00 00       	nop    DWORD PTR [rax+rax*1+0x0]
    1390:	48 8b 00             	mov    rax,QWORD PTR [rax]
    1393:	48 85 c0             	test   rax,rax
    1396:	74 38                	je     13d0 <incl__tSnfTXv7GxXoDyFDm9bvzqg+0x70>
    1398:	48 3b 58 08          	cmp    rbx,QWORD PTR [rax+0x8]
    139c:	75 f2                	jne    1390 <incl__tSnfTXv7GxXoDyFDm9bvzqg+0x30>
    139e:	48 89 e9             	mov    rcx,rbp
    13a1:	ba 01 00 00 00       	mov    edx,0x1
    13a6:	81 e1 ff 01 00 00    	and    ecx,0x1ff
    13ac:	48 89 ce             	mov    rsi,rcx
    13af:	48 d3 e2             	shl    rdx,cl
    13b2:	48 c1 fe 06          	sar    rsi,0x6
    13b6:	48 09 54 f0 10       	or     QWORD PTR [rax+rsi*8+0x10],rdx
    13bb:	48 83 c4 10          	add    rsp,0x10
    13bf:	5b                   	pop    rbx
    13c0:	5d                   	pop    rbp
    13c1:	41 5c                	pop    r12
    13c3:	41 5d                	pop    r13
    13c5:	41 5e                	pop    r14
    13c7:	c3                   	ret    
    13c8:	0f 1f 84 00 00 00 00 	nop    DWORD PTR [rax+rax*1+0x0]
    13cf:	00 
    13d0:	4d 8b b5 78 28 00 00 	mov    r14,QWORD PTR [r13+0x2878]
    13d7:	4d 85 f6             	test   r14,r14
    13da:	74 54                	je     1430 <incl__tSnfTXv7GxXoDyFDm9bvzqg+0xd0>
    13dc:	49 8b 16             	mov    rdx,QWORD PTR [r14]
    13df:	48 83 fa 4f          	cmp    rdx,0x4f
    13e3:	7e 4b                	jle    1430 <incl__tSnfTXv7GxXoDyFDm9bvzqg+0xd0>
    13e5:	48 83 ea 50          	sub    rdx,0x50
    13e9:	49 8b 46 08          	mov    rax,QWORD PTR [r14+0x8]
    13ed:	49 89 16             	mov    QWORD PTR [r14],rdx
    13f0:	49 8b 95 78 28 00 00 	mov    rdx,QWORD PTR [r13+0x2878]
    13f7:	66 0f ef c0          	pxor   xmm0,xmm0
    13fb:	4c 01 f0             	add    rax,r14
    13fe:	48 83 42 08 50       	add    QWORD PTR [rdx+0x8],0x50
    1403:	0f 11 00             	movups XMMWORD PTR [rax],xmm0
    1406:	0f 11 40 10          	movups XMMWORD PTR [rax+0x10],xmm0
    140a:	0f 11 40 20          	movups XMMWORD PTR [rax+0x20],xmm0
    140e:	0f 11 40 30          	movups XMMWORD PTR [rax+0x30],xmm0
    1412:	0f 11 40 40          	movups XMMWORD PTR [rax+0x40],xmm0
    1416:	49 8b 14 24          	mov    rdx,QWORD PTR [r12]
    141a:	48 89 10             	mov    QWORD PTR [rax],rdx
    141d:	49 89 04 24          	mov    QWORD PTR [r12],rax
    1421:	48 89 58 08          	mov    QWORD PTR [rax+0x8],rbx
    1425:	e9 74 ff ff ff       	jmp    139e <incl__tSnfTXv7GxXoDyFDm9bvzqg+0x3e>
    142a:	66 0f 1f 44 00 00    	nop    WORD PTR [rax+rax*1+0x0]
    1430:	45 31 c9             	xor    r9d,r9d
    1433:	ba 03 00 00 00       	mov    edx,0x3
    1438:	31 ff                	xor    edi,edi
    143a:	41 b8 ff ff ff ff    	mov    r8d,0xffffffff
    1440:	b9 22 00 00 00       	mov    ecx,0x22
    1445:	be 00 10 00 00       	mov    esi,0x1000
    144a:	e8 21 f5 ff ff       	call   970 <mmap@plt>
    144f:	48 8d 50 ff          	lea    rdx,[rax-0x1]
    1453:	48 83 fa fd          	cmp    rdx,0xfffffffffffffffd
    1457:	76 0f                	jbe    1468 <incl__tSnfTXv7GxXoDyFDm9bvzqg+0x108>
    1459:	48 89 44 24 08       	mov    QWORD PTR [rsp+0x8],rax
    145e:	e8 9d fc ff ff       	call   1100 <raiseOutOfMem__mMRdr4sgmnykA9aWeM9aDZlw>
    1463:	48 8b 44 24 08       	mov    rax,QWORD PTR [rsp+0x8]
    1468:	49 89 85 78 28 00 00 	mov    QWORD PTR [r13+0x2878],rax
    146f:	49 81 85 80 28 00 00 	add    QWORD PTR [r13+0x2880],0x1000
    1476:	00 10 00 00 
    147a:	48 c7 00 e8 0f 00 00 	mov    QWORD PTR [rax],0xfe8
    1481:	49 8b 85 78 28 00 00 	mov    rax,QWORD PTR [r13+0x2878]
    1488:	48 c7 40 08 18 00 00 	mov    QWORD PTR [rax+0x8],0x18
    148f:	00 
    1490:	49 8b 85 78 28 00 00 	mov    rax,QWORD PTR [r13+0x2878]
    1497:	4c 89 70 10          	mov    QWORD PTR [rax+0x10],r14
    149b:	4d 8b b5 78 28 00 00 	mov    r14,QWORD PTR [r13+0x2878]
    14a2:	49 8b 16             	mov    rdx,QWORD PTR [r14]
    14a5:	e9 3b ff ff ff       	jmp    13e5 <incl__tSnfTXv7GxXoDyFDm9bvzqg+0x85>
    14aa:	66 0f 1f 44 00 00    	nop    WORD PTR [rax+rax*1+0x0]

00000000000014b0 <splitChunk2__gSNzk4aToVCSTE1opfEv2A>:
    14b0:	41 57                	push   r15
    14b2:	41 56                	push   r14
    14b4:	41 55                	push   r13
    14b6:	41 54                	push   r12
    14b8:	55                   	push   rbp
    14b9:	53                   	push   rbx
    14ba:	48 8d 2c 32          	lea    rbp,[rdx+rsi*1]
    14be:	48 83 ec 18          	sub    rsp,0x18
    14c2:	4c 8b 46 08          	mov    r8,QWORD PTR [rsi+0x8]
    14c6:	48 c7 45 10 00 00 00 	mov    QWORD PTR [rbp+0x10],0x0
    14cd:	00 
    14ce:	48 c7 45 18 00 00 00 	mov    QWORD PTR [rbp+0x18],0x0
    14d5:	00 
    14d6:	48 89 55 00          	mov    QWORD PTR [rbp+0x0],rdx
    14da:	49 29 d0             	sub    r8,rdx
    14dd:	4c 89 45 08          	mov    QWORD PTR [rbp+0x8],r8
    14e1:	4c 8b 4e 08          	mov    r9,QWORD PTR [rsi+0x8]
    14e5:	49 01 f1             	add    r9,rsi
    14e8:	4c 89 c9             	mov    rcx,r9
    14eb:	48 c1 f9 15          	sar    rcx,0x15
    14ef:	0f b6 c1             	movzx  eax,cl
    14f2:	48 8b 84 c7 a8 28 00 	mov    rax,QWORD PTR [rdi+rax*8+0x28a8]
    14f9:	00 
    14fa:	48 85 c0             	test   rax,rax
    14fd:	75 11                	jne    1510 <splitChunk2__gSNzk4aToVCSTE1opfEv2A+0x60>
    14ff:	eb 40                	jmp    1541 <splitChunk2__gSNzk4aToVCSTE1opfEv2A+0x91>
    1501:	0f 1f 80 00 00 00 00 	nop    DWORD PTR [rax+0x0]
    1508:	48 8b 00             	mov    rax,QWORD PTR [rax]
    150b:	48 85 c0             	test   rax,rax
    150e:	74 31                	je     1541 <splitChunk2__gSNzk4aToVCSTE1opfEv2A+0x91>
    1510:	48 3b 48 08          	cmp    rcx,QWORD PTR [rax+0x8]
    1514:	75 f2                	jne    1508 <splitChunk2__gSNzk4aToVCSTE1opfEv2A+0x58>
    1516:	4c 89 c9             	mov    rcx,r9
    1519:	48 c1 f9 0c          	sar    rcx,0xc
    151d:	81 e1 ff 01 00 00    	and    ecx,0x1ff
    1523:	49 89 ca             	mov    r10,rcx
    1526:	49 c1 fa 06          	sar    r10,0x6
    152a:	4a 8b 44 d0 10       	mov    rax,QWORD PTR [rax+r10*8+0x10]
    152f:	48 0f a3 c8          	bt     rax,rcx
    1533:	73 0c                	jae    1541 <splitChunk2__gSNzk4aToVCSTE1opfEv2A+0x91>
    1535:	49 8b 01             	mov    rax,QWORD PTR [r9]
    1538:	83 e0 01             	and    eax,0x1
    153b:	49 09 c0             	or     r8,rax
    153e:	4d 89 01             	mov    QWORD PTR [r9],r8
    1541:	48 89 eb             	mov    rbx,rbp
    1544:	48 89 56 08          	mov    QWORD PTR [rsi+0x8],rdx
    1548:	49 89 ec             	mov    r12,rbp
    154b:	48 c1 fb 15          	sar    rbx,0x15
    154f:	49 c1 fc 0c          	sar    r12,0xc
    1553:	0f b6 c3             	movzx  eax,bl
    1556:	4c 8d 2c c7          	lea    r13,[rdi+rax*8]
    155a:	49 8b 85 a8 28 00 00 	mov    rax,QWORD PTR [r13+0x28a8]
    1561:	48 85 c0             	test   rax,rax
    1564:	75 12                	jne    1578 <splitChunk2__gSNzk4aToVCSTE1opfEv2A+0xc8>
    1566:	eb 48                	jmp    15b0 <splitChunk2__gSNzk4aToVCSTE1opfEv2A+0x100>
    1568:	0f 1f 84 00 00 00 00 	nop    DWORD PTR [rax+rax*1+0x0]
    156f:	00 
    1570:	48 8b 00             	mov    rax,QWORD PTR [rax]
    1573:	48 85 c0             	test   rax,rax
    1576:	74 38                	je     15b0 <splitChunk2__gSNzk4aToVCSTE1opfEv2A+0x100>
    1578:	48 3b 58 08          	cmp    rbx,QWORD PTR [rax+0x8]
    157c:	75 f2                	jne    1570 <splitChunk2__gSNzk4aToVCSTE1opfEv2A+0xc0>
    157e:	4c 89 e1             	mov    rcx,r12
    1581:	ba 01 00 00 00       	mov    edx,0x1
    1586:	81 e1 ff 01 00 00    	and    ecx,0x1ff
    158c:	48 89 ce             	mov    rsi,rcx
    158f:	48 d3 e2             	shl    rdx,cl
    1592:	48 c1 fe 06          	sar    rsi,0x6
    1596:	48 09 54 f0 10       	or     QWORD PTR [rax+rsi*8+0x10],rdx
    159b:	48 83 c4 18          	add    rsp,0x18
    159f:	48 89 e8             	mov    rax,rbp
    15a2:	5b                   	pop    rbx
    15a3:	5d                   	pop    rbp
    15a4:	41 5c                	pop    r12
    15a6:	41 5d                	pop    r13
    15a8:	41 5e                	pop    r14
    15aa:	41 5f                	pop    r15
    15ac:	c3                   	ret    
    15ad:	0f 1f 00             	nop    DWORD PTR [rax]
    15b0:	4c 8b b7 78 28 00 00 	mov    r14,QWORD PTR [rdi+0x2878]
    15b7:	49 89 ff             	mov    r15,rdi
    15ba:	4d 85 f6             	test   r14,r14
    15bd:	74 59                	je     1618 <splitChunk2__gSNzk4aToVCSTE1opfEv2A+0x168>
    15bf:	49 8b 16             	mov    rdx,QWORD PTR [r14]
    15c2:	48 83 fa 4f          	cmp    rdx,0x4f
    15c6:	7e 50                	jle    1618 <splitChunk2__gSNzk4aToVCSTE1opfEv2A+0x168>
    15c8:	48 83 ea 50          	sub    rdx,0x50
    15cc:	49 8b 46 08          	mov    rax,QWORD PTR [r14+0x8]
    15d0:	49 89 16             	mov    QWORD PTR [r14],rdx
    15d3:	49 8b 97 78 28 00 00 	mov    rdx,QWORD PTR [r15+0x2878]
    15da:	66 0f ef c0          	pxor   xmm0,xmm0
    15de:	4c 01 f0             	add    rax,r14
    15e1:	48 83 42 08 50       	add    QWORD PTR [rdx+0x8],0x50
    15e6:	0f 11 00             	movups XMMWORD PTR [rax],xmm0
    15e9:	0f 11 40 10          	movups XMMWORD PTR [rax+0x10],xmm0
    15ed:	0f 11 40 20          	movups XMMWORD PTR [rax+0x20],xmm0
    15f1:	0f 11 40 30          	movups XMMWORD PTR [rax+0x30],xmm0
    15f5:	0f 11 40 40          	movups XMMWORD PTR [rax+0x40],xmm0
    15f9:	49 8b 95 a8 28 00 00 	mov    rdx,QWORD PTR [r13+0x28a8]
    1600:	48 89 10             	mov    QWORD PTR [rax],rdx
    1603:	49 89 85 a8 28 00 00 	mov    QWORD PTR [r13+0x28a8],rax
    160a:	48 89 58 08          	mov    QWORD PTR [rax+0x8],rbx
    160e:	e9 6b ff ff ff       	jmp    157e <splitChunk2__gSNzk4aToVCSTE1opfEv2A+0xce>
    1613:	0f 1f 44 00 00       	nop    DWORD PTR [rax+rax*1+0x0]
    1618:	45 31 c9             	xor    r9d,r9d
    161b:	ba 03 00 00 00       	mov    edx,0x3
    1620:	31 ff                	xor    edi,edi
    1622:	41 b8 ff ff ff ff    	mov    r8d,0xffffffff
    1628:	b9 22 00 00 00       	mov    ecx,0x22
    162d:	be 00 10 00 00       	mov    esi,0x1000
    1632:	e8 39 f3 ff ff       	call   970 <mmap@plt>
    1637:	48 8d 50 ff          	lea    rdx,[rax-0x1]
    163b:	48 83 fa fd          	cmp    rdx,0xfffffffffffffffd
    163f:	76 0f                	jbe    1650 <splitChunk2__gSNzk4aToVCSTE1opfEv2A+0x1a0>
    1641:	48 89 44 24 08       	mov    QWORD PTR [rsp+0x8],rax
    1646:	e8 b5 fa ff ff       	call   1100 <raiseOutOfMem__mMRdr4sgmnykA9aWeM9aDZlw>
    164b:	48 8b 44 24 08       	mov    rax,QWORD PTR [rsp+0x8]
    1650:	49 89 87 78 28 00 00 	mov    QWORD PTR [r15+0x2878],rax
    1657:	49 81 87 80 28 00 00 	add    QWORD PTR [r15+0x2880],0x1000
    165e:	00 10 00 00 
    1662:	48 c7 00 e8 0f 00 00 	mov    QWORD PTR [rax],0xfe8
    1669:	49 8b 87 78 28 00 00 	mov    rax,QWORD PTR [r15+0x2878]
    1670:	48 c7 40 08 18 00 00 	mov    QWORD PTR [rax+0x8],0x18
    1677:	00 
    1678:	49 8b 87 78 28 00 00 	mov    rax,QWORD PTR [r15+0x2878]
    167f:	4c 89 70 10          	mov    QWORD PTR [rax+0x10],r14
    1683:	4d 8b b7 78 28 00 00 	mov    r14,QWORD PTR [r15+0x2878]
    168a:	49 8b 16             	mov    rdx,QWORD PTR [r14]
    168d:	e9 36 ff ff ff       	jmp    15c8 <splitChunk2__gSNzk4aToVCSTE1opfEv2A+0x118>
    1692:	0f 1f 40 00          	nop    DWORD PTR [rax+0x0]
    1696:	66 2e 0f 1f 84 00 00 	nop    WORD PTR cs:[rax+rax*1+0x0]
    169d:	00 00 00 

00000000000016a0 <addChunkToMatrix__YSJZJgeU5UU2aa8GNvs3WA_2>:
    16a0:	48 8b 46 08          	mov    rax,QWORD PTR [rsi+0x8]
    16a4:	3d ff ff 00 00       	cmp    eax,0xffff
    16a9:	89 c1                	mov    ecx,eax
    16ab:	0f 87 8f 00 00 00    	ja     1740 <addChunkToMatrix__YSJZJgeU5UU2aa8GNvs3WA_2+0xa0>
    16b1:	31 d2                	xor    edx,edx
    16b3:	3d ff 00 00 00       	cmp    eax,0xff
    16b8:	0f 87 b2 00 00 00    	ja     1770 <addChunkToMatrix__YSJZJgeU5UU2aa8GNvs3WA_2+0xd0>
    16be:	4c 8d 05 3b df 00 00 	lea    r8,[rip+0xdf3b]        # f600 <fsLookupTable__Gn52IZvqY4slyBTOYwGNRQ>
    16c5:	48 c7 46 18 00 00 00 	mov    QWORD PTR [rsi+0x18],0x0
    16cc:	00 
    16cd:	49 0f be 0c 08       	movsx  rcx,BYTE PTR [r8+rcx*1]
    16d2:	48 01 ca             	add    rdx,rcx
    16d5:	8d 4a fb             	lea    ecx,[rdx-0x5]
    16d8:	4c 8d 42 fa          	lea    r8,[rdx-0x6]
    16dc:	48 d3 f8             	sar    rax,cl
    16df:	48 8d 48 e0          	lea    rcx,[rax-0x20]
    16e3:	4c 89 c0             	mov    rax,r8
    16e6:	48 c1 e0 05          	shl    rax,0x5
    16ea:	48 01 c8             	add    rax,rcx
    16ed:	48 8d 04 c7          	lea    rax,[rdi+rax*8]
    16f1:	4c 8b 88 78 10 00 00 	mov    r9,QWORD PTR [rax+0x1078]
    16f8:	4c 89 4e 10          	mov    QWORD PTR [rsi+0x10],r9
    16fc:	4c 8b 88 78 10 00 00 	mov    r9,QWORD PTR [rax+0x1078]
    1703:	4d 85 c9             	test   r9,r9
    1706:	74 04                	je     170c <addChunkToMatrix__YSJZJgeU5UU2aa8GNvs3WA_2+0x6c>
    1708:	49 89 71 18          	mov    QWORD PTR [r9+0x18],rsi
    170c:	48 89 b0 78 10 00 00 	mov    QWORD PTR [rax+0x1078],rsi
    1713:	b8 01 00 00 00       	mov    eax,0x1
    1718:	83 e1 1f             	and    ecx,0x1f
    171b:	48 89 c6             	mov    rsi,rax
    171e:	48 d3 e6             	shl    rsi,cl
    1721:	44 89 c1             	mov    ecx,r8d
    1724:	09 b4 97 fc 0f 00 00 	or     DWORD PTR [rdi+rdx*4+0xffc],esi
    172b:	83 e1 1f             	and    ecx,0x1f
    172e:	48 d3 e0             	shl    rax,cl
    1731:	09 87 10 10 00 00    	or     DWORD PTR [rdi+0x1010],eax
    1737:	c3                   	ret    
    1738:	0f 1f 84 00 00 00 00 	nop    DWORD PTR [rax+rax*1+0x0]
    173f:	00 
    1740:	3d ff ff ff 00       	cmp    eax,0xffffff
    1745:	89 c1                	mov    ecx,eax
    1747:	76 17                	jbe    1760 <addChunkToMatrix__YSJZJgeU5UU2aa8GNvs3WA_2+0xc0>
    1749:	c1 e9 18             	shr    ecx,0x18
    174c:	ba 18 00 00 00       	mov    edx,0x18
    1751:	e9 68 ff ff ff       	jmp    16be <addChunkToMatrix__YSJZJgeU5UU2aa8GNvs3WA_2+0x1e>
    1756:	66 2e 0f 1f 84 00 00 	nop    WORD PTR cs:[rax+rax*1+0x0]
    175d:	00 00 00 
    1760:	c1 e9 10             	shr    ecx,0x10
    1763:	ba 10 00 00 00       	mov    edx,0x10
    1768:	e9 51 ff ff ff       	jmp    16be <addChunkToMatrix__YSJZJgeU5UU2aa8GNvs3WA_2+0x1e>
    176d:	0f 1f 00             	nop    DWORD PTR [rax]
    1770:	c1 e9 08             	shr    ecx,0x8
    1773:	ba 08 00 00 00       	mov    edx,0x8
    1778:	e9 41 ff ff ff       	jmp    16be <addChunkToMatrix__YSJZJgeU5UU2aa8GNvs3WA_2+0x1e>
    177d:	0f 1f 00             	nop    DWORD PTR [rax]

0000000000001780 <freeBigChunk__IPvsryqksLyNxxag3IQr2g>:
    1780:	41 55                	push   r13
    1782:	41 54                	push   r12
    1784:	55                   	push   rbp
    1785:	53                   	push   rbx
    1786:	48 89 f5             	mov    rbp,rsi
    1789:	48 89 fb             	mov    rbx,rdi
    178c:	48 83 ec 08          	sub    rsp,0x8
    1790:	48 8b 46 08          	mov    rax,QWORD PTR [rsi+0x8]
    1794:	48 01 87 90 28 00 00 	add    QWORD PTR [rdi+0x2890],rax
    179b:	48 8b 06             	mov    rax,QWORD PTR [rsi]
    179e:	48 89 f7             	mov    rdi,rsi
    17a1:	48 83 e0 fe          	and    rax,0xfffffffffffffffe
    17a5:	48 85 c0             	test   rax,rax
    17a8:	48 89 06             	mov    QWORD PTR [rsi],rax
    17ab:	0f 85 e7 02 00 00    	jne    1a98 <freeBigChunk__IPvsryqksLyNxxag3IQr2g+0x318>
    17b1:	48 8b 55 08          	mov    rdx,QWORD PTR [rbp+0x8]
    17b5:	4c 8d 25 44 de 00 00 	lea    r12,[rip+0xde44]        # f600 <fsLookupTable__Gn52IZvqY4slyBTOYwGNRQ>
    17bc:	48 01 d7             	add    rdi,rdx
    17bf:	48 89 fe             	mov    rsi,rdi
    17c2:	48 c1 fe 15          	sar    rsi,0x15
    17c6:	40 0f b6 c6          	movzx  eax,sil
    17ca:	4c 8d 0c c3          	lea    r9,[rbx+rax*8]
    17ce:	49 8b 81 a8 28 00 00 	mov    rax,QWORD PTR [r9+0x28a8]
    17d5:	48 85 c0             	test   rax,rax
    17d8:	74 20                	je     17fa <freeBigChunk__IPvsryqksLyNxxag3IQr2g+0x7a>
    17da:	48 39 70 08          	cmp    QWORD PTR [rax+0x8],rsi
    17de:	75 12                	jne    17f2 <freeBigChunk__IPvsryqksLyNxxag3IQr2g+0x72>
    17e0:	e9 b3 00 00 00       	jmp    1898 <freeBigChunk__IPvsryqksLyNxxag3IQr2g+0x118>
    17e5:	0f 1f 00             	nop    DWORD PTR [rax]
    17e8:	48 3b 70 08          	cmp    rsi,QWORD PTR [rax+0x8]
    17ec:	0f 84 a6 00 00 00    	je     1898 <freeBigChunk__IPvsryqksLyNxxag3IQr2g+0x118>
    17f2:	48 8b 00             	mov    rax,QWORD PTR [rax]
    17f5:	48 85 c0             	test   rax,rax
    17f8:	75 ee                	jne    17e8 <freeBigChunk__IPvsryqksLyNxxag3IQr2g+0x68>
    17fa:	81 fa ff ff 00 00    	cmp    edx,0xffff
    1800:	89 d1                	mov    ecx,edx
    1802:	0f 87 58 02 00 00    	ja     1a60 <freeBigChunk__IPvsryqksLyNxxag3IQr2g+0x2e0>
    1808:	31 c0                	xor    eax,eax
    180a:	81 fa ff 00 00 00    	cmp    edx,0xff
    1810:	0f 87 62 02 00 00    	ja     1a78 <freeBigChunk__IPvsryqksLyNxxag3IQr2g+0x2f8>
    1816:	49 0f be 0c 0c       	movsx  rcx,BYTE PTR [r12+rcx*1]
    181b:	48 c7 45 18 00 00 00 	mov    QWORD PTR [rbp+0x18],0x0
    1822:	00 
    1823:	48 01 c8             	add    rax,rcx
    1826:	8d 48 fb             	lea    ecx,[rax-0x5]
    1829:	48 8d 70 fa          	lea    rsi,[rax-0x6]
    182d:	48 d3 fa             	sar    rdx,cl
    1830:	48 8d 4a e0          	lea    rcx,[rdx-0x20]
    1834:	48 89 f2             	mov    rdx,rsi
    1837:	48 c1 e2 05          	shl    rdx,0x5
    183b:	48 01 ca             	add    rdx,rcx
    183e:	48 8d 14 d3          	lea    rdx,[rbx+rdx*8]
    1842:	48 8b ba 78 10 00 00 	mov    rdi,QWORD PTR [rdx+0x1078]
    1849:	48 89 7d 10          	mov    QWORD PTR [rbp+0x10],rdi
    184d:	48 8b ba 78 10 00 00 	mov    rdi,QWORD PTR [rdx+0x1078]
    1854:	48 85 ff             	test   rdi,rdi
    1857:	74 04                	je     185d <freeBigChunk__IPvsryqksLyNxxag3IQr2g+0xdd>
    1859:	48 89 6f 18          	mov    QWORD PTR [rdi+0x18],rbp
    185d:	48 89 aa 78 10 00 00 	mov    QWORD PTR [rdx+0x1078],rbp
    1864:	ba 01 00 00 00       	mov    edx,0x1
    1869:	83 e1 1f             	and    ecx,0x1f
    186c:	48 89 d7             	mov    rdi,rdx
    186f:	48 d3 e7             	shl    rdi,cl
    1872:	89 f1                	mov    ecx,esi
    1874:	09 bc 83 fc 0f 00 00 	or     DWORD PTR [rbx+rax*4+0xffc],edi
    187b:	83 e1 1f             	and    ecx,0x1f
    187e:	48 d3 e2             	shl    rdx,cl
    1881:	09 93 10 10 00 00    	or     DWORD PTR [rbx+0x1010],edx
    1887:	48 83 c4 08          	add    rsp,0x8
    188b:	5b                   	pop    rbx
    188c:	5d                   	pop    rbp
    188d:	41 5c                	pop    r12
    188f:	41 5d                	pop    r13
    1891:	c3                   	ret    
    1892:	66 0f 1f 44 00 00    	nop    WORD PTR [rax+rax*1+0x0]
    1898:	48 89 f9             	mov    rcx,rdi
    189b:	48 c1 f9 0c          	sar    rcx,0xc
    189f:	81 e1 ff 01 00 00    	and    ecx,0x1ff
    18a5:	49 89 ca             	mov    r10,rcx
    18a8:	41 89 c8             	mov    r8d,ecx
    18ab:	49 c1 fa 06          	sar    r10,0x6
    18af:	41 83 e0 3f          	and    r8d,0x3f
    18b3:	4a 8b 44 d0 10       	mov    rax,QWORD PTR [rax+r10*8+0x10]
    18b8:	4c 0f a3 c0          	bt     rax,r8
    18bc:	0f 83 38 ff ff ff    	jae    17fa <freeBigChunk__IPvsryqksLyNxxag3IQr2g+0x7a>
    18c2:	f6 07 01             	test   BYTE PTR [rdi],0x1
    18c5:	0f 85 2f ff ff ff    	jne    17fa <freeBigChunk__IPvsryqksLyNxxag3IQr2g+0x7a>
    18cb:	48 8b 47 08          	mov    rax,QWORD PTR [rdi+0x8]
    18cf:	48 3d c8 0f 00 00    	cmp    rax,0xfc8
    18d5:	0f 8e 1f ff ff ff    	jle    17fa <freeBigChunk__IPvsryqksLyNxxag3IQr2g+0x7a>
    18db:	48 81 fa ff ff ff 3e 	cmp    rdx,0x3effffff
    18e2:	0f 8f 12 ff ff ff    	jg     17fa <freeBigChunk__IPvsryqksLyNxxag3IQr2g+0x7a>
    18e8:	3d ff ff 00 00       	cmp    eax,0xffff
    18ed:	89 c1                	mov    ecx,eax
    18ef:	0f 87 fb 03 00 00    	ja     1cf0 <freeBigChunk__IPvsryqksLyNxxag3IQr2g+0x570>
    18f5:	31 d2                	xor    edx,edx
    18f7:	3d ff 00 00 00       	cmp    eax,0xff
    18fc:	76 08                	jbe    1906 <freeBigChunk__IPvsryqksLyNxxag3IQr2g+0x186>
    18fe:	c1 e9 08             	shr    ecx,0x8
    1901:	ba 08 00 00 00       	mov    edx,0x8
    1906:	49 0f be 0c 0c       	movsx  rcx,BYTE PTR [r12+rcx*1]
    190b:	4c 8b 6f 10          	mov    r13,QWORD PTR [rdi+0x10]
    190f:	48 01 ca             	add    rdx,rcx
    1912:	8d 4a fb             	lea    ecx,[rdx-0x5]
    1915:	4c 8d 5a fa          	lea    r11,[rdx-0x6]
    1919:	48 d3 f8             	sar    rax,cl
    191c:	4d 85 ed             	test   r13,r13
    191f:	48 8d 48 e0          	lea    rcx,[rax-0x20]
    1923:	48 8b 47 18          	mov    rax,QWORD PTR [rdi+0x18]
    1927:	74 08                	je     1931 <freeBigChunk__IPvsryqksLyNxxag3IQr2g+0x1b1>
    1929:	49 89 45 18          	mov    QWORD PTR [r13+0x18],rax
    192d:	48 8b 47 18          	mov    rax,QWORD PTR [rdi+0x18]
    1931:	48 85 c0             	test   rax,rax
    1934:	74 08                	je     193e <freeBigChunk__IPvsryqksLyNxxag3IQr2g+0x1be>
    1936:	4c 8b 6f 10          	mov    r13,QWORD PTR [rdi+0x10]
    193a:	4c 89 68 10          	mov    QWORD PTR [rax+0x10],r13
    193e:	4c 89 d8             	mov    rax,r11
    1941:	48 c1 e0 05          	shl    rax,0x5
    1945:	48 01 c8             	add    rax,rcx
    1948:	48 8d 04 c3          	lea    rax,[rbx+rax*8]
    194c:	48 3b b8 78 10 00 00 	cmp    rdi,QWORD PTR [rax+0x1078]
    1953:	0f 84 b7 03 00 00    	je     1d10 <freeBigChunk__IPvsryqksLyNxxag3IQr2g+0x590>
    1959:	48 c7 47 18 00 00 00 	mov    QWORD PTR [rdi+0x18],0x0
    1960:	00 
    1961:	48 c7 47 10 00 00 00 	mov    QWORD PTR [rdi+0x10],0x0
    1968:	00 
    1969:	48 8b 57 08          	mov    rdx,QWORD PTR [rdi+0x8]
    196d:	48 03 55 08          	add    rdx,QWORD PTR [rbp+0x8]
    1971:	48 89 55 08          	mov    QWORD PTR [rbp+0x8],rdx
    1975:	49 8b 81 a8 28 00 00 	mov    rax,QWORD PTR [r9+0x28a8]
    197c:	48 85 c0             	test   rax,rax
    197f:	74 21                	je     19a2 <freeBigChunk__IPvsryqksLyNxxag3IQr2g+0x222>
    1981:	48 39 70 08          	cmp    QWORD PTR [rax+0x8],rsi
    1985:	75 13                	jne    199a <freeBigChunk__IPvsryqksLyNxxag3IQr2g+0x21a>
    1987:	e9 44 03 00 00       	jmp    1cd0 <freeBigChunk__IPvsryqksLyNxxag3IQr2g+0x550>
    198c:	0f 1f 40 00          	nop    DWORD PTR [rax+0x0]
    1990:	48 3b 70 08          	cmp    rsi,QWORD PTR [rax+0x8]
    1994:	0f 84 36 03 00 00    	je     1cd0 <freeBigChunk__IPvsryqksLyNxxag3IQr2g+0x550>
    199a:	48 8b 00             	mov    rax,QWORD PTR [rax]
    199d:	48 85 c0             	test   rax,rax
    19a0:	75 ee                	jne    1990 <freeBigChunk__IPvsryqksLyNxxag3IQr2g+0x210>
    19a2:	48 81 fa 00 00 00 3f 	cmp    rdx,0x3f000000
    19a9:	0f 8e 4b fe ff ff    	jle    17fa <freeBigChunk__IPvsryqksLyNxxag3IQr2g+0x7a>
    19af:	ba 00 00 00 3f       	mov    edx,0x3f000000
    19b4:	48 89 ee             	mov    rsi,rbp
    19b7:	48 89 df             	mov    rdi,rbx
    19ba:	e8 f1 fa ff ff       	call   14b0 <splitChunk2__gSNzk4aToVCSTE1opfEv2A>
    19bf:	48 8b 50 08          	mov    rdx,QWORD PTR [rax+0x8]
    19c3:	81 fa ff ff 00 00    	cmp    edx,0xffff
    19c9:	89 d1                	mov    ecx,edx
    19cb:	0f 87 9a 03 00 00    	ja     1d6b <freeBigChunk__IPvsryqksLyNxxag3IQr2g+0x5eb>
    19d1:	31 f6                	xor    esi,esi
    19d3:	81 fa ff 00 00 00    	cmp    edx,0xff
    19d9:	76 08                	jbe    19e3 <freeBigChunk__IPvsryqksLyNxxag3IQr2g+0x263>
    19db:	c1 e9 08             	shr    ecx,0x8
    19de:	be 08 00 00 00       	mov    esi,0x8
    19e3:	49 0f be 0c 0c       	movsx  rcx,BYTE PTR [r12+rcx*1]
    19e8:	48 c7 40 18 00 00 00 	mov    QWORD PTR [rax+0x18],0x0
    19ef:	00 
    19f0:	48 01 ce             	add    rsi,rcx
    19f3:	8d 4e fb             	lea    ecx,[rsi-0x5]
    19f6:	48 d3 fa             	sar    rdx,cl
    19f9:	48 8d 4a e0          	lea    rcx,[rdx-0x20]
    19fd:	48 8d 56 fa          	lea    rdx,[rsi-0x6]
    1a01:	48 89 d7             	mov    rdi,rdx
    1a04:	48 c1 e7 05          	shl    rdi,0x5
    1a08:	48 01 cf             	add    rdi,rcx
    1a0b:	48 8d 3c fb          	lea    rdi,[rbx+rdi*8]
    1a0f:	4c 8b 87 78 10 00 00 	mov    r8,QWORD PTR [rdi+0x1078]
    1a16:	4c 89 40 10          	mov    QWORD PTR [rax+0x10],r8
    1a1a:	4c 8b 87 78 10 00 00 	mov    r8,QWORD PTR [rdi+0x1078]
    1a21:	4d 85 c0             	test   r8,r8
    1a24:	74 04                	je     1a2a <freeBigChunk__IPvsryqksLyNxxag3IQr2g+0x2aa>
    1a26:	49 89 40 18          	mov    QWORD PTR [r8+0x18],rax
    1a2a:	48 89 87 78 10 00 00 	mov    QWORD PTR [rdi+0x1078],rax
    1a31:	b8 01 00 00 00       	mov    eax,0x1
    1a36:	83 e1 1f             	and    ecx,0x1f
    1a39:	48 89 c7             	mov    rdi,rax
    1a3c:	48 d3 e7             	shl    rdi,cl
    1a3f:	89 d1                	mov    ecx,edx
    1a41:	09 bc b3 fc 0f 00 00 	or     DWORD PTR [rbx+rsi*4+0xffc],edi
    1a48:	83 e1 1f             	and    ecx,0x1f
    1a4b:	48 d3 e0             	shl    rax,cl
    1a4e:	09 83 10 10 00 00    	or     DWORD PTR [rbx+0x1010],eax
    1a54:	48 8b 55 08          	mov    rdx,QWORD PTR [rbp+0x8]
    1a58:	e9 9d fd ff ff       	jmp    17fa <freeBigChunk__IPvsryqksLyNxxag3IQr2g+0x7a>
    1a5d:	0f 1f 00             	nop    DWORD PTR [rax]
    1a60:	81 fa ff ff ff 00    	cmp    edx,0xffffff
    1a66:	76 20                	jbe    1a88 <freeBigChunk__IPvsryqksLyNxxag3IQr2g+0x308>
    1a68:	c1 e9 18             	shr    ecx,0x18
    1a6b:	b8 18 00 00 00       	mov    eax,0x18
    1a70:	e9 a1 fd ff ff       	jmp    1816 <freeBigChunk__IPvsryqksLyNxxag3IQr2g+0x96>
    1a75:	0f 1f 00             	nop    DWORD PTR [rax]
    1a78:	c1 e9 08             	shr    ecx,0x8
    1a7b:	b8 08 00 00 00       	mov    eax,0x8
    1a80:	e9 91 fd ff ff       	jmp    1816 <freeBigChunk__IPvsryqksLyNxxag3IQr2g+0x96>
    1a85:	0f 1f 00             	nop    DWORD PTR [rax]
    1a88:	c1 e9 10             	shr    ecx,0x10
    1a8b:	b8 10 00 00 00       	mov    eax,0x10
    1a90:	e9 81 fd ff ff       	jmp    1816 <freeBigChunk__IPvsryqksLyNxxag3IQr2g+0x96>
    1a95:	0f 1f 00             	nop    DWORD PTR [rax]
    1a98:	49 89 f5             	mov    r13,rsi
    1a9b:	49 29 c5             	sub    r13,rax
    1a9e:	4c 89 ea             	mov    rdx,r13
    1aa1:	48 c1 fa 15          	sar    rdx,0x15
    1aa5:	0f b6 c2             	movzx  eax,dl
    1aa8:	48 8b 84 c3 a8 28 00 	mov    rax,QWORD PTR [rbx+rax*8+0x28a8]
    1aaf:	00 
    1ab0:	48 85 c0             	test   rax,rax
    1ab3:	75 17                	jne    1acc <freeBigChunk__IPvsryqksLyNxxag3IQr2g+0x34c>
    1ab5:	e9 f7 fc ff ff       	jmp    17b1 <freeBigChunk__IPvsryqksLyNxxag3IQr2g+0x31>
    1aba:	66 0f 1f 44 00 00    	nop    WORD PTR [rax+rax*1+0x0]
    1ac0:	48 8b 00             	mov    rax,QWORD PTR [rax]
    1ac3:	48 85 c0             	test   rax,rax
    1ac6:	0f 84 e5 fc ff ff    	je     17b1 <freeBigChunk__IPvsryqksLyNxxag3IQr2g+0x31>
    1acc:	48 3b 50 08          	cmp    rdx,QWORD PTR [rax+0x8]
    1ad0:	75 ee                	jne    1ac0 <freeBigChunk__IPvsryqksLyNxxag3IQr2g+0x340>
    1ad2:	4c 89 ea             	mov    rdx,r13
    1ad5:	48 c1 fa 0c          	sar    rdx,0xc
    1ad9:	81 e2 ff 01 00 00    	and    edx,0x1ff
    1adf:	48 89 d1             	mov    rcx,rdx
    1ae2:	48 c1 f9 06          	sar    rcx,0x6
    1ae6:	48 8b 44 c8 10       	mov    rax,QWORD PTR [rax+rcx*8+0x10]
    1aeb:	48 0f a3 d0          	bt     rax,rdx
    1aef:	0f 83 bc fc ff ff    	jae    17b1 <freeBigChunk__IPvsryqksLyNxxag3IQr2g+0x31>
    1af5:	41 f6 45 00 01       	test   BYTE PTR [r13+0x0],0x1
    1afa:	0f 85 b1 fc ff ff    	jne    17b1 <freeBigChunk__IPvsryqksLyNxxag3IQr2g+0x31>
    1b00:	49 8b 45 08          	mov    rax,QWORD PTR [r13+0x8]
    1b04:	48 3d c8 0f 00 00    	cmp    rax,0xfc8
    1b0a:	0f 8e a1 fc ff ff    	jle    17b1 <freeBigChunk__IPvsryqksLyNxxag3IQr2g+0x31>
    1b10:	48 3d ff ff ff 3e    	cmp    rax,0x3effffff
    1b16:	0f 8f 95 fc ff ff    	jg     17b1 <freeBigChunk__IPvsryqksLyNxxag3IQr2g+0x31>
    1b1c:	3d ff ff 00 00       	cmp    eax,0xffff
    1b21:	89 c2                	mov    edx,eax
    1b23:	0f 87 59 02 00 00    	ja     1d82 <freeBigChunk__IPvsryqksLyNxxag3IQr2g+0x602>
    1b29:	31 c9                	xor    ecx,ecx
    1b2b:	3d ff 00 00 00       	cmp    eax,0xff
    1b30:	76 08                	jbe    1b3a <freeBigChunk__IPvsryqksLyNxxag3IQr2g+0x3ba>
    1b32:	c1 ea 08             	shr    edx,0x8
    1b35:	b9 08 00 00 00       	mov    ecx,0x8
    1b3a:	4c 8d 25 bf da 00 00 	lea    r12,[rip+0xdabf]        # f600 <fsLookupTable__Gn52IZvqY4slyBTOYwGNRQ>
    1b41:	49 8b 75 10          	mov    rsi,QWORD PTR [r13+0x10]
    1b45:	49 0f be 14 14       	movsx  rdx,BYTE PTR [r12+rdx*1]
    1b4a:	48 01 ca             	add    rdx,rcx
    1b4d:	8d 4a fb             	lea    ecx,[rdx-0x5]
    1b50:	48 8d 7a fa          	lea    rdi,[rdx-0x6]
    1b54:	48 d3 f8             	sar    rax,cl
    1b57:	49 8b 4d 18          	mov    rcx,QWORD PTR [r13+0x18]
    1b5b:	48 83 e8 20          	sub    rax,0x20
    1b5f:	48 85 f6             	test   rsi,rsi
    1b62:	74 08                	je     1b6c <freeBigChunk__IPvsryqksLyNxxag3IQr2g+0x3ec>
    1b64:	48 89 4e 18          	mov    QWORD PTR [rsi+0x18],rcx
    1b68:	49 8b 4d 18          	mov    rcx,QWORD PTR [r13+0x18]
    1b6c:	48 85 c9             	test   rcx,rcx
    1b6f:	74 08                	je     1b79 <freeBigChunk__IPvsryqksLyNxxag3IQr2g+0x3f9>
    1b71:	49 8b 75 10          	mov    rsi,QWORD PTR [r13+0x10]
    1b75:	48 89 71 10          	mov    QWORD PTR [rcx+0x10],rsi
    1b79:	48 89 f9             	mov    rcx,rdi
    1b7c:	48 c1 e1 05          	shl    rcx,0x5
    1b80:	48 01 c1             	add    rcx,rax
    1b83:	48 8d 0c cb          	lea    rcx,[rbx+rcx*8]
    1b87:	4c 3b a9 78 10 00 00 	cmp    r13,QWORD PTR [rcx+0x1078]
    1b8e:	0f 84 11 02 00 00    	je     1da5 <freeBigChunk__IPvsryqksLyNxxag3IQr2g+0x625>
    1b94:	49 c7 45 18 00 00 00 	mov    QWORD PTR [r13+0x18],0x0
    1b9b:	00 
    1b9c:	49 c7 45 10 00 00 00 	mov    QWORD PTR [r13+0x10],0x0
    1ba3:	00 
    1ba4:	48 89 e9             	mov    rcx,rbp
    1ba7:	48 8b 55 08          	mov    rdx,QWORD PTR [rbp+0x8]
    1bab:	49 03 55 08          	add    rdx,QWORD PTR [r13+0x8]
    1baf:	48 c1 f9 15          	sar    rcx,0x15
    1bb3:	0f b6 c1             	movzx  eax,cl
    1bb6:	49 89 55 08          	mov    QWORD PTR [r13+0x8],rdx
    1bba:	48 8b 84 c3 a8 28 00 	mov    rax,QWORD PTR [rbx+rax*8+0x28a8]
    1bc1:	00 
    1bc2:	48 85 c0             	test   rax,rax
    1bc5:	75 11                	jne    1bd8 <freeBigChunk__IPvsryqksLyNxxag3IQr2g+0x458>
    1bc7:	eb 3d                	jmp    1c06 <freeBigChunk__IPvsryqksLyNxxag3IQr2g+0x486>
    1bc9:	0f 1f 80 00 00 00 00 	nop    DWORD PTR [rax+0x0]
    1bd0:	48 8b 00             	mov    rax,QWORD PTR [rax]
    1bd3:	48 85 c0             	test   rax,rax
    1bd6:	74 2e                	je     1c06 <freeBigChunk__IPvsryqksLyNxxag3IQr2g+0x486>
    1bd8:	48 3b 48 08          	cmp    rcx,QWORD PTR [rax+0x8]
    1bdc:	75 f2                	jne    1bd0 <freeBigChunk__IPvsryqksLyNxxag3IQr2g+0x450>
    1bde:	48 89 e9             	mov    rcx,rbp
    1be1:	ba 01 00 00 00       	mov    edx,0x1
    1be6:	48 c1 f9 0c          	sar    rcx,0xc
    1bea:	81 e1 ff 01 00 00    	and    ecx,0x1ff
    1bf0:	48 89 ce             	mov    rsi,rcx
    1bf3:	48 d3 e2             	shl    rdx,cl
    1bf6:	48 c1 fe 06          	sar    rsi,0x6
    1bfa:	48 f7 d2             	not    rdx
    1bfd:	48 21 54 f0 10       	and    QWORD PTR [rax+rsi*8+0x10],rdx
    1c02:	49 8b 55 08          	mov    rdx,QWORD PTR [r13+0x8]
    1c06:	48 81 fa 00 00 00 3f 	cmp    rdx,0x3f000000
    1c0d:	4c 89 ef             	mov    rdi,r13
    1c10:	4c 89 ed             	mov    rbp,r13
    1c13:	0f 8e a3 fb ff ff    	jle    17bc <freeBigChunk__IPvsryqksLyNxxag3IQr2g+0x3c>
    1c19:	ba 00 00 00 3f       	mov    edx,0x3f000000
    1c1e:	4c 89 ee             	mov    rsi,r13
    1c21:	48 89 df             	mov    rdi,rbx
    1c24:	e8 87 f8 ff ff       	call   14b0 <splitChunk2__gSNzk4aToVCSTE1opfEv2A>
    1c29:	48 89 c5             	mov    rbp,rax
    1c2c:	49 8b 45 08          	mov    rax,QWORD PTR [r13+0x8]
    1c30:	3d ff ff 00 00       	cmp    eax,0xffff
    1c35:	89 c2                	mov    edx,eax
    1c37:	0f 87 c6 01 00 00    	ja     1e03 <freeBigChunk__IPvsryqksLyNxxag3IQr2g+0x683>
    1c3d:	31 c9                	xor    ecx,ecx
    1c3f:	3d ff 00 00 00       	cmp    eax,0xff
    1c44:	76 08                	jbe    1c4e <freeBigChunk__IPvsryqksLyNxxag3IQr2g+0x4ce>
    1c46:	c1 ea 08             	shr    edx,0x8
    1c49:	b9 08 00 00 00       	mov    ecx,0x8
    1c4e:	49 0f be 14 14       	movsx  rdx,BYTE PTR [r12+rdx*1]
    1c53:	49 c7 45 18 00 00 00 	mov    QWORD PTR [r13+0x18],0x0
    1c5a:	00 
    1c5b:	48 01 ca             	add    rdx,rcx
    1c5e:	8d 4a fb             	lea    ecx,[rdx-0x5]
    1c61:	48 8d 72 fa          	lea    rsi,[rdx-0x6]
    1c65:	48 d3 f8             	sar    rax,cl
    1c68:	48 8d 48 e0          	lea    rcx,[rax-0x20]
    1c6c:	48 89 f0             	mov    rax,rsi
    1c6f:	48 c1 e0 05          	shl    rax,0x5
    1c73:	48 01 c8             	add    rax,rcx
    1c76:	48 8d 04 c3          	lea    rax,[rbx+rax*8]
    1c7a:	48 8b b8 78 10 00 00 	mov    rdi,QWORD PTR [rax+0x1078]
    1c81:	49 89 7d 10          	mov    QWORD PTR [r13+0x10],rdi
    1c85:	48 8b b8 78 10 00 00 	mov    rdi,QWORD PTR [rax+0x1078]
    1c8c:	48 85 ff             	test   rdi,rdi
    1c8f:	74 04                	je     1c95 <freeBigChunk__IPvsryqksLyNxxag3IQr2g+0x515>
    1c91:	4c 89 6f 18          	mov    QWORD PTR [rdi+0x18],r13
    1c95:	4c 89 a8 78 10 00 00 	mov    QWORD PTR [rax+0x1078],r13
    1c9c:	b8 01 00 00 00       	mov    eax,0x1
    1ca1:	83 e1 1f             	and    ecx,0x1f
    1ca4:	48 89 c7             	mov    rdi,rax
    1ca7:	48 d3 e7             	shl    rdi,cl
    1caa:	89 f1                	mov    ecx,esi
    1cac:	09 bc 93 fc 0f 00 00 	or     DWORD PTR [rbx+rdx*4+0xffc],edi
    1cb3:	83 e1 1f             	and    ecx,0x1f
    1cb6:	48 89 ef             	mov    rdi,rbp
    1cb9:	48 d3 e0             	shl    rax,cl
    1cbc:	09 83 10 10 00 00    	or     DWORD PTR [rbx+0x1010],eax
    1cc2:	48 8b 55 08          	mov    rdx,QWORD PTR [rbp+0x8]
    1cc6:	e9 f1 fa ff ff       	jmp    17bc <freeBigChunk__IPvsryqksLyNxxag3IQr2g+0x3c>
    1ccb:	0f 1f 44 00 00       	nop    DWORD PTR [rax+rax*1+0x0]
    1cd0:	48 c7 c2 fe ff ff ff 	mov    rdx,0xfffffffffffffffe
    1cd7:	44 89 c1             	mov    ecx,r8d
    1cda:	48 d3 c2             	rol    rdx,cl
    1cdd:	4a 21 54 d0 10       	and    QWORD PTR [rax+r10*8+0x10],rdx
    1ce2:	48 8b 55 08          	mov    rdx,QWORD PTR [rbp+0x8]
    1ce6:	e9 b7 fc ff ff       	jmp    19a2 <freeBigChunk__IPvsryqksLyNxxag3IQr2g+0x222>
    1ceb:	0f 1f 44 00 00       	nop    DWORD PTR [rax+rax*1+0x0]
    1cf0:	3d ff ff ff 00       	cmp    eax,0xffffff
    1cf5:	89 c1                	mov    ecx,eax
    1cf7:	76 65                	jbe    1d5e <freeBigChunk__IPvsryqksLyNxxag3IQr2g+0x5de>
    1cf9:	c1 e9 18             	shr    ecx,0x18
    1cfc:	ba 18 00 00 00       	mov    edx,0x18
    1d01:	e9 00 fc ff ff       	jmp    1906 <freeBigChunk__IPvsryqksLyNxxag3IQr2g+0x186>
    1d06:	66 2e 0f 1f 84 00 00 	nop    WORD PTR cs:[rax+rax*1+0x0]
    1d0d:	00 00 00 
    1d10:	4c 8b 6f 10          	mov    r13,QWORD PTR [rdi+0x10]
    1d14:	4d 85 ed             	test   r13,r13
    1d17:	4c 89 a8 78 10 00 00 	mov    QWORD PTR [rax+0x1078],r13
    1d1e:	0f 85 35 fc ff ff    	jne    1959 <freeBigChunk__IPvsryqksLyNxxag3IQr2g+0x1d9>
    1d24:	4c 8d 2c 93          	lea    r13,[rbx+rdx*4]
    1d28:	ba 01 00 00 00       	mov    edx,0x1
    1d2d:	83 e1 1f             	and    ecx,0x1f
    1d30:	48 89 d0             	mov    rax,rdx
    1d33:	48 d3 e0             	shl    rax,cl
    1d36:	f7 d0                	not    eax
    1d38:	41 21 85 fc 0f 00 00 	and    DWORD PTR [r13+0xffc],eax
    1d3f:	0f 85 14 fc ff ff    	jne    1959 <freeBigChunk__IPvsryqksLyNxxag3IQr2g+0x1d9>
    1d45:	44 89 d9             	mov    ecx,r11d
    1d48:	48 89 d0             	mov    rax,rdx
    1d4b:	83 e1 1f             	and    ecx,0x1f
    1d4e:	48 d3 e0             	shl    rax,cl
    1d51:	f7 d0                	not    eax
    1d53:	21 83 10 10 00 00    	and    DWORD PTR [rbx+0x1010],eax
    1d59:	e9 fb fb ff ff       	jmp    1959 <freeBigChunk__IPvsryqksLyNxxag3IQr2g+0x1d9>
    1d5e:	c1 e9 10             	shr    ecx,0x10
    1d61:	ba 10 00 00 00       	mov    edx,0x10
    1d66:	e9 9b fb ff ff       	jmp    1906 <freeBigChunk__IPvsryqksLyNxxag3IQr2g+0x186>
    1d6b:	81 fa ff ff ff 00    	cmp    edx,0xffffff
    1d71:	89 d1                	mov    ecx,edx
    1d73:	76 23                	jbe    1d98 <freeBigChunk__IPvsryqksLyNxxag3IQr2g+0x618>
    1d75:	c1 e9 18             	shr    ecx,0x18
    1d78:	be 18 00 00 00       	mov    esi,0x18
    1d7d:	e9 61 fc ff ff       	jmp    19e3 <freeBigChunk__IPvsryqksLyNxxag3IQr2g+0x263>
    1d82:	3d ff ff ff 00       	cmp    eax,0xffffff
    1d87:	89 c2                	mov    edx,eax
    1d89:	76 6b                	jbe    1df6 <freeBigChunk__IPvsryqksLyNxxag3IQr2g+0x676>
    1d8b:	c1 ea 18             	shr    edx,0x18
    1d8e:	b9 18 00 00 00       	mov    ecx,0x18
    1d93:	e9 a2 fd ff ff       	jmp    1b3a <freeBigChunk__IPvsryqksLyNxxag3IQr2g+0x3ba>
    1d98:	c1 e9 10             	shr    ecx,0x10
    1d9b:	be 10 00 00 00       	mov    esi,0x10
    1da0:	e9 3e fc ff ff       	jmp    19e3 <freeBigChunk__IPvsryqksLyNxxag3IQr2g+0x263>
    1da5:	49 8b 75 10          	mov    rsi,QWORD PTR [r13+0x10]
    1da9:	48 85 f6             	test   rsi,rsi
    1dac:	48 89 b1 78 10 00 00 	mov    QWORD PTR [rcx+0x1078],rsi
    1db3:	0f 85 db fd ff ff    	jne    1b94 <freeBigChunk__IPvsryqksLyNxxag3IQr2g+0x414>
    1db9:	83 e0 1f             	and    eax,0x1f
    1dbc:	48 8d 34 93          	lea    rsi,[rbx+rdx*4]
    1dc0:	ba 01 00 00 00       	mov    edx,0x1
    1dc5:	89 c1                	mov    ecx,eax
    1dc7:	49 89 d3             	mov    r11,rdx
    1dca:	49 d3 e3             	shl    r11,cl
    1dcd:	4c 89 d8             	mov    rax,r11
    1dd0:	f7 d0                	not    eax
    1dd2:	21 86 fc 0f 00 00    	and    DWORD PTR [rsi+0xffc],eax
    1dd8:	0f 85 b6 fd ff ff    	jne    1b94 <freeBigChunk__IPvsryqksLyNxxag3IQr2g+0x414>
    1dde:	89 f9                	mov    ecx,edi
    1de0:	48 89 d0             	mov    rax,rdx
    1de3:	83 e1 1f             	and    ecx,0x1f
    1de6:	48 d3 e0             	shl    rax,cl
    1de9:	f7 d0                	not    eax
    1deb:	21 83 10 10 00 00    	and    DWORD PTR [rbx+0x1010],eax
    1df1:	e9 9e fd ff ff       	jmp    1b94 <freeBigChunk__IPvsryqksLyNxxag3IQr2g+0x414>
    1df6:	c1 ea 10             	shr    edx,0x10
    1df9:	b9 10 00 00 00       	mov    ecx,0x10
    1dfe:	e9 37 fd ff ff       	jmp    1b3a <freeBigChunk__IPvsryqksLyNxxag3IQr2g+0x3ba>
    1e03:	3d ff ff ff 00       	cmp    eax,0xffffff
    1e08:	89 c2                	mov    edx,eax
    1e0a:	76 0d                	jbe    1e19 <freeBigChunk__IPvsryqksLyNxxag3IQr2g+0x699>
    1e0c:	c1 ea 18             	shr    edx,0x18
    1e0f:	b9 18 00 00 00       	mov    ecx,0x18
    1e14:	e9 35 fe ff ff       	jmp    1c4e <freeBigChunk__IPvsryqksLyNxxag3IQr2g+0x4ce>
    1e19:	c1 ea 10             	shr    edx,0x10
    1e1c:	b9 10 00 00 00       	mov    ecx,0x10
    1e21:	e9 28 fe ff ff       	jmp    1c4e <freeBigChunk__IPvsryqksLyNxxag3IQr2g+0x4ce>
    1e26:	66 2e 0f 1f 84 00 00 	nop    WORD PTR cs:[rax+rax*1+0x0]
    1e2d:	00 00 00 

0000000000001e30 <getBottom__3mqnVBLDtYhZizqw9bvHELA>:
    1e30:	48 83 bf d8 30 00 00 	cmp    QWORD PTR [rdi+0x30d8],0x0
    1e37:	00 
    1e38:	48 8d 87 d8 30 00 00 	lea    rax,[rdi+0x30d8]
    1e3f:	74 07                	je     1e48 <getBottom__3mqnVBLDtYhZizqw9bvHELA+0x18>
    1e41:	f3 c3                	repz ret 
    1e43:	0f 1f 44 00 00       	nop    DWORD PTR [rax+rax*1+0x0]
    1e48:	48 89 87 d8 30 00 00 	mov    QWORD PTR [rdi+0x30d8],rax
    1e4f:	48 89 87 e0 30 00 00 	mov    QWORD PTR [rdi+0x30e0],rax
    1e56:	c3                   	ret    
    1e57:	66 0f 1f 84 00 00 00 	nop    WORD PTR [rax+rax*1+0x0]
    1e5e:	00 00 

0000000000001e60 <skew__NJo8pxZdXEAIa7wkHls9cOw>:
    1e60:	48 8b 07             	mov    rax,QWORD PTR [rdi]
    1e63:	48 8b 10             	mov    rdx,QWORD PTR [rax]
    1e66:	48 8b 48 20          	mov    rcx,QWORD PTR [rax+0x20]
    1e6a:	48 39 4a 20          	cmp    QWORD PTR [rdx+0x20],rcx
    1e6e:	74 08                	je     1e78 <skew__NJo8pxZdXEAIa7wkHls9cOw+0x18>
    1e70:	f3 c3                	repz ret 
    1e72:	66 0f 1f 44 00 00    	nop    WORD PTR [rax+rax*1+0x0]
    1e78:	48 89 17             	mov    QWORD PTR [rdi],rdx
    1e7b:	48 8b 52 08          	mov    rdx,QWORD PTR [rdx+0x8]
    1e7f:	48 89 10             	mov    QWORD PTR [rax],rdx
    1e82:	48 8b 17             	mov    rdx,QWORD PTR [rdi]
    1e85:	48 89 42 08          	mov    QWORD PTR [rdx+0x8],rax
    1e89:	c3                   	ret    
    1e8a:	66 0f 1f 44 00 00    	nop    WORD PTR [rax+rax*1+0x0]

0000000000001e90 <split__NJo8pxZdXEAIa7wkHls9cOw_2>:
    1e90:	48 8b 07             	mov    rax,QWORD PTR [rdi]
    1e93:	48 8b 50 08          	mov    rdx,QWORD PTR [rax+0x8]
    1e97:	48 8b 70 20          	mov    rsi,QWORD PTR [rax+0x20]
    1e9b:	48 8b 4a 08          	mov    rcx,QWORD PTR [rdx+0x8]
    1e9f:	48 39 71 20          	cmp    QWORD PTR [rcx+0x20],rsi
    1ea3:	74 0b                	je     1eb0 <split__NJo8pxZdXEAIa7wkHls9cOw_2+0x20>
    1ea5:	f3 c3                	repz ret 
    1ea7:	66 0f 1f 84 00 00 00 	nop    WORD PTR [rax+rax*1+0x0]
    1eae:	00 00 
    1eb0:	48 89 17             	mov    QWORD PTR [rdi],rdx
    1eb3:	48 8b 12             	mov    rdx,QWORD PTR [rdx]
    1eb6:	48 89 50 08          	mov    QWORD PTR [rax+0x8],rdx
    1eba:	48 8b 17             	mov    rdx,QWORD PTR [rdi]
    1ebd:	48 89 02             	mov    QWORD PTR [rdx],rax
    1ec0:	48 8b 07             	mov    rax,QWORD PTR [rdi]
    1ec3:	48 83 40 20 01       	add    QWORD PTR [rax+0x20],0x1
    1ec8:	c3                   	ret    
    1ec9:	0f 1f 80 00 00 00 00 	nop    DWORD PTR [rax+0x0]

0000000000001ed0 <del__Io5JDKCS5u26IEWw0J53hQ>:
    1ed0:	48 8b 06             	mov    rax,QWORD PTR [rsi]
    1ed3:	48 3b 00             	cmp    rax,QWORD PTR [rax]
    1ed6:	0f 84 6c 01 00 00    	je     2048 <del__Io5JDKCS5u26IEWw0J53hQ+0x178>
    1edc:	41 54                	push   r12
    1ede:	49 89 f4             	mov    r12,rsi
    1ee1:	55                   	push   rbp
    1ee2:	53                   	push   rbx
    1ee3:	48 89 87 b8 30 00 00 	mov    QWORD PTR [rdi+0x30b8],rax
    1eea:	48 89 d5             	mov    rbp,rdx
    1eed:	48 8b 36             	mov    rsi,QWORD PTR [rsi]
    1ef0:	48 89 fb             	mov    rbx,rdi
    1ef3:	48 3b 56 10          	cmp    rdx,QWORD PTR [rsi+0x10]
    1ef7:	0f 83 33 01 00 00    	jae    2030 <del__Io5JDKCS5u26IEWw0J53hQ+0x160>
    1efd:	48 89 ea             	mov    rdx,rbp
    1f00:	48 89 df             	mov    rdi,rbx
    1f03:	e8 c8 ff ff ff       	call   1ed0 <del__Io5JDKCS5u26IEWw0J53hQ>
    1f08:	49 8b 04 24          	mov    rax,QWORD PTR [r12]
    1f0c:	48 3b 83 b8 30 00 00 	cmp    rax,QWORD PTR [rbx+0x30b8]
    1f13:	0f 84 37 01 00 00    	je     2050 <del__Io5JDKCS5u26IEWw0J53hQ+0x180>
    1f19:	48 8b 78 20          	mov    rdi,QWORD PTR [rax+0x20]
    1f1d:	48 8b 08             	mov    rcx,QWORD PTR [rax]
    1f20:	48 8d 57 ff          	lea    rdx,[rdi-0x1]
    1f24:	48 39 51 20          	cmp    QWORD PTR [rcx+0x20],rdx
    1f28:	0f 8d aa 01 00 00    	jge    20d8 <del__Io5JDKCS5u26IEWw0J53hQ+0x208>
    1f2e:	48 89 50 20          	mov    QWORD PTR [rax+0x20],rdx
    1f32:	49 8b 04 24          	mov    rax,QWORD PTR [r12]
    1f36:	48 8b 48 08          	mov    rcx,QWORD PTR [rax+0x8]
    1f3a:	48 8b 50 20          	mov    rdx,QWORD PTR [rax+0x20]
    1f3e:	48 3b 51 20          	cmp    rdx,QWORD PTR [rcx+0x20]
    1f42:	7d 0c                	jge    1f50 <del__Io5JDKCS5u26IEWw0J53hQ+0x80>
    1f44:	48 89 51 20          	mov    QWORD PTR [rcx+0x20],rdx
    1f48:	49 8b 04 24          	mov    rax,QWORD PTR [r12]
    1f4c:	48 8b 50 20          	mov    rdx,QWORD PTR [rax+0x20]
    1f50:	48 8b 08             	mov    rcx,QWORD PTR [rax]
    1f53:	48 39 51 20          	cmp    QWORD PTR [rcx+0x20],rdx
    1f57:	75 17                	jne    1f70 <del__Io5JDKCS5u26IEWw0J53hQ+0xa0>
    1f59:	49 89 0c 24          	mov    QWORD PTR [r12],rcx
    1f5d:	48 8b 51 08          	mov    rdx,QWORD PTR [rcx+0x8]
    1f61:	48 89 10             	mov    QWORD PTR [rax],rdx
    1f64:	49 8b 14 24          	mov    rdx,QWORD PTR [r12]
    1f68:	48 89 42 08          	mov    QWORD PTR [rdx+0x8],rax
    1f6c:	49 8b 04 24          	mov    rax,QWORD PTR [r12]
    1f70:	48 8b 50 08          	mov    rdx,QWORD PTR [rax+0x8]
    1f74:	48 8b 0a             	mov    rcx,QWORD PTR [rdx]
    1f77:	48 8b 7a 20          	mov    rdi,QWORD PTR [rdx+0x20]
    1f7b:	48 39 79 20          	cmp    QWORD PTR [rcx+0x20],rdi
    1f7f:	75 1b                	jne    1f9c <del__Io5JDKCS5u26IEWw0J53hQ+0xcc>
    1f81:	48 89 48 08          	mov    QWORD PTR [rax+0x8],rcx
    1f85:	48 8b 49 08          	mov    rcx,QWORD PTR [rcx+0x8]
    1f89:	48 89 0a             	mov    QWORD PTR [rdx],rcx
    1f8c:	48 8b 40 08          	mov    rax,QWORD PTR [rax+0x8]
    1f90:	48 89 50 08          	mov    QWORD PTR [rax+0x8],rdx
    1f94:	49 8b 04 24          	mov    rax,QWORD PTR [r12]
    1f98:	48 8b 50 08          	mov    rdx,QWORD PTR [rax+0x8]
    1f9c:	48 8b 4a 08          	mov    rcx,QWORD PTR [rdx+0x8]
    1fa0:	48 8b 39             	mov    rdi,QWORD PTR [rcx]
    1fa3:	48 8b 71 20          	mov    rsi,QWORD PTR [rcx+0x20]
    1fa7:	48 39 77 20          	cmp    QWORD PTR [rdi+0x20],rsi
    1fab:	75 23                	jne    1fd0 <del__Io5JDKCS5u26IEWw0J53hQ+0x100>
    1fad:	48 89 7a 08          	mov    QWORD PTR [rdx+0x8],rdi
    1fb1:	48 8b 47 08          	mov    rax,QWORD PTR [rdi+0x8]
    1fb5:	48 89 01             	mov    QWORD PTR [rcx],rax
    1fb8:	48 8b 42 08          	mov    rax,QWORD PTR [rdx+0x8]
    1fbc:	48 89 48 08          	mov    QWORD PTR [rax+0x8],rcx
    1fc0:	49 8b 04 24          	mov    rax,QWORD PTR [r12]
    1fc4:	48 8b 50 08          	mov    rdx,QWORD PTR [rax+0x8]
    1fc8:	48 8b 4a 08          	mov    rcx,QWORD PTR [rdx+0x8]
    1fcc:	48 8b 71 20          	mov    rsi,QWORD PTR [rcx+0x20]
    1fd0:	48 39 70 20          	cmp    QWORD PTR [rax+0x20],rsi
    1fd4:	75 27                	jne    1ffd <del__Io5JDKCS5u26IEWw0J53hQ+0x12d>
    1fd6:	49 89 14 24          	mov    QWORD PTR [r12],rdx
    1fda:	48 8b 12             	mov    rdx,QWORD PTR [rdx]
    1fdd:	48 89 50 08          	mov    QWORD PTR [rax+0x8],rdx
    1fe1:	49 8b 14 24          	mov    rdx,QWORD PTR [r12]
    1fe5:	48 89 02             	mov    QWORD PTR [rdx],rax
    1fe8:	49 8b 04 24          	mov    rax,QWORD PTR [r12]
    1fec:	48 83 40 20 01       	add    QWORD PTR [rax+0x20],0x1
    1ff1:	49 8b 04 24          	mov    rax,QWORD PTR [r12]
    1ff5:	48 8b 50 08          	mov    rdx,QWORD PTR [rax+0x8]
    1ff9:	48 8b 4a 08          	mov    rcx,QWORD PTR [rdx+0x8]
    1ffd:	48 8b 71 08          	mov    rsi,QWORD PTR [rcx+0x8]
    2001:	48 8b 7a 20          	mov    rdi,QWORD PTR [rdx+0x20]
    2005:	48 39 7e 20          	cmp    QWORD PTR [rsi+0x20],rdi
    2009:	0f 85 c0 00 00 00    	jne    20cf <del__Io5JDKCS5u26IEWw0J53hQ+0x1ff>
    200f:	48 89 48 08          	mov    QWORD PTR [rax+0x8],rcx
    2013:	48 8b 09             	mov    rcx,QWORD PTR [rcx]
    2016:	48 89 4a 08          	mov    QWORD PTR [rdx+0x8],rcx
    201a:	48 8b 48 08          	mov    rcx,QWORD PTR [rax+0x8]
    201e:	48 89 11             	mov    QWORD PTR [rcx],rdx
    2021:	48 8b 40 08          	mov    rax,QWORD PTR [rax+0x8]
    2025:	48 83 40 20 01       	add    QWORD PTR [rax+0x20],0x1
    202a:	e9 a0 00 00 00       	jmp    20cf <del__Io5JDKCS5u26IEWw0J53hQ+0x1ff>
    202f:	90                   	nop
    2030:	48 89 b7 b0 30 00 00 	mov    QWORD PTR [rdi+0x30b0],rsi
    2037:	49 8b 04 24          	mov    rax,QWORD PTR [r12]
    203b:	48 8d 70 08          	lea    rsi,[rax+0x8]
    203f:	e9 b9 fe ff ff       	jmp    1efd <del__Io5JDKCS5u26IEWw0J53hQ+0x2d>
    2044:	0f 1f 40 00          	nop    DWORD PTR [rax+0x0]
    2048:	f3 c3                	repz ret 
    204a:	66 0f 1f 44 00 00    	nop    WORD PTR [rax+rax*1+0x0]
    2050:	48 8b 93 b0 30 00 00 	mov    rdx,QWORD PTR [rbx+0x30b0]
    2057:	48 3b 12             	cmp    rdx,QWORD PTR [rdx]
    205a:	0f 84 b9 fe ff ff    	je     1f19 <del__Io5JDKCS5u26IEWw0J53hQ+0x49>
    2060:	48 39 6a 10          	cmp    QWORD PTR [rdx+0x10],rbp
    2064:	0f 85 af fe ff ff    	jne    1f19 <del__Io5JDKCS5u26IEWw0J53hQ+0x49>
    206a:	48 8b 40 10          	mov    rax,QWORD PTR [rax+0x10]
    206e:	48 89 42 10          	mov    QWORD PTR [rdx+0x10],rax
    2072:	49 8b 14 24          	mov    rdx,QWORD PTR [r12]
    2076:	48 8b 83 b0 30 00 00 	mov    rax,QWORD PTR [rbx+0x30b0]
    207d:	48 8b 52 18          	mov    rdx,QWORD PTR [rdx+0x18]
    2081:	48 89 50 18          	mov    QWORD PTR [rax+0x18],rdx
    2085:	48 83 bb d8 30 00 00 	cmp    QWORD PTR [rbx+0x30d8],0x0
    208c:	00 
    208d:	48 8d 83 d8 30 00 00 	lea    rax,[rbx+0x30d8]
    2094:	75 0e                	jne    20a4 <del__Io5JDKCS5u26IEWw0J53hQ+0x1d4>
    2096:	48 89 83 d8 30 00 00 	mov    QWORD PTR [rbx+0x30d8],rax
    209d:	48 89 83 e0 30 00 00 	mov    QWORD PTR [rbx+0x30e0],rax
    20a4:	48 89 83 b0 30 00 00 	mov    QWORD PTR [rbx+0x30b0],rax
    20ab:	49 8b 04 24          	mov    rax,QWORD PTR [r12]
    20af:	48 8b 40 08          	mov    rax,QWORD PTR [rax+0x8]
    20b3:	49 89 04 24          	mov    QWORD PTR [r12],rax
    20b7:	48 8b 83 b8 30 00 00 	mov    rax,QWORD PTR [rbx+0x30b8]
    20be:	48 8b 93 c0 30 00 00 	mov    rdx,QWORD PTR [rbx+0x30c0]
    20c5:	48 89 10             	mov    QWORD PTR [rax],rdx
    20c8:	48 89 83 c0 30 00 00 	mov    QWORD PTR [rbx+0x30c0],rax
    20cf:	5b                   	pop    rbx
    20d0:	5d                   	pop    rbp
    20d1:	41 5c                	pop    r12
    20d3:	c3                   	ret    
    20d4:	0f 1f 40 00          	nop    DWORD PTR [rax+0x0]
    20d8:	48 8b 48 08          	mov    rcx,QWORD PTR [rax+0x8]
    20dc:	48 3b 51 20          	cmp    rdx,QWORD PTR [rcx+0x20]
    20e0:	0f 8f 48 fe ff ff    	jg     1f2e <del__Io5JDKCS5u26IEWw0J53hQ+0x5e>
    20e6:	5b                   	pop    rbx
    20e7:	5d                   	pop    rbp
    20e8:	41 5c                	pop    r12
    20ea:	c3                   	ret    
    20eb:	0f 1f 44 00 00       	nop    DWORD PTR [rax+rax*1+0x0]

00000000000020f0 <freeHugeChunk__IPvsryqksLyNxxag3IQr2g_2>:
    20f0:	49 89 f0             	mov    r8,rsi
    20f3:	48 8b 76 08          	mov    rsi,QWORD PTR [rsi+0x8]
    20f7:	4c 89 c2             	mov    rdx,r8
    20fa:	48 c1 fa 15          	sar    rdx,0x15
    20fe:	0f b6 c2             	movzx  eax,dl
    2101:	48 8b 84 c7 a8 28 00 	mov    rax,QWORD PTR [rdi+rax*8+0x28a8]
    2108:	00 
    2109:	48 85 c0             	test   rax,rax
    210c:	75 0a                	jne    2118 <freeHugeChunk__IPvsryqksLyNxxag3IQr2g_2+0x28>
    210e:	eb 32                	jmp    2142 <freeHugeChunk__IPvsryqksLyNxxag3IQr2g_2+0x52>
    2110:	48 8b 00             	mov    rax,QWORD PTR [rax]
    2113:	48 85 c0             	test   rax,rax
    2116:	74 2a                	je     2142 <freeHugeChunk__IPvsryqksLyNxxag3IQr2g_2+0x52>
    2118:	48 3b 50 08          	cmp    rdx,QWORD PTR [rax+0x8]
    211c:	75 f2                	jne    2110 <freeHugeChunk__IPvsryqksLyNxxag3IQr2g_2+0x20>
    211e:	4c 89 c1             	mov    rcx,r8
    2121:	ba 01 00 00 00       	mov    edx,0x1
    2126:	48 c1 f9 0c          	sar    rcx,0xc
    212a:	81 e1 ff 01 00 00    	and    ecx,0x1ff
    2130:	49 89 c9             	mov    r9,rcx
    2133:	48 d3 e2             	shl    rdx,cl
    2136:	49 c1 f9 06          	sar    r9,0x6
    213a:	48 f7 d2             	not    rdx
    213d:	4a 21 54 c8 10       	and    QWORD PTR [rax+r9*8+0x10],rdx
    2142:	48 8b 87 80 28 00 00 	mov    rax,QWORD PTR [rdi+0x2880]
    2149:	48 39 87 88 28 00 00 	cmp    QWORD PTR [rdi+0x2888],rax
    2150:	48 89 c2             	mov    rdx,rax
    2153:	48 0f 4d 97 88 28 00 	cmovge rdx,QWORD PTR [rdi+0x2888]
    215a:	00 
    215b:	48 29 f0             	sub    rax,rsi
    215e:	48 89 87 80 28 00 00 	mov    QWORD PTR [rdi+0x2880],rax
    2165:	48 89 97 88 28 00 00 	mov    QWORD PTR [rdi+0x2888],rdx
    216c:	4c 89 c7             	mov    rdi,r8
    216f:	e9 6c e8 ff ff       	jmp    9e0 <munmap@plt>
    2174:	66 90                	xchg   ax,ax
    2176:	66 2e 0f 1f 84 00 00 	nop    WORD PTR cs:[rax+rax*1+0x0]
    217d:	00 00 00 

0000000000002180 <rawDealloc__K7uQ6aTKvW6OnOV8EMoNNQ>:
    2180:	49 89 f1             	mov    r9,rsi
    2183:	48 8b 97 98 28 00 00 	mov    rdx,QWORD PTR [rdi+0x2898]
    218a:	49 81 e1 00 f0 ff ff 	and    r9,0xfffffffffffff000
    2191:	49 8b 41 08          	mov    rax,QWORD PTR [r9+0x8]
    2195:	48 29 c2             	sub    rdx,rax
    2198:	48 3d c8 0f 00 00    	cmp    rax,0xfc8
    219e:	7f 38                	jg     21d8 <rawDealloc__K7uQ6aTKvW6OnOV8EMoNNQ+0x58>
    21a0:	48 89 97 98 28 00 00 	mov    QWORD PTR [rdi+0x2898],rdx
    21a7:	49 8b 51 20          	mov    rdx,QWORD PTR [r9+0x20]
    21ab:	48 89 16             	mov    QWORD PTR [rsi],rdx
    21ae:	49 8b 51 28          	mov    rdx,QWORD PTR [r9+0x28]
    21b2:	49 89 71 20          	mov    QWORD PTR [r9+0x20],rsi
    21b6:	48 39 c2             	cmp    rdx,rax
    21b9:	0f 8c b9 01 00 00    	jl     2378 <rawDealloc__K7uQ6aTKvW6OnOV8EMoNNQ+0x1f8>
    21bf:	48 01 c2             	add    rdx,rax
    21c2:	48 81 fa c8 0f 00 00 	cmp    rdx,0xfc8
    21c9:	49 89 51 28          	mov    QWORD PTR [r9+0x28],rdx
    21cd:	0f 84 95 02 00 00    	je     2468 <rawDealloc__K7uQ6aTKvW6OnOV8EMoNNQ+0x2e8>
    21d3:	f3 c3                	repz ret 
    21d5:	0f 1f 00             	nop    DWORD PTR [rax]
    21d8:	48 83 ec 08          	sub    rsp,0x8
    21dc:	48 83 bf d8 30 00 00 	cmp    QWORD PTR [rdi+0x30d8],0x0
    21e3:	00 
    21e4:	48 89 97 98 28 00 00 	mov    QWORD PTR [rdi+0x2898],rdx
    21eb:	4c 8d 97 d8 30 00 00 	lea    r10,[rdi+0x30d8]
    21f2:	0f 84 58 02 00 00    	je     2450 <rawDealloc__K7uQ6aTKvW6OnOV8EMoNNQ+0x2d0>
    21f8:	48 8b b7 a8 30 00 00 	mov    rsi,QWORD PTR [rdi+0x30a8]
    21ff:	4c 89 97 b0 30 00 00 	mov    QWORD PTR [rdi+0x30b0],r10
    2206:	49 89 f8             	mov    r8,rdi
    2209:	48 3b 36             	cmp    rsi,QWORD PTR [rsi]
    220c:	0f 84 46 01 00 00    	je     2358 <rawDealloc__K7uQ6aTKvW6OnOV8EMoNNQ+0x1d8>
    2212:	4d 8d 59 20          	lea    r11,[r9+0x20]
    2216:	48 89 b7 b8 30 00 00 	mov    QWORD PTR [rdi+0x30b8],rsi
    221d:	4c 3b 5e 10          	cmp    r11,QWORD PTR [rsi+0x10]
    2221:	0f 83 19 02 00 00    	jae    2440 <rawDealloc__K7uQ6aTKvW6OnOV8EMoNNQ+0x2c0>
    2227:	4c 89 da             	mov    rdx,r11
    222a:	4c 89 c7             	mov    rdi,r8
    222d:	e8 9e fc ff ff       	call   1ed0 <del__Io5JDKCS5u26IEWw0J53hQ>
    2232:	49 8b 80 a8 30 00 00 	mov    rax,QWORD PTR [r8+0x30a8]
    2239:	49 3b 80 b8 30 00 00 	cmp    rax,QWORD PTR [r8+0x30b8]
    2240:	0f 84 9a 02 00 00    	je     24e0 <rawDealloc__K7uQ6aTKvW6OnOV8EMoNNQ+0x360>
    2246:	48 8b 48 20          	mov    rcx,QWORD PTR [rax+0x20]
    224a:	48 8d 51 ff          	lea    rdx,[rcx-0x1]
    224e:	48 8b 08             	mov    rcx,QWORD PTR [rax]
    2251:	48 39 51 20          	cmp    QWORD PTR [rcx+0x20],rdx
    2255:	0f 8d 6d 02 00 00    	jge    24c8 <rawDealloc__K7uQ6aTKvW6OnOV8EMoNNQ+0x348>
    225b:	48 89 50 20          	mov    QWORD PTR [rax+0x20],rdx
    225f:	49 8b 80 a8 30 00 00 	mov    rax,QWORD PTR [r8+0x30a8]
    2266:	48 8b 48 08          	mov    rcx,QWORD PTR [rax+0x8]
    226a:	48 8b 50 20          	mov    rdx,QWORD PTR [rax+0x20]
    226e:	48 3b 51 20          	cmp    rdx,QWORD PTR [rcx+0x20]
    2272:	0f 8c 08 03 00 00    	jl     2580 <rawDealloc__K7uQ6aTKvW6OnOV8EMoNNQ+0x400>
    2278:	48 8b 08             	mov    rcx,QWORD PTR [rax]
    227b:	48 3b 51 20          	cmp    rdx,QWORD PTR [rcx+0x20]
    227f:	75 20                	jne    22a1 <rawDealloc__K7uQ6aTKvW6OnOV8EMoNNQ+0x121>
    2281:	49 89 88 a8 30 00 00 	mov    QWORD PTR [r8+0x30a8],rcx
    2288:	48 8b 51 08          	mov    rdx,QWORD PTR [rcx+0x8]
    228c:	48 89 10             	mov    QWORD PTR [rax],rdx
    228f:	49 8b 90 a8 30 00 00 	mov    rdx,QWORD PTR [r8+0x30a8]
    2296:	48 89 42 08          	mov    QWORD PTR [rdx+0x8],rax
    229a:	49 8b 80 a8 30 00 00 	mov    rax,QWORD PTR [r8+0x30a8]
    22a1:	48 8b 50 08          	mov    rdx,QWORD PTR [rax+0x8]
    22a5:	48 8b 0a             	mov    rcx,QWORD PTR [rdx]
    22a8:	48 8b 7a 20          	mov    rdi,QWORD PTR [rdx+0x20]
    22ac:	48 39 79 20          	cmp    QWORD PTR [rcx+0x20],rdi
    22b0:	75 1e                	jne    22d0 <rawDealloc__K7uQ6aTKvW6OnOV8EMoNNQ+0x150>
    22b2:	48 89 48 08          	mov    QWORD PTR [rax+0x8],rcx
    22b6:	48 8b 49 08          	mov    rcx,QWORD PTR [rcx+0x8]
    22ba:	48 89 0a             	mov    QWORD PTR [rdx],rcx
    22bd:	48 8b 40 08          	mov    rax,QWORD PTR [rax+0x8]
    22c1:	48 89 50 08          	mov    QWORD PTR [rax+0x8],rdx
    22c5:	49 8b 80 a8 30 00 00 	mov    rax,QWORD PTR [r8+0x30a8]
    22cc:	48 8b 50 08          	mov    rdx,QWORD PTR [rax+0x8]
    22d0:	48 8b 4a 08          	mov    rcx,QWORD PTR [rdx+0x8]
    22d4:	48 8b 39             	mov    rdi,QWORD PTR [rcx]
    22d7:	48 8b 71 20          	mov    rsi,QWORD PTR [rcx+0x20]
    22db:	48 39 77 20          	cmp    QWORD PTR [rdi+0x20],rsi
    22df:	75 26                	jne    2307 <rawDealloc__K7uQ6aTKvW6OnOV8EMoNNQ+0x187>
    22e1:	48 89 7a 08          	mov    QWORD PTR [rdx+0x8],rdi
    22e5:	48 8b 47 08          	mov    rax,QWORD PTR [rdi+0x8]
    22e9:	48 89 01             	mov    QWORD PTR [rcx],rax
    22ec:	48 8b 42 08          	mov    rax,QWORD PTR [rdx+0x8]
    22f0:	48 89 48 08          	mov    QWORD PTR [rax+0x8],rcx
    22f4:	49 8b 80 a8 30 00 00 	mov    rax,QWORD PTR [r8+0x30a8]
    22fb:	48 8b 50 08          	mov    rdx,QWORD PTR [rax+0x8]
    22ff:	48 8b 4a 08          	mov    rcx,QWORD PTR [rdx+0x8]
    2303:	48 8b 71 20          	mov    rsi,QWORD PTR [rcx+0x20]
    2307:	48 39 70 20          	cmp    QWORD PTR [rax+0x20],rsi
    230b:	75 33                	jne    2340 <rawDealloc__K7uQ6aTKvW6OnOV8EMoNNQ+0x1c0>
    230d:	49 89 90 a8 30 00 00 	mov    QWORD PTR [r8+0x30a8],rdx
    2314:	48 8b 12             	mov    rdx,QWORD PTR [rdx]
    2317:	48 89 50 08          	mov    QWORD PTR [rax+0x8],rdx
    231b:	49 8b 90 a8 30 00 00 	mov    rdx,QWORD PTR [r8+0x30a8]
    2322:	48 89 02             	mov    QWORD PTR [rdx],rax
    2325:	49 8b 80 a8 30 00 00 	mov    rax,QWORD PTR [r8+0x30a8]
    232c:	48 83 40 20 01       	add    QWORD PTR [rax+0x20],0x1
    2331:	49 8b 80 a8 30 00 00 	mov    rax,QWORD PTR [r8+0x30a8]
    2338:	48 8b 50 08          	mov    rdx,QWORD PTR [rax+0x8]
    233c:	48 8b 4a 08          	mov    rcx,QWORD PTR [rdx+0x8]
    2340:	48 8b 71 08          	mov    rsi,QWORD PTR [rcx+0x8]
    2344:	48 8b 7a 20          	mov    rdi,QWORD PTR [rdx+0x20]
    2348:	48 39 7e 20          	cmp    QWORD PTR [rsi+0x20],rdi
    234c:	0f 84 46 02 00 00    	je     2598 <rawDealloc__K7uQ6aTKvW6OnOV8EMoNNQ+0x418>
    2352:	66 0f 1f 44 00 00    	nop    WORD PTR [rax+rax*1+0x0]
    2358:	49 8b 71 08          	mov    rsi,QWORD PTR [r9+0x8]
    235c:	48 81 fe 00 00 00 3f 	cmp    rsi,0x3f000000
    2363:	7f 4b                	jg     23b0 <rawDealloc__K7uQ6aTKvW6OnOV8EMoNNQ+0x230>
    2365:	4c 89 ce             	mov    rsi,r9
    2368:	4c 89 c7             	mov    rdi,r8
    236b:	48 83 c4 08          	add    rsp,0x8
    236f:	e9 0c f4 ff ff       	jmp    1780 <freeBigChunk__IPvsryqksLyNxxag3IQr2g>
    2374:	0f 1f 40 00          	nop    DWORD PTR [rax+0x0]
    2378:	4c 8d 40 07          	lea    r8,[rax+0x7]
    237c:	48 85 c0             	test   rax,rax
    237f:	4c 0f 49 c0          	cmovns r8,rax
    2383:	49 83 e0 f8          	and    r8,0xfffffffffffffff8
    2387:	4c 01 c7             	add    rdi,r8
    238a:	48 8b 57 10          	mov    rdx,QWORD PTR [rdi+0x10]
    238e:	49 89 51 10          	mov    QWORD PTR [r9+0x10],rdx
    2392:	48 8b 57 10          	mov    rdx,QWORD PTR [rdi+0x10]
    2396:	48 85 d2             	test   rdx,rdx
    2399:	74 04                	je     239f <rawDealloc__K7uQ6aTKvW6OnOV8EMoNNQ+0x21f>
    239b:	4c 89 4a 18          	mov    QWORD PTR [rdx+0x18],r9
    239f:	4c 89 4f 10          	mov    QWORD PTR [rdi+0x10],r9
    23a3:	49 01 41 28          	add    QWORD PTR [r9+0x28],rax
    23a7:	c3                   	ret    
    23a8:	0f 1f 84 00 00 00 00 	nop    DWORD PTR [rax+rax*1+0x0]
    23af:	00 
    23b0:	4c 89 ca             	mov    rdx,r9
    23b3:	48 c1 fa 15          	sar    rdx,0x15
    23b7:	0f b6 c2             	movzx  eax,dl
    23ba:	49 8b 84 c0 a8 28 00 	mov    rax,QWORD PTR [r8+rax*8+0x28a8]
    23c1:	00 
    23c2:	48 85 c0             	test   rax,rax
    23c5:	74 2d                	je     23f4 <rawDealloc__K7uQ6aTKvW6OnOV8EMoNNQ+0x274>
    23c7:	48 39 50 08          	cmp    QWORD PTR [rax+0x8],rdx
    23cb:	75 69                	jne    2436 <rawDealloc__K7uQ6aTKvW6OnOV8EMoNNQ+0x2b6>
    23cd:	0f 1f 00             	nop    DWORD PTR [rax]
    23d0:	4c 89 c9             	mov    rcx,r9
    23d3:	ba 01 00 00 00       	mov    edx,0x1
    23d8:	48 c1 f9 0c          	sar    rcx,0xc
    23dc:	81 e1 ff 01 00 00    	and    ecx,0x1ff
    23e2:	48 89 cf             	mov    rdi,rcx
    23e5:	48 d3 e2             	shl    rdx,cl
    23e8:	48 c1 ff 06          	sar    rdi,0x6
    23ec:	48 f7 d2             	not    rdx
    23ef:	48 21 54 f8 10       	and    QWORD PTR [rax+rdi*8+0x10],rdx
    23f4:	49 8b 80 80 28 00 00 	mov    rax,QWORD PTR [r8+0x2880]
    23fb:	49 39 80 88 28 00 00 	cmp    QWORD PTR [r8+0x2888],rax
    2402:	4c 89 cf             	mov    rdi,r9
    2405:	48 89 c2             	mov    rdx,rax
    2408:	49 0f 4d 90 88 28 00 	cmovge rdx,QWORD PTR [r8+0x2888]
    240f:	00 
    2410:	48 29 f0             	sub    rax,rsi
    2413:	49 89 80 80 28 00 00 	mov    QWORD PTR [r8+0x2880],rax
    241a:	49 89 90 88 28 00 00 	mov    QWORD PTR [r8+0x2888],rdx
    2421:	48 83 c4 08          	add    rsp,0x8
    2425:	e9 b6 e5 ff ff       	jmp    9e0 <munmap@plt>
    242a:	66 0f 1f 44 00 00    	nop    WORD PTR [rax+rax*1+0x0]
    2430:	48 3b 50 08          	cmp    rdx,QWORD PTR [rax+0x8]
    2434:	74 9a                	je     23d0 <rawDealloc__K7uQ6aTKvW6OnOV8EMoNNQ+0x250>
    2436:	48 8b 00             	mov    rax,QWORD PTR [rax]
    2439:	48 85 c0             	test   rax,rax
    243c:	75 f2                	jne    2430 <rawDealloc__K7uQ6aTKvW6OnOV8EMoNNQ+0x2b0>
    243e:	eb b4                	jmp    23f4 <rawDealloc__K7uQ6aTKvW6OnOV8EMoNNQ+0x274>
    2440:	48 89 b7 b0 30 00 00 	mov    QWORD PTR [rdi+0x30b0],rsi
    2447:	48 83 c6 08          	add    rsi,0x8
    244b:	e9 d7 fd ff ff       	jmp    2227 <rawDealloc__K7uQ6aTKvW6OnOV8EMoNNQ+0xa7>
    2450:	4c 89 97 d8 30 00 00 	mov    QWORD PTR [rdi+0x30d8],r10
    2457:	4c 89 97 e0 30 00 00 	mov    QWORD PTR [rdi+0x30e0],r10
    245e:	e9 95 fd ff ff       	jmp    21f8 <rawDealloc__K7uQ6aTKvW6OnOV8EMoNNQ+0x78>
    2463:	0f 1f 44 00 00       	nop    DWORD PTR [rax+rax*1+0x0]
    2468:	48 8d 50 07          	lea    rdx,[rax+0x7]
    246c:	48 85 c0             	test   rax,rax
    246f:	48 0f 48 c2          	cmovs  rax,rdx
    2473:	49 8b 51 10          	mov    rdx,QWORD PTR [r9+0x10]
    2477:	48 83 e0 f8          	and    rax,0xfffffffffffffff8
    247b:	48 01 f8             	add    rax,rdi
    247e:	4c 3b 48 10          	cmp    r9,QWORD PTR [rax+0x10]
    2482:	0f 84 38 01 00 00    	je     25c0 <rawDealloc__K7uQ6aTKvW6OnOV8EMoNNQ+0x440>
    2488:	49 8b 41 18          	mov    rax,QWORD PTR [r9+0x18]
    248c:	48 89 50 10          	mov    QWORD PTR [rax+0x10],rdx
    2490:	49 8b 41 10          	mov    rax,QWORD PTR [r9+0x10]
    2494:	48 85 c0             	test   rax,rax
    2497:	74 08                	je     24a1 <rawDealloc__K7uQ6aTKvW6OnOV8EMoNNQ+0x321>
    2499:	49 8b 51 18          	mov    rdx,QWORD PTR [r9+0x18]
    249d:	48 89 50 18          	mov    QWORD PTR [rax+0x18],rdx
    24a1:	49 c7 41 10 00 00 00 	mov    QWORD PTR [r9+0x10],0x0
    24a8:	00 
    24a9:	49 c7 41 18 00 00 00 	mov    QWORD PTR [r9+0x18],0x0
    24b0:	00 
    24b1:	4c 89 ce             	mov    rsi,r9
    24b4:	49 c7 41 08 00 10 00 	mov    QWORD PTR [r9+0x8],0x1000
    24bb:	00 
    24bc:	e9 bf f2 ff ff       	jmp    1780 <freeBigChunk__IPvsryqksLyNxxag3IQr2g>
    24c1:	0f 1f 80 00 00 00 00 	nop    DWORD PTR [rax+0x0]
    24c8:	48 8b 48 08          	mov    rcx,QWORD PTR [rax+0x8]
    24cc:	48 3b 51 20          	cmp    rdx,QWORD PTR [rcx+0x20]
    24d0:	0f 8e 82 fe ff ff    	jle    2358 <rawDealloc__K7uQ6aTKvW6OnOV8EMoNNQ+0x1d8>
    24d6:	e9 80 fd ff ff       	jmp    225b <rawDealloc__K7uQ6aTKvW6OnOV8EMoNNQ+0xdb>
    24db:	0f 1f 44 00 00       	nop    DWORD PTR [rax+rax*1+0x0]
    24e0:	49 8b 90 b0 30 00 00 	mov    rdx,QWORD PTR [r8+0x30b0]
    24e7:	48 3b 12             	cmp    rdx,QWORD PTR [rdx]
    24ea:	0f 84 56 fd ff ff    	je     2246 <rawDealloc__K7uQ6aTKvW6OnOV8EMoNNQ+0xc6>
    24f0:	4c 3b 5a 10          	cmp    r11,QWORD PTR [rdx+0x10]
    24f4:	0f 85 4c fd ff ff    	jne    2246 <rawDealloc__K7uQ6aTKvW6OnOV8EMoNNQ+0xc6>
    24fa:	48 8b 40 10          	mov    rax,QWORD PTR [rax+0x10]
    24fe:	48 89 42 10          	mov    QWORD PTR [rdx+0x10],rax
    2502:	49 8b 90 a8 30 00 00 	mov    rdx,QWORD PTR [r8+0x30a8]
    2509:	49 8b 80 b0 30 00 00 	mov    rax,QWORD PTR [r8+0x30b0]
    2510:	48 8b 52 18          	mov    rdx,QWORD PTR [rdx+0x18]
    2514:	48 89 50 18          	mov    QWORD PTR [rax+0x18],rdx
    2518:	49 83 b8 d8 30 00 00 	cmp    QWORD PTR [r8+0x30d8],0x0
    251f:	00 
    2520:	75 0e                	jne    2530 <rawDealloc__K7uQ6aTKvW6OnOV8EMoNNQ+0x3b0>
    2522:	4d 89 90 d8 30 00 00 	mov    QWORD PTR [r8+0x30d8],r10
    2529:	4d 89 90 e0 30 00 00 	mov    QWORD PTR [r8+0x30e0],r10
    2530:	49 8b 80 a8 30 00 00 	mov    rax,QWORD PTR [r8+0x30a8]
    2537:	4d 89 90 b0 30 00 00 	mov    QWORD PTR [r8+0x30b0],r10
    253e:	49 8b 90 c0 30 00 00 	mov    rdx,QWORD PTR [r8+0x30c0]
    2545:	48 8b 40 08          	mov    rax,QWORD PTR [rax+0x8]
    2549:	49 89 80 a8 30 00 00 	mov    QWORD PTR [r8+0x30a8],rax
    2550:	49 8b 80 b8 30 00 00 	mov    rax,QWORD PTR [r8+0x30b8]
    2557:	48 89 10             	mov    QWORD PTR [rax],rdx
    255a:	49 89 80 c0 30 00 00 	mov    QWORD PTR [r8+0x30c0],rax
    2561:	49 8b 71 08          	mov    rsi,QWORD PTR [r9+0x8]
    2565:	48 81 fe 00 00 00 3f 	cmp    rsi,0x3f000000
    256c:	0f 8e f3 fd ff ff    	jle    2365 <rawDealloc__K7uQ6aTKvW6OnOV8EMoNNQ+0x1e5>
    2572:	e9 39 fe ff ff       	jmp    23b0 <rawDealloc__K7uQ6aTKvW6OnOV8EMoNNQ+0x230>
    2577:	66 0f 1f 84 00 00 00 	nop    WORD PTR [rax+rax*1+0x0]
    257e:	00 00 
    2580:	48 89 51 20          	mov    QWORD PTR [rcx+0x20],rdx
    2584:	49 8b 80 a8 30 00 00 	mov    rax,QWORD PTR [r8+0x30a8]
    258b:	48 8b 50 20          	mov    rdx,QWORD PTR [rax+0x20]
    258f:	e9 e4 fc ff ff       	jmp    2278 <rawDealloc__K7uQ6aTKvW6OnOV8EMoNNQ+0xf8>
    2594:	0f 1f 40 00          	nop    DWORD PTR [rax+0x0]
    2598:	48 89 48 08          	mov    QWORD PTR [rax+0x8],rcx
    259c:	48 8b 09             	mov    rcx,QWORD PTR [rcx]
    259f:	48 89 4a 08          	mov    QWORD PTR [rdx+0x8],rcx
    25a3:	48 8b 48 08          	mov    rcx,QWORD PTR [rax+0x8]
    25a7:	48 89 11             	mov    QWORD PTR [rcx],rdx
    25aa:	48 8b 40 08          	mov    rax,QWORD PTR [rax+0x8]
    25ae:	48 83 40 20 01       	add    QWORD PTR [rax+0x20],0x1
    25b3:	e9 a0 fd ff ff       	jmp    2358 <rawDealloc__K7uQ6aTKvW6OnOV8EMoNNQ+0x1d8>
    25b8:	0f 1f 84 00 00 00 00 	nop    DWORD PTR [rax+rax*1+0x0]
    25bf:	00 
    25c0:	48 85 d2             	test   rdx,rdx
    25c3:	48 89 50 10          	mov    QWORD PTR [rax+0x10],rdx
    25c7:	0f 84 d4 fe ff ff    	je     24a1 <rawDealloc__K7uQ6aTKvW6OnOV8EMoNNQ+0x321>
    25cd:	48 c7 42 18 00 00 00 	mov    QWORD PTR [rdx+0x18],0x0
    25d4:	00 
    25d5:	e9 c7 fe ff ff       	jmp    24a1 <rawDealloc__K7uQ6aTKvW6OnOV8EMoNNQ+0x321>
    25da:	66 0f 1f 44 00 00    	nop    WORD PTR [rax+rax*1+0x0]

00000000000025e0 <dealloc__Jg1OaY9ahkT3MBopLAXRSGw>:
    25e0:	49 89 f1             	mov    r9,rsi
    25e3:	48 8b 97 98 28 00 00 	mov    rdx,QWORD PTR [rdi+0x2898]
    25ea:	49 81 e1 00 f0 ff ff 	and    r9,0xfffffffffffff000
    25f1:	49 8b 41 08          	mov    rax,QWORD PTR [r9+0x8]
    25f5:	48 29 c2             	sub    rdx,rax
    25f8:	48 3d c8 0f 00 00    	cmp    rax,0xfc8
    25fe:	7f 38                	jg     2638 <dealloc__Jg1OaY9ahkT3MBopLAXRSGw+0x58>
    2600:	48 89 97 98 28 00 00 	mov    QWORD PTR [rdi+0x2898],rdx
    2607:	49 8b 51 20          	mov    rdx,QWORD PTR [r9+0x20]
    260b:	48 89 16             	mov    QWORD PTR [rsi],rdx
    260e:	49 8b 51 28          	mov    rdx,QWORD PTR [r9+0x28]
    2612:	49 89 71 20          	mov    QWORD PTR [r9+0x20],rsi
    2616:	48 39 d0             	cmp    rax,rdx
    2619:	0f 8f b9 01 00 00    	jg     27d8 <dealloc__Jg1OaY9ahkT3MBopLAXRSGw+0x1f8>
    261f:	48 01 c2             	add    rdx,rax
    2622:	48 81 fa c8 0f 00 00 	cmp    rdx,0xfc8
    2629:	49 89 51 28          	mov    QWORD PTR [r9+0x28],rdx
    262d:	0f 84 95 02 00 00    	je     28c8 <dealloc__Jg1OaY9ahkT3MBopLAXRSGw+0x2e8>
    2633:	f3 c3                	repz ret 
    2635:	0f 1f 00             	nop    DWORD PTR [rax]
    2638:	48 83 ec 08          	sub    rsp,0x8
    263c:	48 83 bf d8 30 00 00 	cmp    QWORD PTR [rdi+0x30d8],0x0
    2643:	00 
    2644:	48 89 97 98 28 00 00 	mov    QWORD PTR [rdi+0x2898],rdx
    264b:	4c 8d 97 d8 30 00 00 	lea    r10,[rdi+0x30d8]
    2652:	0f 84 58 02 00 00    	je     28b0 <dealloc__Jg1OaY9ahkT3MBopLAXRSGw+0x2d0>
    2658:	48 8b b7 a8 30 00 00 	mov    rsi,QWORD PTR [rdi+0x30a8]
    265f:	4c 89 97 b0 30 00 00 	mov    QWORD PTR [rdi+0x30b0],r10
    2666:	49 89 f8             	mov    r8,rdi
    2669:	48 3b 36             	cmp    rsi,QWORD PTR [rsi]
    266c:	0f 84 46 01 00 00    	je     27b8 <dealloc__Jg1OaY9ahkT3MBopLAXRSGw+0x1d8>
    2672:	4d 8d 59 20          	lea    r11,[r9+0x20]
    2676:	48 89 b7 b8 30 00 00 	mov    QWORD PTR [rdi+0x30b8],rsi
    267d:	4c 3b 5e 10          	cmp    r11,QWORD PTR [rsi+0x10]
    2681:	0f 83 19 02 00 00    	jae    28a0 <dealloc__Jg1OaY9ahkT3MBopLAXRSGw+0x2c0>
    2687:	4c 89 da             	mov    rdx,r11
    268a:	4c 89 c7             	mov    rdi,r8
    268d:	e8 3e f8 ff ff       	call   1ed0 <del__Io5JDKCS5u26IEWw0J53hQ>
    2692:	49 8b 80 a8 30 00 00 	mov    rax,QWORD PTR [r8+0x30a8]
    2699:	49 3b 80 b8 30 00 00 	cmp    rax,QWORD PTR [r8+0x30b8]
    26a0:	0f 84 9a 02 00 00    	je     2940 <dealloc__Jg1OaY9ahkT3MBopLAXRSGw+0x360>
    26a6:	48 8b 48 20          	mov    rcx,QWORD PTR [rax+0x20]
    26aa:	48 8d 51 ff          	lea    rdx,[rcx-0x1]
    26ae:	48 8b 08             	mov    rcx,QWORD PTR [rax]
    26b1:	48 39 51 20          	cmp    QWORD PTR [rcx+0x20],rdx
    26b5:	0f 8d 6d 02 00 00    	jge    2928 <dealloc__Jg1OaY9ahkT3MBopLAXRSGw+0x348>
    26bb:	48 89 50 20          	mov    QWORD PTR [rax+0x20],rdx
    26bf:	49 8b 80 a8 30 00 00 	mov    rax,QWORD PTR [r8+0x30a8]
    26c6:	48 8b 48 08          	mov    rcx,QWORD PTR [rax+0x8]
    26ca:	48 8b 50 20          	mov    rdx,QWORD PTR [rax+0x20]
    26ce:	48 3b 51 20          	cmp    rdx,QWORD PTR [rcx+0x20]
    26d2:	0f 8c 08 03 00 00    	jl     29e0 <dealloc__Jg1OaY9ahkT3MBopLAXRSGw+0x400>
    26d8:	48 8b 08             	mov    rcx,QWORD PTR [rax]
    26db:	48 39 51 20          	cmp    QWORD PTR [rcx+0x20],rdx
    26df:	75 20                	jne    2701 <dealloc__Jg1OaY9ahkT3MBopLAXRSGw+0x121>
    26e1:	49 89 88 a8 30 00 00 	mov    QWORD PTR [r8+0x30a8],rcx
    26e8:	48 8b 51 08          	mov    rdx,QWORD PTR [rcx+0x8]
    26ec:	48 89 10             	mov    QWORD PTR [rax],rdx
    26ef:	49 8b 90 a8 30 00 00 	mov    rdx,QWORD PTR [r8+0x30a8]
    26f6:	48 89 42 08          	mov    QWORD PTR [rdx+0x8],rax
    26fa:	49 8b 80 a8 30 00 00 	mov    rax,QWORD PTR [r8+0x30a8]
    2701:	48 8b 50 08          	mov    rdx,QWORD PTR [rax+0x8]
    2705:	48 8b 0a             	mov    rcx,QWORD PTR [rdx]
    2708:	48 8b 7a 20          	mov    rdi,QWORD PTR [rdx+0x20]
    270c:	48 39 79 20          	cmp    QWORD PTR [rcx+0x20],rdi
    2710:	75 1e                	jne    2730 <dealloc__Jg1OaY9ahkT3MBopLAXRSGw+0x150>
    2712:	48 89 48 08          	mov    QWORD PTR [rax+0x8],rcx
    2716:	48 8b 49 08          	mov    rcx,QWORD PTR [rcx+0x8]
    271a:	48 89 0a             	mov    QWORD PTR [rdx],rcx
    271d:	48 8b 40 08          	mov    rax,QWORD PTR [rax+0x8]
    2721:	48 89 50 08          	mov    QWORD PTR [rax+0x8],rdx
    2725:	49 8b 80 a8 30 00 00 	mov    rax,QWORD PTR [r8+0x30a8]
    272c:	48 8b 50 08          	mov    rdx,QWORD PTR [rax+0x8]
    2730:	48 8b 4a 08          	mov    rcx,QWORD PTR [rdx+0x8]
    2734:	48 8b 39             	mov    rdi,QWORD PTR [rcx]
    2737:	48 8b 71 20          	mov    rsi,QWORD PTR [rcx+0x20]
    273b:	48 39 77 20          	cmp    QWORD PTR [rdi+0x20],rsi
    273f:	75 26                	jne    2767 <dealloc__Jg1OaY9ahkT3MBopLAXRSGw+0x187>
    2741:	48 89 7a 08          	mov    QWORD PTR [rdx+0x8],rdi
    2745:	48 8b 47 08          	mov    rax,QWORD PTR [rdi+0x8]
    2749:	48 89 01             	mov    QWORD PTR [rcx],rax
    274c:	48 8b 42 08          	mov    rax,QWORD PTR [rdx+0x8]
    2750:	48 89 48 08          	mov    QWORD PTR [rax+0x8],rcx
    2754:	49 8b 80 a8 30 00 00 	mov    rax,QWORD PTR [r8+0x30a8]
    275b:	48 8b 50 08          	mov    rdx,QWORD PTR [rax+0x8]
    275f:	48 8b 4a 08          	mov    rcx,QWORD PTR [rdx+0x8]
    2763:	48 8b 71 20          	mov    rsi,QWORD PTR [rcx+0x20]
    2767:	48 39 70 20          	cmp    QWORD PTR [rax+0x20],rsi
    276b:	75 33                	jne    27a0 <dealloc__Jg1OaY9ahkT3MBopLAXRSGw+0x1c0>
    276d:	49 89 90 a8 30 00 00 	mov    QWORD PTR [r8+0x30a8],rdx
    2774:	48 8b 12             	mov    rdx,QWORD PTR [rdx]
    2777:	48 89 50 08          	mov    QWORD PTR [rax+0x8],rdx
    277b:	49 8b 90 a8 30 00 00 	mov    rdx,QWORD PTR [r8+0x30a8]
    2782:	48 89 02             	mov    QWORD PTR [rdx],rax
    2785:	49 8b 80 a8 30 00 00 	mov    rax,QWORD PTR [r8+0x30a8]
    278c:	48 83 40 20 01       	add    QWORD PTR [rax+0x20],0x1
    2791:	49 8b 80 a8 30 00 00 	mov    rax,QWORD PTR [r8+0x30a8]
    2798:	48 8b 50 08          	mov    rdx,QWORD PTR [rax+0x8]
    279c:	48 8b 4a 08          	mov    rcx,QWORD PTR [rdx+0x8]
    27a0:	48 8b 71 08          	mov    rsi,QWORD PTR [rcx+0x8]
    27a4:	48 8b 7a 20          	mov    rdi,QWORD PTR [rdx+0x20]
    27a8:	48 39 7e 20          	cmp    QWORD PTR [rsi+0x20],rdi
    27ac:	0f 84 46 02 00 00    	je     29f8 <dealloc__Jg1OaY9ahkT3MBopLAXRSGw+0x418>
    27b2:	66 0f 1f 44 00 00    	nop    WORD PTR [rax+rax*1+0x0]
    27b8:	49 8b 71 08          	mov    rsi,QWORD PTR [r9+0x8]
    27bc:	48 81 fe 00 00 00 3f 	cmp    rsi,0x3f000000
    27c3:	7f 4b                	jg     2810 <dealloc__Jg1OaY9ahkT3MBopLAXRSGw+0x230>
    27c5:	4c 89 ce             	mov    rsi,r9
    27c8:	4c 89 c7             	mov    rdi,r8
    27cb:	48 83 c4 08          	add    rsp,0x8
    27cf:	e9 ac ef ff ff       	jmp    1780 <freeBigChunk__IPvsryqksLyNxxag3IQr2g>
    27d4:	0f 1f 40 00          	nop    DWORD PTR [rax+0x0]
    27d8:	4c 8d 40 07          	lea    r8,[rax+0x7]
    27dc:	48 85 c0             	test   rax,rax
    27df:	4c 0f 49 c0          	cmovns r8,rax
    27e3:	49 83 e0 f8          	and    r8,0xfffffffffffffff8
    27e7:	4c 01 c7             	add    rdi,r8
    27ea:	48 8b 57 10          	mov    rdx,QWORD PTR [rdi+0x10]
    27ee:	49 89 51 10          	mov    QWORD PTR [r9+0x10],rdx
    27f2:	48 8b 57 10          	mov    rdx,QWORD PTR [rdi+0x10]
    27f6:	48 85 d2             	test   rdx,rdx
    27f9:	74 04                	je     27ff <dealloc__Jg1OaY9ahkT3MBopLAXRSGw+0x21f>
    27fb:	4c 89 4a 18          	mov    QWORD PTR [rdx+0x18],r9
    27ff:	4c 89 4f 10          	mov    QWORD PTR [rdi+0x10],r9
    2803:	49 01 41 28          	add    QWORD PTR [r9+0x28],rax
    2807:	c3                   	ret    
    2808:	0f 1f 84 00 00 00 00 	nop    DWORD PTR [rax+rax*1+0x0]
    280f:	00 
    2810:	4c 89 ca             	mov    rdx,r9
    2813:	48 c1 fa 15          	sar    rdx,0x15
    2817:	0f b6 c2             	movzx  eax,dl
    281a:	49 8b 84 c0 a8 28 00 	mov    rax,QWORD PTR [r8+rax*8+0x28a8]
    2821:	00 
    2822:	48 85 c0             	test   rax,rax
    2825:	74 2d                	je     2854 <dealloc__Jg1OaY9ahkT3MBopLAXRSGw+0x274>
    2827:	48 39 50 08          	cmp    QWORD PTR [rax+0x8],rdx
    282b:	75 69                	jne    2896 <dealloc__Jg1OaY9ahkT3MBopLAXRSGw+0x2b6>
    282d:	0f 1f 00             	nop    DWORD PTR [rax]
    2830:	4c 89 c9             	mov    rcx,r9
    2833:	ba 01 00 00 00       	mov    edx,0x1
    2838:	48 c1 f9 0c          	sar    rcx,0xc
    283c:	81 e1 ff 01 00 00    	and    ecx,0x1ff
    2842:	48 89 cf             	mov    rdi,rcx
    2845:	48 d3 e2             	shl    rdx,cl
    2848:	48 c1 ff 06          	sar    rdi,0x6
    284c:	48 f7 d2             	not    rdx
    284f:	48 21 54 f8 10       	and    QWORD PTR [rax+rdi*8+0x10],rdx
    2854:	49 8b 80 80 28 00 00 	mov    rax,QWORD PTR [r8+0x2880]
    285b:	49 39 80 88 28 00 00 	cmp    QWORD PTR [r8+0x2888],rax
    2862:	4c 89 cf             	mov    rdi,r9
    2865:	48 89 c2             	mov    rdx,rax
    2868:	49 0f 4d 90 88 28 00 	cmovge rdx,QWORD PTR [r8+0x2888]
    286f:	00 
    2870:	48 29 f0             	sub    rax,rsi
    2873:	49 89 80 80 28 00 00 	mov    QWORD PTR [r8+0x2880],rax
    287a:	49 89 90 88 28 00 00 	mov    QWORD PTR [r8+0x2888],rdx
    2881:	48 83 c4 08          	add    rsp,0x8
    2885:	e9 56 e1 ff ff       	jmp    9e0 <munmap@plt>
    288a:	66 0f 1f 44 00 00    	nop    WORD PTR [rax+rax*1+0x0]
    2890:	48 3b 50 08          	cmp    rdx,QWORD PTR [rax+0x8]
    2894:	74 9a                	je     2830 <dealloc__Jg1OaY9ahkT3MBopLAXRSGw+0x250>
    2896:	48 8b 00             	mov    rax,QWORD PTR [rax]
    2899:	48 85 c0             	test   rax,rax
    289c:	75 f2                	jne    2890 <dealloc__Jg1OaY9ahkT3MBopLAXRSGw+0x2b0>
    289e:	eb b4                	jmp    2854 <dealloc__Jg1OaY9ahkT3MBopLAXRSGw+0x274>
    28a0:	48 89 b7 b0 30 00 00 	mov    QWORD PTR [rdi+0x30b0],rsi
    28a7:	48 83 c6 08          	add    rsi,0x8
    28ab:	e9 d7 fd ff ff       	jmp    2687 <dealloc__Jg1OaY9ahkT3MBopLAXRSGw+0xa7>
    28b0:	4c 89 97 d8 30 00 00 	mov    QWORD PTR [rdi+0x30d8],r10
    28b7:	4c 89 97 e0 30 00 00 	mov    QWORD PTR [rdi+0x30e0],r10
    28be:	e9 95 fd ff ff       	jmp    2658 <dealloc__Jg1OaY9ahkT3MBopLAXRSGw+0x78>
    28c3:	0f 1f 44 00 00       	nop    DWORD PTR [rax+rax*1+0x0]
    28c8:	48 8d 50 07          	lea    rdx,[rax+0x7]
    28cc:	48 85 c0             	test   rax,rax
    28cf:	48 0f 48 c2          	cmovs  rax,rdx
    28d3:	49 8b 51 10          	mov    rdx,QWORD PTR [r9+0x10]
    28d7:	48 83 e0 f8          	and    rax,0xfffffffffffffff8
    28db:	48 01 f8             	add    rax,rdi
    28de:	4c 3b 48 10          	cmp    r9,QWORD PTR [rax+0x10]
    28e2:	0f 84 38 01 00 00    	je     2a20 <dealloc__Jg1OaY9ahkT3MBopLAXRSGw+0x440>
    28e8:	49 8b 41 18          	mov    rax,QWORD PTR [r9+0x18]
    28ec:	48 89 50 10          	mov    QWORD PTR [rax+0x10],rdx
    28f0:	49 8b 41 10          	mov    rax,QWORD PTR [r9+0x10]
    28f4:	48 85 c0             	test   rax,rax
    28f7:	74 08                	je     2901 <dealloc__Jg1OaY9ahkT3MBopLAXRSGw+0x321>
    28f9:	49 8b 51 18          	mov    rdx,QWORD PTR [r9+0x18]
    28fd:	48 89 50 18          	mov    QWORD PTR [rax+0x18],rdx
    2901:	49 c7 41 10 00 00 00 	mov    QWORD PTR [r9+0x10],0x0
    2908:	00 
    2909:	49 c7 41 18 00 00 00 	mov    QWORD PTR [r9+0x18],0x0
    2910:	00 
    2911:	4c 89 ce             	mov    rsi,r9
    2914:	49 c7 41 08 00 10 00 	mov    QWORD PTR [r9+0x8],0x1000
    291b:	00 
    291c:	e9 5f ee ff ff       	jmp    1780 <freeBigChunk__IPvsryqksLyNxxag3IQr2g>
    2921:	0f 1f 80 00 00 00 00 	nop    DWORD PTR [rax+0x0]
    2928:	48 8b 48 08          	mov    rcx,QWORD PTR [rax+0x8]
    292c:	48 3b 51 20          	cmp    rdx,QWORD PTR [rcx+0x20]
    2930:	0f 8e 82 fe ff ff    	jle    27b8 <dealloc__Jg1OaY9ahkT3MBopLAXRSGw+0x1d8>
    2936:	e9 80 fd ff ff       	jmp    26bb <dealloc__Jg1OaY9ahkT3MBopLAXRSGw+0xdb>
    293b:	0f 1f 44 00 00       	nop    DWORD PTR [rax+rax*1+0x0]
    2940:	49 8b 90 b0 30 00 00 	mov    rdx,QWORD PTR [r8+0x30b0]
    2947:	48 3b 12             	cmp    rdx,QWORD PTR [rdx]
    294a:	0f 84 56 fd ff ff    	je     26a6 <dealloc__Jg1OaY9ahkT3MBopLAXRSGw+0xc6>
    2950:	4c 3b 5a 10          	cmp    r11,QWORD PTR [rdx+0x10]
    2954:	0f 85 4c fd ff ff    	jne    26a6 <dealloc__Jg1OaY9ahkT3MBopLAXRSGw+0xc6>
    295a:	48 8b 40 10          	mov    rax,QWORD PTR [rax+0x10]
    295e:	48 89 42 10          	mov    QWORD PTR [rdx+0x10],rax
    2962:	49 8b 90 a8 30 00 00 	mov    rdx,QWORD PTR [r8+0x30a8]
    2969:	49 8b 80 b0 30 00 00 	mov    rax,QWORD PTR [r8+0x30b0]
    2970:	48 8b 52 18          	mov    rdx,QWORD PTR [rdx+0x18]
    2974:	48 89 50 18          	mov    QWORD PTR [rax+0x18],rdx
    2978:	49 83 b8 d8 30 00 00 	cmp    QWORD PTR [r8+0x30d8],0x0
    297f:	00 
    2980:	75 0e                	jne    2990 <dealloc__Jg1OaY9ahkT3MBopLAXRSGw+0x3b0>
    2982:	4d 89 90 d8 30 00 00 	mov    QWORD PTR [r8+0x30d8],r10
    2989:	4d 89 90 e0 30 00 00 	mov    QWORD PTR [r8+0x30e0],r10
    2990:	49 8b 80 a8 30 00 00 	mov    rax,QWORD PTR [r8+0x30a8]
    2997:	4d 89 90 b0 30 00 00 	mov    QWORD PTR [r8+0x30b0],r10
    299e:	49 8b 90 c0 30 00 00 	mov    rdx,QWORD PTR [r8+0x30c0]
    29a5:	48 8b 40 08          	mov    rax,QWORD PTR [rax+0x8]
    29a9:	49 89 80 a8 30 00 00 	mov    QWORD PTR [r8+0x30a8],rax
    29b0:	49 8b 80 b8 30 00 00 	mov    rax,QWORD PTR [r8+0x30b8]
    29b7:	48 89 10             	mov    QWORD PTR [rax],rdx
    29ba:	49 89 80 c0 30 00 00 	mov    QWORD PTR [r8+0x30c0],rax
    29c1:	49 8b 71 08          	mov    rsi,QWORD PTR [r9+0x8]
    29c5:	48 81 fe 00 00 00 3f 	cmp    rsi,0x3f000000
    29cc:	0f 8e f3 fd ff ff    	jle    27c5 <dealloc__Jg1OaY9ahkT3MBopLAXRSGw+0x1e5>
    29d2:	e9 39 fe ff ff       	jmp    2810 <dealloc__Jg1OaY9ahkT3MBopLAXRSGw+0x230>
    29d7:	66 0f 1f 84 00 00 00 	nop    WORD PTR [rax+rax*1+0x0]
    29de:	00 00 
    29e0:	48 89 51 20          	mov    QWORD PTR [rcx+0x20],rdx
    29e4:	49 8b 80 a8 30 00 00 	mov    rax,QWORD PTR [r8+0x30a8]
    29eb:	48 8b 50 20          	mov    rdx,QWORD PTR [rax+0x20]
    29ef:	e9 e4 fc ff ff       	jmp    26d8 <dealloc__Jg1OaY9ahkT3MBopLAXRSGw+0xf8>
    29f4:	0f 1f 40 00          	nop    DWORD PTR [rax+0x0]
    29f8:	48 89 48 08          	mov    QWORD PTR [rax+0x8],rcx
    29fc:	48 8b 09             	mov    rcx,QWORD PTR [rcx]
    29ff:	48 89 4a 08          	mov    QWORD PTR [rdx+0x8],rcx
    2a03:	48 8b 48 08          	mov    rcx,QWORD PTR [rax+0x8]
    2a07:	48 89 11             	mov    QWORD PTR [rcx],rdx
    2a0a:	48 8b 40 08          	mov    rax,QWORD PTR [rax+0x8]
    2a0e:	48 83 40 20 01       	add    QWORD PTR [rax+0x20],0x1
    2a13:	e9 a0 fd ff ff       	jmp    27b8 <dealloc__Jg1OaY9ahkT3MBopLAXRSGw+0x1d8>
    2a18:	0f 1f 84 00 00 00 00 	nop    DWORD PTR [rax+rax*1+0x0]
    2a1f:	00 
    2a20:	48 85 d2             	test   rdx,rdx
    2a23:	48 89 50 10          	mov    QWORD PTR [rax+0x10],rdx
    2a27:	0f 84 d4 fe ff ff    	je     2901 <dealloc__Jg1OaY9ahkT3MBopLAXRSGw+0x321>
    2a2d:	48 c7 42 18 00 00 00 	mov    QWORD PTR [rdx+0x18],0x0
    2a34:	00 
    2a35:	e9 c7 fe ff ff       	jmp    2901 <dealloc__Jg1OaY9ahkT3MBopLAXRSGw+0x321>
    2a3a:	66 0f 1f 44 00 00    	nop    WORD PTR [rax+rax*1+0x0]

0000000000002a40 <deallocImpl__lmwgHsdhTsrQaepFju8wew_2>:
    2a40:	49 89 f8             	mov    r8,rdi
    2a43:	48 8b 15 ce 1e 21 00 	mov    rdx,QWORD PTR [rip+0x211ece]        # 214918 <allocator__Het9ctRSeaVb4hPekZZNCJQ+0x2898>
    2a4a:	4c 8d 0d 2f f6 20 00 	lea    r9,[rip+0x20f62f]        # 212080 <allocator__Het9ctRSeaVb4hPekZZNCJQ>
    2a51:	49 81 e0 00 f0 ff ff 	and    r8,0xfffffffffffff000
    2a58:	49 8b 40 08          	mov    rax,QWORD PTR [r8+0x8]
    2a5c:	48 29 c2             	sub    rdx,rax
    2a5f:	48 3d c8 0f 00 00    	cmp    rax,0xfc8
    2a65:	7f 39                	jg     2aa0 <deallocImpl__lmwgHsdhTsrQaepFju8wew_2+0x60>
    2a67:	48 89 15 aa 1e 21 00 	mov    QWORD PTR [rip+0x211eaa],rdx        # 214918 <allocator__Het9ctRSeaVb4hPekZZNCJQ+0x2898>
    2a6e:	49 8b 50 20          	mov    rdx,QWORD PTR [r8+0x20]
    2a72:	48 89 17             	mov    QWORD PTR [rdi],rdx
    2a75:	49 8b 50 28          	mov    rdx,QWORD PTR [r8+0x28]
    2a79:	49 89 78 20          	mov    QWORD PTR [r8+0x20],rdi
    2a7d:	48 39 d0             	cmp    rax,rdx
    2a80:	0f 8f ba 01 00 00    	jg     2c40 <deallocImpl__lmwgHsdhTsrQaepFju8wew_2+0x200>
    2a86:	48 01 c2             	add    rdx,rax
    2a89:	48 81 fa c8 0f 00 00 	cmp    rdx,0xfc8
    2a90:	49 89 50 28          	mov    QWORD PTR [r8+0x28],rdx
    2a94:	0f 84 9e 02 00 00    	je     2d38 <deallocImpl__lmwgHsdhTsrQaepFju8wew_2+0x2f8>
    2a9a:	f3 c3                	repz ret 
    2a9c:	0f 1f 40 00          	nop    DWORD PTR [rax+0x0]
    2aa0:	48 83 ec 08          	sub    rsp,0x8
    2aa4:	48 83 3d ac 26 21 00 	cmp    QWORD PTR [rip+0x2126ac],0x0        # 215158 <allocator__Het9ctRSeaVb4hPekZZNCJQ+0x30d8>
    2aab:	00 
    2aac:	48 89 15 65 1e 21 00 	mov    QWORD PTR [rip+0x211e65],rdx        # 214918 <allocator__Het9ctRSeaVb4hPekZZNCJQ+0x2898>
    2ab3:	4c 8d 15 9e 26 21 00 	lea    r10,[rip+0x21269e]        # 215158 <allocator__Het9ctRSeaVb4hPekZZNCJQ+0x30d8>
    2aba:	0f 84 60 02 00 00    	je     2d20 <deallocImpl__lmwgHsdhTsrQaepFju8wew_2+0x2e0>
    2ac0:	48 8b 35 61 26 21 00 	mov    rsi,QWORD PTR [rip+0x212661]        # 215128 <allocator__Het9ctRSeaVb4hPekZZNCJQ+0x30a8>
    2ac7:	4c 89 15 62 26 21 00 	mov    QWORD PTR [rip+0x212662],r10        # 215130 <allocator__Het9ctRSeaVb4hPekZZNCJQ+0x30b0>
    2ace:	48 3b 36             	cmp    rsi,QWORD PTR [rsi]
    2ad1:	0f 84 49 01 00 00    	je     2c20 <deallocImpl__lmwgHsdhTsrQaepFju8wew_2+0x1e0>
    2ad7:	4d 8d 58 20          	lea    r11,[r8+0x20]
    2adb:	48 89 35 56 26 21 00 	mov    QWORD PTR [rip+0x212656],rsi        # 215138 <allocator__Het9ctRSeaVb4hPekZZNCJQ+0x30b8>
    2ae2:	4c 3b 5e 10          	cmp    r11,QWORD PTR [rsi+0x10]
    2ae6:	0f 83 24 02 00 00    	jae    2d10 <deallocImpl__lmwgHsdhTsrQaepFju8wew_2+0x2d0>
    2aec:	48 8d 3d 8d f5 20 00 	lea    rdi,[rip+0x20f58d]        # 212080 <allocator__Het9ctRSeaVb4hPekZZNCJQ>
    2af3:	4c 89 da             	mov    rdx,r11
    2af6:	e8 d5 f3 ff ff       	call   1ed0 <del__Io5JDKCS5u26IEWw0J53hQ>
    2afb:	48 8b 05 26 26 21 00 	mov    rax,QWORD PTR [rip+0x212626]        # 215128 <allocator__Het9ctRSeaVb4hPekZZNCJQ+0x30a8>
    2b02:	48 3b 05 2f 26 21 00 	cmp    rax,QWORD PTR [rip+0x21262f]        # 215138 <allocator__Het9ctRSeaVb4hPekZZNCJQ+0x30b8>
    2b09:	0f 84 a9 02 00 00    	je     2db8 <deallocImpl__lmwgHsdhTsrQaepFju8wew_2+0x378>
    2b0f:	48 8b 48 20          	mov    rcx,QWORD PTR [rax+0x20]
    2b13:	48 8d 51 ff          	lea    rdx,[rcx-0x1]
    2b17:	48 8b 08             	mov    rcx,QWORD PTR [rax]
    2b1a:	48 39 51 20          	cmp    QWORD PTR [rcx+0x20],rdx
    2b1e:	0f 8d 7c 02 00 00    	jge    2da0 <deallocImpl__lmwgHsdhTsrQaepFju8wew_2+0x360>
    2b24:	48 89 50 20          	mov    QWORD PTR [rax+0x20],rdx
    2b28:	48 8b 05 f9 25 21 00 	mov    rax,QWORD PTR [rip+0x2125f9]        # 215128 <allocator__Het9ctRSeaVb4hPekZZNCJQ+0x30a8>
    2b2f:	48 8b 48 08          	mov    rcx,QWORD PTR [rax+0x8]
    2b33:	48 8b 50 20          	mov    rdx,QWORD PTR [rax+0x20]
    2b37:	48 3b 51 20          	cmp    rdx,QWORD PTR [rcx+0x20]
    2b3b:	0f 8c 0f 03 00 00    	jl     2e50 <deallocImpl__lmwgHsdhTsrQaepFju8wew_2+0x410>
    2b41:	48 8b 08             	mov    rcx,QWORD PTR [rax]
    2b44:	48 39 51 20          	cmp    QWORD PTR [rcx+0x20],rdx
    2b48:	75 20                	jne    2b6a <deallocImpl__lmwgHsdhTsrQaepFju8wew_2+0x12a>
    2b4a:	48 89 0d d7 25 21 00 	mov    QWORD PTR [rip+0x2125d7],rcx        # 215128 <allocator__Het9ctRSeaVb4hPekZZNCJQ+0x30a8>
    2b51:	48 8b 51 08          	mov    rdx,QWORD PTR [rcx+0x8]
    2b55:	48 89 10             	mov    QWORD PTR [rax],rdx
    2b58:	48 8b 15 c9 25 21 00 	mov    rdx,QWORD PTR [rip+0x2125c9]        # 215128 <allocator__Het9ctRSeaVb4hPekZZNCJQ+0x30a8>
    2b5f:	48 89 42 08          	mov    QWORD PTR [rdx+0x8],rax
    2b63:	48 8b 05 be 25 21 00 	mov    rax,QWORD PTR [rip+0x2125be]        # 215128 <allocator__Het9ctRSeaVb4hPekZZNCJQ+0x30a8>
    2b6a:	48 8b 50 08          	mov    rdx,QWORD PTR [rax+0x8]
    2b6e:	48 8b 0a             	mov    rcx,QWORD PTR [rdx]
    2b71:	48 8b 72 20          	mov    rsi,QWORD PTR [rdx+0x20]
    2b75:	48 39 71 20          	cmp    QWORD PTR [rcx+0x20],rsi
    2b79:	75 1e                	jne    2b99 <deallocImpl__lmwgHsdhTsrQaepFju8wew_2+0x159>
    2b7b:	48 89 48 08          	mov    QWORD PTR [rax+0x8],rcx
    2b7f:	48 8b 49 08          	mov    rcx,QWORD PTR [rcx+0x8]
    2b83:	48 89 0a             	mov    QWORD PTR [rdx],rcx
    2b86:	48 8b 40 08          	mov    rax,QWORD PTR [rax+0x8]
    2b8a:	48 89 50 08          	mov    QWORD PTR [rax+0x8],rdx
    2b8e:	48 8b 05 93 25 21 00 	mov    rax,QWORD PTR [rip+0x212593]        # 215128 <allocator__Het9ctRSeaVb4hPekZZNCJQ+0x30a8>
    2b95:	48 8b 50 08          	mov    rdx,QWORD PTR [rax+0x8]
    2b99:	48 8b 4a 08          	mov    rcx,QWORD PTR [rdx+0x8]
    2b9d:	48 8b 39             	mov    rdi,QWORD PTR [rcx]
    2ba0:	48 8b 71 20          	mov    rsi,QWORD PTR [rcx+0x20]
    2ba4:	48 39 77 20          	cmp    QWORD PTR [rdi+0x20],rsi
    2ba8:	75 26                	jne    2bd0 <deallocImpl__lmwgHsdhTsrQaepFju8wew_2+0x190>
    2baa:	48 89 7a 08          	mov    QWORD PTR [rdx+0x8],rdi
    2bae:	48 8b 47 08          	mov    rax,QWORD PTR [rdi+0x8]
    2bb2:	48 89 01             	mov    QWORD PTR [rcx],rax
    2bb5:	48 8b 42 08          	mov    rax,QWORD PTR [rdx+0x8]
    2bb9:	48 89 48 08          	mov    QWORD PTR [rax+0x8],rcx
    2bbd:	48 8b 05 64 25 21 00 	mov    rax,QWORD PTR [rip+0x212564]        # 215128 <allocator__Het9ctRSeaVb4hPekZZNCJQ+0x30a8>
    2bc4:	48 8b 50 08          	mov    rdx,QWORD PTR [rax+0x8]
    2bc8:	48 8b 4a 08          	mov    rcx,QWORD PTR [rdx+0x8]
    2bcc:	48 8b 71 20          	mov    rsi,QWORD PTR [rcx+0x20]
    2bd0:	48 39 70 20          	cmp    QWORD PTR [rax+0x20],rsi
    2bd4:	75 33                	jne    2c09 <deallocImpl__lmwgHsdhTsrQaepFju8wew_2+0x1c9>
    2bd6:	48 89 15 4b 25 21 00 	mov    QWORD PTR [rip+0x21254b],rdx        # 215128 <allocator__Het9ctRSeaVb4hPekZZNCJQ+0x30a8>
    2bdd:	48 8b 12             	mov    rdx,QWORD PTR [rdx]
    2be0:	48 89 50 08          	mov    QWORD PTR [rax+0x8],rdx
    2be4:	48 8b 15 3d 25 21 00 	mov    rdx,QWORD PTR [rip+0x21253d]        # 215128 <allocator__Het9ctRSeaVb4hPekZZNCJQ+0x30a8>
    2beb:	48 89 02             	mov    QWORD PTR [rdx],rax
    2bee:	48 8b 05 33 25 21 00 	mov    rax,QWORD PTR [rip+0x212533]        # 215128 <allocator__Het9ctRSeaVb4hPekZZNCJQ+0x30a8>
    2bf5:	48 83 40 20 01       	add    QWORD PTR [rax+0x20],0x1
    2bfa:	48 8b 05 27 25 21 00 	mov    rax,QWORD PTR [rip+0x212527]        # 215128 <allocator__Het9ctRSeaVb4hPekZZNCJQ+0x30a8>
    2c01:	48 8b 50 08          	mov    rdx,QWORD PTR [rax+0x8]
    2c05:	48 8b 4a 08          	mov    rcx,QWORD PTR [rdx+0x8]
    2c09:	48 8b 71 08          	mov    rsi,QWORD PTR [rcx+0x8]
    2c0d:	48 8b 7a 20          	mov    rdi,QWORD PTR [rdx+0x20]
    2c11:	48 39 7e 20          	cmp    QWORD PTR [rsi+0x20],rdi
    2c15:	0f 84 4d 02 00 00    	je     2e68 <deallocImpl__lmwgHsdhTsrQaepFju8wew_2+0x428>
    2c1b:	0f 1f 44 00 00       	nop    DWORD PTR [rax+rax*1+0x0]
    2c20:	49 8b 70 08          	mov    rsi,QWORD PTR [r8+0x8]
    2c24:	48 81 fe 00 00 00 3f 	cmp    rsi,0x3f000000
    2c2b:	7f 4b                	jg     2c78 <deallocImpl__lmwgHsdhTsrQaepFju8wew_2+0x238>
    2c2d:	48 8d 3d 4c f4 20 00 	lea    rdi,[rip+0x20f44c]        # 212080 <allocator__Het9ctRSeaVb4hPekZZNCJQ>
    2c34:	4c 89 c6             	mov    rsi,r8
    2c37:	48 83 c4 08          	add    rsp,0x8
    2c3b:	e9 40 eb ff ff       	jmp    1780 <freeBigChunk__IPvsryqksLyNxxag3IQr2g>
    2c40:	48 8d 50 07          	lea    rdx,[rax+0x7]
    2c44:	48 85 c0             	test   rax,rax
    2c47:	48 0f 49 d0          	cmovns rdx,rax
    2c4b:	48 c1 fa 03          	sar    rdx,0x3
    2c4f:	48 83 c2 02          	add    rdx,0x2
    2c53:	49 8b 0c d1          	mov    rcx,QWORD PTR [r9+rdx*8]
    2c57:	49 89 48 10          	mov    QWORD PTR [r8+0x10],rcx
    2c5b:	49 8b 0c d1          	mov    rcx,QWORD PTR [r9+rdx*8]
    2c5f:	48 85 c9             	test   rcx,rcx
    2c62:	74 04                	je     2c68 <deallocImpl__lmwgHsdhTsrQaepFju8wew_2+0x228>
    2c64:	4c 89 41 18          	mov    QWORD PTR [rcx+0x18],r8
    2c68:	4d 89 04 d1          	mov    QWORD PTR [r9+rdx*8],r8
    2c6c:	49 01 40 28          	add    QWORD PTR [r8+0x28],rax
    2c70:	c3                   	ret    
    2c71:	0f 1f 80 00 00 00 00 	nop    DWORD PTR [rax+0x0]
    2c78:	4c 89 c2             	mov    rdx,r8
    2c7b:	48 c1 fa 15          	sar    rdx,0x15
    2c7f:	0f b6 c2             	movzx  eax,dl
    2c82:	49 8b 84 c1 a8 28 00 	mov    rax,QWORD PTR [r9+rax*8+0x28a8]
    2c89:	00 
    2c8a:	48 85 c0             	test   rax,rax
    2c8d:	74 2d                	je     2cbc <deallocImpl__lmwgHsdhTsrQaepFju8wew_2+0x27c>
    2c8f:	48 39 50 08          	cmp    QWORD PTR [rax+0x8],rdx
    2c93:	75 69                	jne    2cfe <deallocImpl__lmwgHsdhTsrQaepFju8wew_2+0x2be>
    2c95:	0f 1f 00             	nop    DWORD PTR [rax]
    2c98:	4c 89 c1             	mov    rcx,r8
    2c9b:	ba 01 00 00 00       	mov    edx,0x1
    2ca0:	48 c1 f9 0c          	sar    rcx,0xc
    2ca4:	81 e1 ff 01 00 00    	and    ecx,0x1ff
    2caa:	48 89 cf             	mov    rdi,rcx
    2cad:	48 d3 e2             	shl    rdx,cl
    2cb0:	48 c1 ff 06          	sar    rdi,0x6
    2cb4:	48 f7 d2             	not    rdx
    2cb7:	48 21 54 f8 10       	and    QWORD PTR [rax+rdi*8+0x10],rdx
    2cbc:	48 8b 05 3d 1c 21 00 	mov    rax,QWORD PTR [rip+0x211c3d]        # 214900 <allocator__Het9ctRSeaVb4hPekZZNCJQ+0x2880>
    2cc3:	48 39 05 3e 1c 21 00 	cmp    QWORD PTR [rip+0x211c3e],rax        # 214908 <allocator__Het9ctRSeaVb4hPekZZNCJQ+0x2888>
    2cca:	4c 89 c7             	mov    rdi,r8
    2ccd:	48 89 c2             	mov    rdx,rax
    2cd0:	48 0f 4d 15 30 1c 21 	cmovge rdx,QWORD PTR [rip+0x211c30]        # 214908 <allocator__Het9ctRSeaVb4hPekZZNCJQ+0x2888>
    2cd7:	00 
    2cd8:	48 29 f0             	sub    rax,rsi
    2cdb:	48 89 05 1e 1c 21 00 	mov    QWORD PTR [rip+0x211c1e],rax        # 214900 <allocator__Het9ctRSeaVb4hPekZZNCJQ+0x2880>
    2ce2:	48 89 15 1f 1c 21 00 	mov    QWORD PTR [rip+0x211c1f],rdx        # 214908 <allocator__Het9ctRSeaVb4hPekZZNCJQ+0x2888>
    2ce9:	48 83 c4 08          	add    rsp,0x8
    2ced:	e9 ee dc ff ff       	jmp    9e0 <munmap@plt>
    2cf2:	66 0f 1f 44 00 00    	nop    WORD PTR [rax+rax*1+0x0]
    2cf8:	48 3b 50 08          	cmp    rdx,QWORD PTR [rax+0x8]
    2cfc:	74 9a                	je     2c98 <deallocImpl__lmwgHsdhTsrQaepFju8wew_2+0x258>
    2cfe:	48 8b 00             	mov    rax,QWORD PTR [rax]
    2d01:	48 85 c0             	test   rax,rax
    2d04:	75 f2                	jne    2cf8 <deallocImpl__lmwgHsdhTsrQaepFju8wew_2+0x2b8>
    2d06:	eb b4                	jmp    2cbc <deallocImpl__lmwgHsdhTsrQaepFju8wew_2+0x27c>
    2d08:	0f 1f 84 00 00 00 00 	nop    DWORD PTR [rax+rax*1+0x0]
    2d0f:	00 
    2d10:	48 89 35 19 24 21 00 	mov    QWORD PTR [rip+0x212419],rsi        # 215130 <allocator__Het9ctRSeaVb4hPekZZNCJQ+0x30b0>
    2d17:	48 83 c6 08          	add    rsi,0x8
    2d1b:	e9 cc fd ff ff       	jmp    2aec <deallocImpl__lmwgHsdhTsrQaepFju8wew_2+0xac>
    2d20:	4c 89 15 31 24 21 00 	mov    QWORD PTR [rip+0x212431],r10        # 215158 <allocator__Het9ctRSeaVb4hPekZZNCJQ+0x30d8>
    2d27:	4c 89 15 32 24 21 00 	mov    QWORD PTR [rip+0x212432],r10        # 215160 <allocator__Het9ctRSeaVb4hPekZZNCJQ+0x30e0>
    2d2e:	e9 8d fd ff ff       	jmp    2ac0 <deallocImpl__lmwgHsdhTsrQaepFju8wew_2+0x80>
    2d33:	0f 1f 44 00 00       	nop    DWORD PTR [rax+rax*1+0x0]
    2d38:	48 8d 50 07          	lea    rdx,[rax+0x7]
    2d3c:	48 85 c0             	test   rax,rax
    2d3f:	48 0f 48 c2          	cmovs  rax,rdx
    2d43:	49 8b 50 10          	mov    rdx,QWORD PTR [r8+0x10]
    2d47:	48 c1 f8 03          	sar    rax,0x3
    2d4b:	48 83 c0 02          	add    rax,0x2
    2d4f:	4d 3b 04 c1          	cmp    r8,QWORD PTR [r9+rax*8]
    2d53:	0f 84 37 01 00 00    	je     2e90 <deallocImpl__lmwgHsdhTsrQaepFju8wew_2+0x450>
    2d59:	49 8b 40 18          	mov    rax,QWORD PTR [r8+0x18]
    2d5d:	48 89 50 10          	mov    QWORD PTR [rax+0x10],rdx
    2d61:	49 8b 40 10          	mov    rax,QWORD PTR [r8+0x10]
    2d65:	48 85 c0             	test   rax,rax
    2d68:	74 08                	je     2d72 <deallocImpl__lmwgHsdhTsrQaepFju8wew_2+0x332>
    2d6a:	49 8b 50 18          	mov    rdx,QWORD PTR [r8+0x18]
    2d6e:	48 89 50 18          	mov    QWORD PTR [rax+0x18],rdx
    2d72:	48 8d 3d 07 f3 20 00 	lea    rdi,[rip+0x20f307]        # 212080 <allocator__Het9ctRSeaVb4hPekZZNCJQ>
    2d79:	49 c7 40 10 00 00 00 	mov    QWORD PTR [r8+0x10],0x0
    2d80:	00 
    2d81:	49 c7 40 18 00 00 00 	mov    QWORD PTR [r8+0x18],0x0
    2d88:	00 
    2d89:	49 c7 40 08 00 10 00 	mov    QWORD PTR [r8+0x8],0x1000
    2d90:	00 
    2d91:	4c 89 c6             	mov    rsi,r8
    2d94:	e9 e7 e9 ff ff       	jmp    1780 <freeBigChunk__IPvsryqksLyNxxag3IQr2g>
    2d99:	0f 1f 80 00 00 00 00 	nop    DWORD PTR [rax+0x0]
    2da0:	48 8b 48 08          	mov    rcx,QWORD PTR [rax+0x8]
    2da4:	48 3b 51 20          	cmp    rdx,QWORD PTR [rcx+0x20]
    2da8:	0f 8e 72 fe ff ff    	jle    2c20 <deallocImpl__lmwgHsdhTsrQaepFju8wew_2+0x1e0>
    2dae:	e9 71 fd ff ff       	jmp    2b24 <deallocImpl__lmwgHsdhTsrQaepFju8wew_2+0xe4>
    2db3:	0f 1f 44 00 00       	nop    DWORD PTR [rax+rax*1+0x0]
    2db8:	48 8b 15 71 23 21 00 	mov    rdx,QWORD PTR [rip+0x212371]        # 215130 <allocator__Het9ctRSeaVb4hPekZZNCJQ+0x30b0>
    2dbf:	48 3b 12             	cmp    rdx,QWORD PTR [rdx]
    2dc2:	0f 84 47 fd ff ff    	je     2b0f <deallocImpl__lmwgHsdhTsrQaepFju8wew_2+0xcf>
    2dc8:	4c 3b 5a 10          	cmp    r11,QWORD PTR [rdx+0x10]
    2dcc:	0f 85 3d fd ff ff    	jne    2b0f <deallocImpl__lmwgHsdhTsrQaepFju8wew_2+0xcf>
    2dd2:	48 8b 40 10          	mov    rax,QWORD PTR [rax+0x10]
    2dd6:	48 89 42 10          	mov    QWORD PTR [rdx+0x10],rax
    2dda:	48 8b 05 47 23 21 00 	mov    rax,QWORD PTR [rip+0x212347]        # 215128 <allocator__Het9ctRSeaVb4hPekZZNCJQ+0x30a8>
    2de1:	48 8b 50 18          	mov    rdx,QWORD PTR [rax+0x18]
    2de5:	48 8b 05 44 23 21 00 	mov    rax,QWORD PTR [rip+0x212344]        # 215130 <allocator__Het9ctRSeaVb4hPekZZNCJQ+0x30b0>
    2dec:	48 89 50 18          	mov    QWORD PTR [rax+0x18],rdx
    2df0:	48 83 3d 60 23 21 00 	cmp    QWORD PTR [rip+0x212360],0x0        # 215158 <allocator__Het9ctRSeaVb4hPekZZNCJQ+0x30d8>
    2df7:	00 
    2df8:	75 0e                	jne    2e08 <deallocImpl__lmwgHsdhTsrQaepFju8wew_2+0x3c8>
    2dfa:	4c 89 15 57 23 21 00 	mov    QWORD PTR [rip+0x212357],r10        # 215158 <allocator__Het9ctRSeaVb4hPekZZNCJQ+0x30d8>
    2e01:	4c 89 15 58 23 21 00 	mov    QWORD PTR [rip+0x212358],r10        # 215160 <allocator__Het9ctRSeaVb4hPekZZNCJQ+0x30e0>
    2e08:	48 8b 05 19 23 21 00 	mov    rax,QWORD PTR [rip+0x212319]        # 215128 <allocator__Het9ctRSeaVb4hPekZZNCJQ+0x30a8>
    2e0f:	4c 89 15 1a 23 21 00 	mov    QWORD PTR [rip+0x21231a],r10        # 215130 <allocator__Het9ctRSeaVb4hPekZZNCJQ+0x30b0>
    2e16:	48 8b 15 23 23 21 00 	mov    rdx,QWORD PTR [rip+0x212323]        # 215140 <allocator__Het9ctRSeaVb4hPekZZNCJQ+0x30c0>
    2e1d:	48 8b 40 08          	mov    rax,QWORD PTR [rax+0x8]
    2e21:	48 89 05 00 23 21 00 	mov    QWORD PTR [rip+0x212300],rax        # 215128 <allocator__Het9ctRSeaVb4hPekZZNCJQ+0x30a8>
    2e28:	48 8b 05 09 23 21 00 	mov    rax,QWORD PTR [rip+0x212309]        # 215138 <allocator__Het9ctRSeaVb4hPekZZNCJQ+0x30b8>
    2e2f:	48 89 10             	mov    QWORD PTR [rax],rdx
    2e32:	48 89 05 07 23 21 00 	mov    QWORD PTR [rip+0x212307],rax        # 215140 <allocator__Het9ctRSeaVb4hPekZZNCJQ+0x30c0>
    2e39:	49 8b 70 08          	mov    rsi,QWORD PTR [r8+0x8]
    2e3d:	48 81 fe 00 00 00 3f 	cmp    rsi,0x3f000000
    2e44:	0f 8e e3 fd ff ff    	jle    2c2d <deallocImpl__lmwgHsdhTsrQaepFju8wew_2+0x1ed>
    2e4a:	e9 29 fe ff ff       	jmp    2c78 <deallocImpl__lmwgHsdhTsrQaepFju8wew_2+0x238>
    2e4f:	90                   	nop
    2e50:	48 89 51 20          	mov    QWORD PTR [rcx+0x20],rdx
    2e54:	48 8b 05 cd 22 21 00 	mov    rax,QWORD PTR [rip+0x2122cd]        # 215128 <allocator__Het9ctRSeaVb4hPekZZNCJQ+0x30a8>
    2e5b:	48 8b 50 20          	mov    rdx,QWORD PTR [rax+0x20]
    2e5f:	e9 dd fc ff ff       	jmp    2b41 <deallocImpl__lmwgHsdhTsrQaepFju8wew_2+0x101>
    2e64:	0f 1f 40 00          	nop    DWORD PTR [rax+0x0]
    2e68:	48 89 48 08          	mov    QWORD PTR [rax+0x8],rcx
    2e6c:	48 8b 09             	mov    rcx,QWORD PTR [rcx]
    2e6f:	48 89 4a 08          	mov    QWORD PTR [rdx+0x8],rcx
    2e73:	48 8b 48 08          	mov    rcx,QWORD PTR [rax+0x8]
    2e77:	48 89 11             	mov    QWORD PTR [rcx],rdx
    2e7a:	48 8b 40 08          	mov    rax,QWORD PTR [rax+0x8]
    2e7e:	48 83 40 20 01       	add    QWORD PTR [rax+0x20],0x1
    2e83:	e9 98 fd ff ff       	jmp    2c20 <deallocImpl__lmwgHsdhTsrQaepFju8wew_2+0x1e0>
    2e88:	0f 1f 84 00 00 00 00 	nop    DWORD PTR [rax+rax*1+0x0]
    2e8f:	00 
    2e90:	48 85 d2             	test   rdx,rdx
    2e93:	49 89 14 c1          	mov    QWORD PTR [r9+rax*8],rdx
    2e97:	0f 84 d5 fe ff ff    	je     2d72 <deallocImpl__lmwgHsdhTsrQaepFju8wew_2+0x332>
    2e9d:	48 c7 42 18 00 00 00 	mov    QWORD PTR [rdx+0x18],0x0
    2ea4:	00 
    2ea5:	e9 c8 fe ff ff       	jmp    2d72 <deallocImpl__lmwgHsdhTsrQaepFju8wew_2+0x332>
    2eaa:	66 0f 1f 44 00 00    	nop    WORD PTR [rax+rax*1+0x0]

0000000000002eb0 <deallocSharedImpl__lmwgHsdhTsrQaepFju8wew>:
    2eb0:	49 89 f8             	mov    r8,rdi
    2eb3:	48 8b 15 5e 1a 21 00 	mov    rdx,QWORD PTR [rip+0x211a5e]        # 214918 <allocator__Het9ctRSeaVb4hPekZZNCJQ+0x2898>
    2eba:	4c 8d 0d bf f1 20 00 	lea    r9,[rip+0x20f1bf]        # 212080 <allocator__Het9ctRSeaVb4hPekZZNCJQ>
    2ec1:	49 81 e0 00 f0 ff ff 	and    r8,0xfffffffffffff000
    2ec8:	49 8b 40 08          	mov    rax,QWORD PTR [r8+0x8]
    2ecc:	48 29 c2             	sub    rdx,rax
    2ecf:	48 3d c8 0f 00 00    	cmp    rax,0xfc8
    2ed5:	7f 39                	jg     2f10 <deallocSharedImpl__lmwgHsdhTsrQaepFju8wew+0x60>
    2ed7:	48 89 15 3a 1a 21 00 	mov    QWORD PTR [rip+0x211a3a],rdx        # 214918 <allocator__Het9ctRSeaVb4hPekZZNCJQ+0x2898>
    2ede:	49 8b 50 20          	mov    rdx,QWORD PTR [r8+0x20]
    2ee2:	48 89 17             	mov    QWORD PTR [rdi],rdx
    2ee5:	49 8b 50 28          	mov    rdx,QWORD PTR [r8+0x28]
    2ee9:	49 89 78 20          	mov    QWORD PTR [r8+0x20],rdi
    2eed:	48 39 d0             	cmp    rax,rdx
    2ef0:	0f 8f ba 01 00 00    	jg     30b0 <deallocSharedImpl__lmwgHsdhTsrQaepFju8wew+0x200>
    2ef6:	48 01 c2             	add    rdx,rax
    2ef9:	48 81 fa c8 0f 00 00 	cmp    rdx,0xfc8
    2f00:	49 89 50 28          	mov    QWORD PTR [r8+0x28],rdx
    2f04:	0f 84 9e 02 00 00    	je     31a8 <deallocSharedImpl__lmwgHsdhTsrQaepFju8wew+0x2f8>
    2f0a:	f3 c3                	repz ret 
    2f0c:	0f 1f 40 00          	nop    DWORD PTR [rax+0x0]
    2f10:	48 83 ec 08          	sub    rsp,0x8
    2f14:	48 83 3d 3c 22 21 00 	cmp    QWORD PTR [rip+0x21223c],0x0        # 215158 <allocator__Het9ctRSeaVb4hPekZZNCJQ+0x30d8>
    2f1b:	00 
    2f1c:	48 89 15 f5 19 21 00 	mov    QWORD PTR [rip+0x2119f5],rdx        # 214918 <allocator__Het9ctRSeaVb4hPekZZNCJQ+0x2898>
    2f23:	4c 8d 15 2e 22 21 00 	lea    r10,[rip+0x21222e]        # 215158 <allocator__Het9ctRSeaVb4hPekZZNCJQ+0x30d8>
    2f2a:	0f 84 60 02 00 00    	je     3190 <deallocSharedImpl__lmwgHsdhTsrQaepFju8wew+0x2e0>
    2f30:	48 8b 35 f1 21 21 00 	mov    rsi,QWORD PTR [rip+0x2121f1]        # 215128 <allocator__Het9ctRSeaVb4hPekZZNCJQ+0x30a8>
    2f37:	4c 89 15 f2 21 21 00 	mov    QWORD PTR [rip+0x2121f2],r10        # 215130 <allocator__Het9ctRSeaVb4hPekZZNCJQ+0x30b0>
    2f3e:	48 3b 36             	cmp    rsi,QWORD PTR [rsi]
    2f41:	0f 84 49 01 00 00    	je     3090 <deallocSharedImpl__lmwgHsdhTsrQaepFju8wew+0x1e0>
    2f47:	4d 8d 58 20          	lea    r11,[r8+0x20]
    2f4b:	48 89 35 e6 21 21 00 	mov    QWORD PTR [rip+0x2121e6],rsi        # 215138 <allocator__Het9ctRSeaVb4hPekZZNCJQ+0x30b8>
    2f52:	4c 3b 5e 10          	cmp    r11,QWORD PTR [rsi+0x10]
    2f56:	0f 83 24 02 00 00    	jae    3180 <deallocSharedImpl__lmwgHsdhTsrQaepFju8wew+0x2d0>
    2f5c:	48 8d 3d 1d f1 20 00 	lea    rdi,[rip+0x20f11d]        # 212080 <allocator__Het9ctRSeaVb4hPekZZNCJQ>
    2f63:	4c 89 da             	mov    rdx,r11
    2f66:	e8 65 ef ff ff       	call   1ed0 <del__Io5JDKCS5u26IEWw0J53hQ>
    2f6b:	48 8b 05 b6 21 21 00 	mov    rax,QWORD PTR [rip+0x2121b6]        # 215128 <allocator__Het9ctRSeaVb4hPekZZNCJQ+0x30a8>
    2f72:	48 3b 05 bf 21 21 00 	cmp    rax,QWORD PTR [rip+0x2121bf]        # 215138 <allocator__Het9ctRSeaVb4hPekZZNCJQ+0x30b8>
    2f79:	0f 84 a9 02 00 00    	je     3228 <deallocSharedImpl__lmwgHsdhTsrQaepFju8wew+0x378>
    2f7f:	48 8b 48 20          	mov    rcx,QWORD PTR [rax+0x20]
    2f83:	48 8d 51 ff          	lea    rdx,[rcx-0x1]
    2f87:	48 8b 08             	mov    rcx,QWORD PTR [rax]
    2f8a:	48 39 51 20          	cmp    QWORD PTR [rcx+0x20],rdx
    2f8e:	0f 8d 7c 02 00 00    	jge    3210 <deallocSharedImpl__lmwgHsdhTsrQaepFju8wew+0x360>
    2f94:	48 89 50 20          	mov    QWORD PTR [rax+0x20],rdx
    2f98:	48 8b 05 89 21 21 00 	mov    rax,QWORD PTR [rip+0x212189]        # 215128 <allocator__Het9ctRSeaVb4hPekZZNCJQ+0x30a8>
    2f9f:	48 8b 48 08          	mov    rcx,QWORD PTR [rax+0x8]
    2fa3:	48 8b 50 20          	mov    rdx,QWORD PTR [rax+0x20]
    2fa7:	48 3b 51 20          	cmp    rdx,QWORD PTR [rcx+0x20]
    2fab:	0f 8c 0f 03 00 00    	jl     32c0 <deallocSharedImpl__lmwgHsdhTsrQaepFju8wew+0x410>
    2fb1:	48 8b 08             	mov    rcx,QWORD PTR [rax]
    2fb4:	48 39 51 20          	cmp    QWORD PTR [rcx+0x20],rdx
    2fb8:	75 20                	jne    2fda <deallocSharedImpl__lmwgHsdhTsrQaepFju8wew+0x12a>
    2fba:	48 89 0d 67 21 21 00 	mov    QWORD PTR [rip+0x212167],rcx        # 215128 <allocator__Het9ctRSeaVb4hPekZZNCJQ+0x30a8>
    2fc1:	48 8b 51 08          	mov    rdx,QWORD PTR [rcx+0x8]
    2fc5:	48 89 10             	mov    QWORD PTR [rax],rdx
    2fc8:	48 8b 15 59 21 21 00 	mov    rdx,QWORD PTR [rip+0x212159]        # 215128 <allocator__Het9ctRSeaVb4hPekZZNCJQ+0x30a8>
    2fcf:	48 89 42 08          	mov    QWORD PTR [rdx+0x8],rax
    2fd3:	48 8b 05 4e 21 21 00 	mov    rax,QWORD PTR [rip+0x21214e]        # 215128 <allocator__Het9ctRSeaVb4hPekZZNCJQ+0x30a8>
    2fda:	48 8b 50 08          	mov    rdx,QWORD PTR [rax+0x8]
    2fde:	48 8b 0a             	mov    rcx,QWORD PTR [rdx]
    2fe1:	48 8b 72 20          	mov    rsi,QWORD PTR [rdx+0x20]
    2fe5:	48 39 71 20          	cmp    QWORD PTR [rcx+0x20],rsi
    2fe9:	75 1e                	jne    3009 <deallocSharedImpl__lmwgHsdhTsrQaepFju8wew+0x159>
    2feb:	48 89 48 08          	mov    QWORD PTR [rax+0x8],rcx
    2fef:	48 8b 49 08          	mov    rcx,QWORD PTR [rcx+0x8]
    2ff3:	48 89 0a             	mov    QWORD PTR [rdx],rcx
    2ff6:	48 8b 40 08          	mov    rax,QWORD PTR [rax+0x8]
    2ffa:	48 89 50 08          	mov    QWORD PTR [rax+0x8],rdx
    2ffe:	48 8b 05 23 21 21 00 	mov    rax,QWORD PTR [rip+0x212123]        # 215128 <allocator__Het9ctRSeaVb4hPekZZNCJQ+0x30a8>
    3005:	48 8b 50 08          	mov    rdx,QWORD PTR [rax+0x8]
    3009:	48 8b 4a 08          	mov    rcx,QWORD PTR [rdx+0x8]
    300d:	48 8b 39             	mov    rdi,QWORD PTR [rcx]
    3010:	48 8b 71 20          	mov    rsi,QWORD PTR [rcx+0x20]
    3014:	48 39 77 20          	cmp    QWORD PTR [rdi+0x20],rsi
    3018:	75 26                	jne    3040 <deallocSharedImpl__lmwgHsdhTsrQaepFju8wew+0x190>
    301a:	48 89 7a 08          	mov    QWORD PTR [rdx+0x8],rdi
    301e:	48 8b 47 08          	mov    rax,QWORD PTR [rdi+0x8]
    3022:	48 89 01             	mov    QWORD PTR [rcx],rax
    3025:	48 8b 42 08          	mov    rax,QWORD PTR [rdx+0x8]
    3029:	48 89 48 08          	mov    QWORD PTR [rax+0x8],rcx
    302d:	48 8b 05 f4 20 21 00 	mov    rax,QWORD PTR [rip+0x2120f4]        # 215128 <allocator__Het9ctRSeaVb4hPekZZNCJQ+0x30a8>
    3034:	48 8b 50 08          	mov    rdx,QWORD PTR [rax+0x8]
    3038:	48 8b 4a 08          	mov    rcx,QWORD PTR [rdx+0x8]
    303c:	48 8b 71 20          	mov    rsi,QWORD PTR [rcx+0x20]
    3040:	48 39 70 20          	cmp    QWORD PTR [rax+0x20],rsi
    3044:	75 33                	jne    3079 <deallocSharedImpl__lmwgHsdhTsrQaepFju8wew+0x1c9>
    3046:	48 89 15 db 20 21 00 	mov    QWORD PTR [rip+0x2120db],rdx        # 215128 <allocator__Het9ctRSeaVb4hPekZZNCJQ+0x30a8>
    304d:	48 8b 12             	mov    rdx,QWORD PTR [rdx]
    3050:	48 89 50 08          	mov    QWORD PTR [rax+0x8],rdx
    3054:	48 8b 15 cd 20 21 00 	mov    rdx,QWORD PTR [rip+0x2120cd]        # 215128 <allocator__Het9ctRSeaVb4hPekZZNCJQ+0x30a8>
    305b:	48 89 02             	mov    QWORD PTR [rdx],rax
    305e:	48 8b 05 c3 20 21 00 	mov    rax,QWORD PTR [rip+0x2120c3]        # 215128 <allocator__Het9ctRSeaVb4hPekZZNCJQ+0x30a8>
    3065:	48 83 40 20 01       	add    QWORD PTR [rax+0x20],0x1
    306a:	48 8b 05 b7 20 21 00 	mov    rax,QWORD PTR [rip+0x2120b7]        # 215128 <allocator__Het9ctRSeaVb4hPekZZNCJQ+0x30a8>
    3071:	48 8b 50 08          	mov    rdx,QWORD PTR [rax+0x8]
    3075:	48 8b 4a 08          	mov    rcx,QWORD PTR [rdx+0x8]
    3079:	48 8b 71 08          	mov    rsi,QWORD PTR [rcx+0x8]
    307d:	48 8b 7a 20          	mov    rdi,QWORD PTR [rdx+0x20]
    3081:	48 39 7e 20          	cmp    QWORD PTR [rsi+0x20],rdi
    3085:	0f 84 4d 02 00 00    	je     32d8 <deallocSharedImpl__lmwgHsdhTsrQaepFju8wew+0x428>
    308b:	0f 1f 44 00 00       	nop    DWORD PTR [rax+rax*1+0x0]
    3090:	49 8b 70 08          	mov    rsi,QWORD PTR [r8+0x8]
    3094:	48 81 fe 00 00 00 3f 	cmp    rsi,0x3f000000
    309b:	7f 4b                	jg     30e8 <deallocSharedImpl__lmwgHsdhTsrQaepFju8wew+0x238>
    309d:	48 8d 3d dc ef 20 00 	lea    rdi,[rip+0x20efdc]        # 212080 <allocator__Het9ctRSeaVb4hPekZZNCJQ>
    30a4:	4c 89 c6             	mov    rsi,r8
    30a7:	48 83 c4 08          	add    rsp,0x8
    30ab:	e9 d0 e6 ff ff       	jmp    1780 <freeBigChunk__IPvsryqksLyNxxag3IQr2g>
    30b0:	48 8d 50 07          	lea    rdx,[rax+0x7]
    30b4:	48 85 c0             	test   rax,rax
    30b7:	48 0f 49 d0          	cmovns rdx,rax
    30bb:	48 c1 fa 03          	sar    rdx,0x3
    30bf:	48 83 c2 02          	add    rdx,0x2
    30c3:	49 8b 0c d1          	mov    rcx,QWORD PTR [r9+rdx*8]
    30c7:	49 89 48 10          	mov    QWORD PTR [r8+0x10],rcx
    30cb:	49 8b 0c d1          	mov    rcx,QWORD PTR [r9+rdx*8]
    30cf:	48 85 c9             	test   rcx,rcx
    30d2:	74 04                	je     30d8 <deallocSharedImpl__lmwgHsdhTsrQaepFju8wew+0x228>
    30d4:	4c 89 41 18          	mov    QWORD PTR [rcx+0x18],r8
    30d8:	4d 89 04 d1          	mov    QWORD PTR [r9+rdx*8],r8
    30dc:	49 01 40 28          	add    QWORD PTR [r8+0x28],rax
    30e0:	c3                   	ret    
    30e1:	0f 1f 80 00 00 00 00 	nop    DWORD PTR [rax+0x0]
    30e8:	4c 89 c2             	mov    rdx,r8
    30eb:	48 c1 fa 15          	sar    rdx,0x15
    30ef:	0f b6 c2             	movzx  eax,dl
    30f2:	49 8b 84 c1 a8 28 00 	mov    rax,QWORD PTR [r9+rax*8+0x28a8]
    30f9:	00 
    30fa:	48 85 c0             	test   rax,rax
    30fd:	74 2d                	je     312c <deallocSharedImpl__lmwgHsdhTsrQaepFju8wew+0x27c>
    30ff:	48 39 50 08          	cmp    QWORD PTR [rax+0x8],rdx
    3103:	75 69                	jne    316e <deallocSharedImpl__lmwgHsdhTsrQaepFju8wew+0x2be>
    3105:	0f 1f 00             	nop    DWORD PTR [rax]
    3108:	4c 89 c1             	mov    rcx,r8
    310b:	ba 01 00 00 00       	mov    edx,0x1
    3110:	48 c1 f9 0c          	sar    rcx,0xc
    3114:	81 e1 ff 01 00 00    	and    ecx,0x1ff
    311a:	48 89 cf             	mov    rdi,rcx
    311d:	48 d3 e2             	shl    rdx,cl
    3120:	48 c1 ff 06          	sar    rdi,0x6
    3124:	48 f7 d2             	not    rdx
    3127:	48 21 54 f8 10       	and    QWORD PTR [rax+rdi*8+0x10],rdx
    312c:	48 8b 05 cd 17 21 00 	mov    rax,QWORD PTR [rip+0x2117cd]        # 214900 <allocator__Het9ctRSeaVb4hPekZZNCJQ+0x2880>
    3133:	48 39 05 ce 17 21 00 	cmp    QWORD PTR [rip+0x2117ce],rax        # 214908 <allocator__Het9ctRSeaVb4hPekZZNCJQ+0x2888>
    313a:	4c 89 c7             	mov    rdi,r8
    313d:	48 89 c2             	mov    rdx,rax
    3140:	48 0f 4d 15 c0 17 21 	cmovge rdx,QWORD PTR [rip+0x2117c0]        # 214908 <allocator__Het9ctRSeaVb4hPekZZNCJQ+0x2888>
    3147:	00 
    3148:	48 29 f0             	sub    rax,rsi
    314b:	48 89 05 ae 17 21 00 	mov    QWORD PTR [rip+0x2117ae],rax        # 214900 <allocator__Het9ctRSeaVb4hPekZZNCJQ+0x2880>
    3152:	48 89 15 af 17 21 00 	mov    QWORD PTR [rip+0x2117af],rdx        # 214908 <allocator__Het9ctRSeaVb4hPekZZNCJQ+0x2888>
    3159:	48 83 c4 08          	add    rsp,0x8
    315d:	e9 7e d8 ff ff       	jmp    9e0 <munmap@plt>
    3162:	66 0f 1f 44 00 00    	nop    WORD PTR [rax+rax*1+0x0]
    3168:	48 3b 50 08          	cmp    rdx,QWORD PTR [rax+0x8]
    316c:	74 9a                	je     3108 <deallocSharedImpl__lmwgHsdhTsrQaepFju8wew+0x258>
    316e:	48 8b 00             	mov    rax,QWORD PTR [rax]
    3171:	48 85 c0             	test   rax,rax
    3174:	75 f2                	jne    3168 <deallocSharedImpl__lmwgHsdhTsrQaepFju8wew+0x2b8>
    3176:	eb b4                	jmp    312c <deallocSharedImpl__lmwgHsdhTsrQaepFju8wew+0x27c>
    3178:	0f 1f 84 00 00 00 00 	nop    DWORD PTR [rax+rax*1+0x0]
    317f:	00 
    3180:	48 89 35 a9 1f 21 00 	mov    QWORD PTR [rip+0x211fa9],rsi        # 215130 <allocator__Het9ctRSeaVb4hPekZZNCJQ+0x30b0>
    3187:	48 83 c6 08          	add    rsi,0x8
    318b:	e9 cc fd ff ff       	jmp    2f5c <deallocSharedImpl__lmwgHsdhTsrQaepFju8wew+0xac>
    3190:	4c 89 15 c1 1f 21 00 	mov    QWORD PTR [rip+0x211fc1],r10        # 215158 <allocator__Het9ctRSeaVb4hPekZZNCJQ+0x30d8>
    3197:	4c 89 15 c2 1f 21 00 	mov    QWORD PTR [rip+0x211fc2],r10        # 215160 <allocator__Het9ctRSeaVb4hPekZZNCJQ+0x30e0>
    319e:	e9 8d fd ff ff       	jmp    2f30 <deallocSharedImpl__lmwgHsdhTsrQaepFju8wew+0x80>
    31a3:	0f 1f 44 00 00       	nop    DWORD PTR [rax+rax*1+0x0]
    31a8:	48 8d 50 07          	lea    rdx,[rax+0x7]
    31ac:	48 85 c0             	test   rax,rax
    31af:	48 0f 48 c2          	cmovs  rax,rdx
    31b3:	49 8b 50 10          	mov    rdx,QWORD PTR [r8+0x10]
    31b7:	48 c1 f8 03          	sar    rax,0x3
    31bb:	48 83 c0 02          	add    rax,0x2
    31bf:	4d 3b 04 c1          	cmp    r8,QWORD PTR [r9+rax*8]
    31c3:	0f 84 37 01 00 00    	je     3300 <deallocSharedImpl__lmwgHsdhTsrQaepFju8wew+0x450>
    31c9:	49 8b 40 18          	mov    rax,QWORD PTR [r8+0x18]
    31cd:	48 89 50 10          	mov    QWORD PTR [rax+0x10],rdx
    31d1:	49 8b 40 10          	mov    rax,QWORD PTR [r8+0x10]
    31d5:	48 85 c0             	test   rax,rax
    31d8:	74 08                	je     31e2 <deallocSharedImpl__lmwgHsdhTsrQaepFju8wew+0x332>
    31da:	49 8b 50 18          	mov    rdx,QWORD PTR [r8+0x18]
    31de:	48 89 50 18          	mov    QWORD PTR [rax+0x18],rdx
    31e2:	48 8d 3d 97 ee 20 00 	lea    rdi,[rip+0x20ee97]        # 212080 <allocator__Het9ctRSeaVb4hPekZZNCJQ>
    31e9:	49 c7 40 10 00 00 00 	mov    QWORD PTR [r8+0x10],0x0
    31f0:	00 
    31f1:	49 c7 40 18 00 00 00 	mov    QWORD PTR [r8+0x18],0x0
    31f8:	00 
    31f9:	49 c7 40 08 00 10 00 	mov    QWORD PTR [r8+0x8],0x1000
    3200:	00 
    3201:	4c 89 c6             	mov    rsi,r8
    3204:	e9 77 e5 ff ff       	jmp    1780 <freeBigChunk__IPvsryqksLyNxxag3IQr2g>
    3209:	0f 1f 80 00 00 00 00 	nop    DWORD PTR [rax+0x0]
    3210:	48 8b 48 08          	mov    rcx,QWORD PTR [rax+0x8]
    3214:	48 3b 51 20          	cmp    rdx,QWORD PTR [rcx+0x20]
    3218:	0f 8e 72 fe ff ff    	jle    3090 <deallocSharedImpl__lmwgHsdhTsrQaepFju8wew+0x1e0>
    321e:	e9 71 fd ff ff       	jmp    2f94 <deallocSharedImpl__lmwgHsdhTsrQaepFju8wew+0xe4>
    3223:	0f 1f 44 00 00       	nop    DWORD PTR [rax+rax*1+0x0]
    3228:	48 8b 15 01 1f 21 00 	mov    rdx,QWORD PTR [rip+0x211f01]        # 215130 <allocator__Het9ctRSeaVb4hPekZZNCJQ+0x30b0>
    322f:	48 3b 12             	cmp    rdx,QWORD PTR [rdx]
    3232:	0f 84 47 fd ff ff    	je     2f7f <deallocSharedImpl__lmwgHsdhTsrQaepFju8wew+0xcf>
    3238:	4c 3b 5a 10          	cmp    r11,QWORD PTR [rdx+0x10]
    323c:	0f 85 3d fd ff ff    	jne    2f7f <deallocSharedImpl__lmwgHsdhTsrQaepFju8wew+0xcf>
    3242:	48 8b 40 10          	mov    rax,QWORD PTR [rax+0x10]
    3246:	48 89 42 10          	mov    QWORD PTR [rdx+0x10],rax
    324a:	48 8b 05 d7 1e 21 00 	mov    rax,QWORD PTR [rip+0x211ed7]        # 215128 <allocator__Het9ctRSeaVb4hPekZZNCJQ+0x30a8>
    3251:	48 8b 50 18          	mov    rdx,QWORD PTR [rax+0x18]
    3255:	48 8b 05 d4 1e 21 00 	mov    rax,QWORD PTR [rip+0x211ed4]        # 215130 <allocator__Het9ctRSeaVb4hPekZZNCJQ+0x30b0>
    325c:	48 89 50 18          	mov    QWORD PTR [rax+0x18],rdx
    3260:	48 83 3d f0 1e 21 00 	cmp    QWORD PTR [rip+0x211ef0],0x0        # 215158 <allocator__Het9ctRSeaVb4hPekZZNCJQ+0x30d8>
    3267:	00 
    3268:	75 0e                	jne    3278 <deallocSharedImpl__lmwgHsdhTsrQaepFju8wew+0x3c8>
    326a:	4c 89 15 e7 1e 21 00 	mov    QWORD PTR [rip+0x211ee7],r10        # 215158 <allocator__Het9ctRSeaVb4hPekZZNCJQ+0x30d8>
    3271:	4c 89 15 e8 1e 21 00 	mov    QWORD PTR [rip+0x211ee8],r10        # 215160 <allocator__Het9ctRSeaVb4hPekZZNCJQ+0x30e0>
    3278:	48 8b 05 a9 1e 21 00 	mov    rax,QWORD PTR [rip+0x211ea9]        # 215128 <allocator__Het9ctRSeaVb4hPekZZNCJQ+0x30a8>
    327f:	4c 89 15 aa 1e 21 00 	mov    QWORD PTR [rip+0x211eaa],r10        # 215130 <allocator__Het9ctRSeaVb4hPekZZNCJQ+0x30b0>
    3286:	48 8b 15 b3 1e 21 00 	mov    rdx,QWORD PTR [rip+0x211eb3]        # 215140 <allocator__Het9ctRSeaVb4hPekZZNCJQ+0x30c0>
    328d:	48 8b 40 08          	mov    rax,QWORD PTR [rax+0x8]
    3291:	48 89 05 90 1e 21 00 	mov    QWORD PTR [rip+0x211e90],rax        # 215128 <allocator__Het9ctRSeaVb4hPekZZNCJQ+0x30a8>
    3298:	48 8b 05 99 1e 21 00 	mov    rax,QWORD PTR [rip+0x211e99]        # 215138 <allocator__Het9ctRSeaVb4hPekZZNCJQ+0x30b8>
    329f:	48 89 10             	mov    QWORD PTR [rax],rdx
    32a2:	48 89 05 97 1e 21 00 	mov    QWORD PTR [rip+0x211e97],rax        # 215140 <allocator__Het9ctRSeaVb4hPekZZNCJQ+0x30c0>
    32a9:	49 8b 70 08          	mov    rsi,QWORD PTR [r8+0x8]
    32ad:	48 81 fe 00 00 00 3f 	cmp    rsi,0x3f000000
    32b4:	0f 8e e3 fd ff ff    	jle    309d <deallocSharedImpl__lmwgHsdhTsrQaepFju8wew+0x1ed>
    32ba:	e9 29 fe ff ff       	jmp    30e8 <deallocSharedImpl__lmwgHsdhTsrQaepFju8wew+0x238>
    32bf:	90                   	nop
    32c0:	48 89 51 20          	mov    QWORD PTR [rcx+0x20],rdx
    32c4:	48 8b 05 5d 1e 21 00 	mov    rax,QWORD PTR [rip+0x211e5d]        # 215128 <allocator__Het9ctRSeaVb4hPekZZNCJQ+0x30a8>
    32cb:	48 8b 50 20          	mov    rdx,QWORD PTR [rax+0x20]
    32cf:	e9 dd fc ff ff       	jmp    2fb1 <deallocSharedImpl__lmwgHsdhTsrQaepFju8wew+0x101>
    32d4:	0f 1f 40 00          	nop    DWORD PTR [rax+0x0]
    32d8:	48 89 48 08          	mov    QWORD PTR [rax+0x8],rcx
    32dc:	48 8b 09             	mov    rcx,QWORD PTR [rcx]
    32df:	48 89 4a 08          	mov    QWORD PTR [rdx+0x8],rcx
    32e3:	48 8b 48 08          	mov    rcx,QWORD PTR [rax+0x8]
    32e7:	48 89 11             	mov    QWORD PTR [rcx],rdx
    32ea:	48 8b 40 08          	mov    rax,QWORD PTR [rax+0x8]
    32ee:	48 83 40 20 01       	add    QWORD PTR [rax+0x20],0x1
    32f3:	e9 98 fd ff ff       	jmp    3090 <deallocSharedImpl__lmwgHsdhTsrQaepFju8wew+0x1e0>
    32f8:	0f 1f 84 00 00 00 00 	nop    DWORD PTR [rax+rax*1+0x0]
    32ff:	00 
    3300:	48 85 d2             	test   rdx,rdx
    3303:	49 89 14 c1          	mov    QWORD PTR [r9+rax*8],rdx
    3307:	0f 84 d5 fe ff ff    	je     31e2 <deallocSharedImpl__lmwgHsdhTsrQaepFju8wew+0x332>
    330d:	48 c7 42 18 00 00 00 	mov    QWORD PTR [rdx+0x18],0x0
    3314:	00 
    3315:	e9 c8 fe ff ff       	jmp    31e2 <deallocSharedImpl__lmwgHsdhTsrQaepFju8wew+0x332>
    331a:	66 0f 1f 44 00 00    	nop    WORD PTR [rax+rax*1+0x0]

0000000000003320 <deallocShared>:
    3320:	49 89 f8             	mov    r8,rdi
    3323:	48 8b 15 ee 15 21 00 	mov    rdx,QWORD PTR [rip+0x2115ee]        # 214918 <allocator__Het9ctRSeaVb4hPekZZNCJQ+0x2898>
    332a:	4c 8d 0d 4f ed 20 00 	lea    r9,[rip+0x20ed4f]        # 212080 <allocator__Het9ctRSeaVb4hPekZZNCJQ>
    3331:	49 81 e0 00 f0 ff ff 	and    r8,0xfffffffffffff000
    3338:	49 8b 40 08          	mov    rax,QWORD PTR [r8+0x8]
    333c:	48 29 c2             	sub    rdx,rax
    333f:	48 3d c8 0f 00 00    	cmp    rax,0xfc8
    3345:	7f 39                	jg     3380 <deallocShared+0x60>
    3347:	48 89 15 ca 15 21 00 	mov    QWORD PTR [rip+0x2115ca],rdx        # 214918 <allocator__Het9ctRSeaVb4hPekZZNCJQ+0x2898>
    334e:	49 8b 50 20          	mov    rdx,QWORD PTR [r8+0x20]
    3352:	48 89 17             	mov    QWORD PTR [rdi],rdx
    3355:	49 8b 50 28          	mov    rdx,QWORD PTR [r8+0x28]
    3359:	49 89 78 20          	mov    QWORD PTR [r8+0x20],rdi
    335d:	48 39 d0             	cmp    rax,rdx
    3360:	0f 8f ba 01 00 00    	jg     3520 <deallocShared+0x200>
    3366:	48 01 c2             	add    rdx,rax
    3369:	48 81 fa c8 0f 00 00 	cmp    rdx,0xfc8
    3370:	49 89 50 28          	mov    QWORD PTR [r8+0x28],rdx
    3374:	0f 84 9e 02 00 00    	je     3618 <deallocShared+0x2f8>
    337a:	f3 c3                	repz ret 
    337c:	0f 1f 40 00          	nop    DWORD PTR [rax+0x0]
    3380:	48 83 ec 08          	sub    rsp,0x8
    3384:	48 83 3d cc 1d 21 00 	cmp    QWORD PTR [rip+0x211dcc],0x0        # 215158 <allocator__Het9ctRSeaVb4hPekZZNCJQ+0x30d8>
    338b:	00 
    338c:	48 89 15 85 15 21 00 	mov    QWORD PTR [rip+0x211585],rdx        # 214918 <allocator__Het9ctRSeaVb4hPekZZNCJQ+0x2898>
    3393:	4c 8d 15 be 1d 21 00 	lea    r10,[rip+0x211dbe]        # 215158 <allocator__Het9ctRSeaVb4hPekZZNCJQ+0x30d8>
    339a:	0f 84 60 02 00 00    	je     3600 <deallocShared+0x2e0>
    33a0:	48 8b 35 81 1d 21 00 	mov    rsi,QWORD PTR [rip+0x211d81]        # 215128 <allocator__Het9ctRSeaVb4hPekZZNCJQ+0x30a8>
    33a7:	4c 89 15 82 1d 21 00 	mov    QWORD PTR [rip+0x211d82],r10        # 215130 <allocator__Het9ctRSeaVb4hPekZZNCJQ+0x30b0>
    33ae:	48 3b 36             	cmp    rsi,QWORD PTR [rsi]
    33b1:	0f 84 49 01 00 00    	je     3500 <deallocShared+0x1e0>
    33b7:	4d 8d 58 20          	lea    r11,[r8+0x20]
    33bb:	48 89 35 76 1d 21 00 	mov    QWORD PTR [rip+0x211d76],rsi        # 215138 <allocator__Het9ctRSeaVb4hPekZZNCJQ+0x30b8>
    33c2:	4c 3b 5e 10          	cmp    r11,QWORD PTR [rsi+0x10]
    33c6:	0f 83 24 02 00 00    	jae    35f0 <deallocShared+0x2d0>
    33cc:	48 8d 3d ad ec 20 00 	lea    rdi,[rip+0x20ecad]        # 212080 <allocator__Het9ctRSeaVb4hPekZZNCJQ>
    33d3:	4c 89 da             	mov    rdx,r11
    33d6:	e8 f5 ea ff ff       	call   1ed0 <del__Io5JDKCS5u26IEWw0J53hQ>
    33db:	48 8b 05 46 1d 21 00 	mov    rax,QWORD PTR [rip+0x211d46]        # 215128 <allocator__Het9ctRSeaVb4hPekZZNCJQ+0x30a8>
    33e2:	48 3b 05 4f 1d 21 00 	cmp    rax,QWORD PTR [rip+0x211d4f]        # 215138 <allocator__Het9ctRSeaVb4hPekZZNCJQ+0x30b8>
    33e9:	0f 84 a9 02 00 00    	je     3698 <deallocShared+0x378>
    33ef:	48 8b 48 20          	mov    rcx,QWORD PTR [rax+0x20]
    33f3:	48 8d 51 ff          	lea    rdx,[rcx-0x1]
    33f7:	48 8b 08             	mov    rcx,QWORD PTR [rax]
    33fa:	48 39 51 20          	cmp    QWORD PTR [rcx+0x20],rdx
    33fe:	0f 8d 7c 02 00 00    	jge    3680 <deallocShared+0x360>
    3404:	48 89 50 20          	mov    QWORD PTR [rax+0x20],rdx
    3408:	48 8b 05 19 1d 21 00 	mov    rax,QWORD PTR [rip+0x211d19]        # 215128 <allocator__Het9ctRSeaVb4hPekZZNCJQ+0x30a8>
    340f:	48 8b 48 08          	mov    rcx,QWORD PTR [rax+0x8]
    3413:	48 8b 50 20          	mov    rdx,QWORD PTR [rax+0x20]
    3417:	48 3b 51 20          	cmp    rdx,QWORD PTR [rcx+0x20]
    341b:	0f 8c 0f 03 00 00    	jl     3730 <deallocShared+0x410>
    3421:	48 8b 08             	mov    rcx,QWORD PTR [rax]
    3424:	48 39 51 20          	cmp    QWORD PTR [rcx+0x20],rdx
    3428:	75 20                	jne    344a <deallocShared+0x12a>
    342a:	48 89 0d f7 1c 21 00 	mov    QWORD PTR [rip+0x211cf7],rcx        # 215128 <allocator__Het9ctRSeaVb4hPekZZNCJQ+0x30a8>
    3431:	48 8b 51 08          	mov    rdx,QWORD PTR [rcx+0x8]
    3435:	48 89 10             	mov    QWORD PTR [rax],rdx
    3438:	48 8b 15 e9 1c 21 00 	mov    rdx,QWORD PTR [rip+0x211ce9]        # 215128 <allocator__Het9ctRSeaVb4hPekZZNCJQ+0x30a8>
    343f:	48 89 42 08          	mov    QWORD PTR [rdx+0x8],rax
    3443:	48 8b 05 de 1c 21 00 	mov    rax,QWORD PTR [rip+0x211cde]        # 215128 <allocator__Het9ctRSeaVb4hPekZZNCJQ+0x30a8>
    344a:	48 8b 50 08          	mov    rdx,QWORD PTR [rax+0x8]
    344e:	48 8b 0a             	mov    rcx,QWORD PTR [rdx]
    3451:	48 8b 72 20          	mov    rsi,QWORD PTR [rdx+0x20]
    3455:	48 39 71 20          	cmp    QWORD PTR [rcx+0x20],rsi
    3459:	75 1e                	jne    3479 <deallocShared+0x159>
    345b:	48 89 48 08          	mov    QWORD PTR [rax+0x8],rcx
    345f:	48 8b 49 08          	mov    rcx,QWORD PTR [rcx+0x8]
    3463:	48 89 0a             	mov    QWORD PTR [rdx],rcx
    3466:	48 8b 40 08          	mov    rax,QWORD PTR [rax+0x8]
    346a:	48 89 50 08          	mov    QWORD PTR [rax+0x8],rdx
    346e:	48 8b 05 b3 1c 21 00 	mov    rax,QWORD PTR [rip+0x211cb3]        # 215128 <allocator__Het9ctRSeaVb4hPekZZNCJQ+0x30a8>
    3475:	48 8b 50 08          	mov    rdx,QWORD PTR [rax+0x8]
    3479:	48 8b 4a 08          	mov    rcx,QWORD PTR [rdx+0x8]
    347d:	48 8b 39             	mov    rdi,QWORD PTR [rcx]
    3480:	48 8b 71 20          	mov    rsi,QWORD PTR [rcx+0x20]
    3484:	48 39 77 20          	cmp    QWORD PTR [rdi+0x20],rsi
    3488:	75 26                	jne    34b0 <deallocShared+0x190>
    348a:	48 89 7a 08          	mov    QWORD PTR [rdx+0x8],rdi
    348e:	48 8b 47 08          	mov    rax,QWORD PTR [rdi+0x8]
    3492:	48 89 01             	mov    QWORD PTR [rcx],rax
    3495:	48 8b 42 08          	mov    rax,QWORD PTR [rdx+0x8]
    3499:	48 89 48 08          	mov    QWORD PTR [rax+0x8],rcx
    349d:	48 8b 05 84 1c 21 00 	mov    rax,QWORD PTR [rip+0x211c84]        # 215128 <allocator__Het9ctRSeaVb4hPekZZNCJQ+0x30a8>
    34a4:	48 8b 50 08          	mov    rdx,QWORD PTR [rax+0x8]
    34a8:	48 8b 4a 08          	mov    rcx,QWORD PTR [rdx+0x8]
    34ac:	48 8b 71 20          	mov    rsi,QWORD PTR [rcx+0x20]
    34b0:	48 39 70 20          	cmp    QWORD PTR [rax+0x20],rsi
    34b4:	75 33                	jne    34e9 <deallocShared+0x1c9>
    34b6:	48 89 15 6b 1c 21 00 	mov    QWORD PTR [rip+0x211c6b],rdx        # 215128 <allocator__Het9ctRSeaVb4hPekZZNCJQ+0x30a8>
    34bd:	48 8b 12             	mov    rdx,QWORD PTR [rdx]
    34c0:	48 89 50 08          	mov    QWORD PTR [rax+0x8],rdx
    34c4:	48 8b 15 5d 1c 21 00 	mov    rdx,QWORD PTR [rip+0x211c5d]        # 215128 <allocator__Het9ctRSeaVb4hPekZZNCJQ+0x30a8>
    34cb:	48 89 02             	mov    QWORD PTR [rdx],rax
    34ce:	48 8b 05 53 1c 21 00 	mov    rax,QWORD PTR [rip+0x211c53]        # 215128 <allocator__Het9ctRSeaVb4hPekZZNCJQ+0x30a8>
    34d5:	48 83 40 20 01       	add    QWORD PTR [rax+0x20],0x1
    34da:	48 8b 05 47 1c 21 00 	mov    rax,QWORD PTR [rip+0x211c47]        # 215128 <allocator__Het9ctRSeaVb4hPekZZNCJQ+0x30a8>
    34e1:	48 8b 50 08          	mov    rdx,QWORD PTR [rax+0x8]
    34e5:	48 8b 4a 08          	mov    rcx,QWORD PTR [rdx+0x8]
    34e9:	48 8b 71 08          	mov    rsi,QWORD PTR [rcx+0x8]
    34ed:	48 8b 7a 20          	mov    rdi,QWORD PTR [rdx+0x20]
    34f1:	48 39 7e 20          	cmp    QWORD PTR [rsi+0x20],rdi
    34f5:	0f 84 4d 02 00 00    	je     3748 <deallocShared+0x428>
    34fb:	0f 1f 44 00 00       	nop    DWORD PTR [rax+rax*1+0x0]
    3500:	49 8b 70 08          	mov    rsi,QWORD PTR [r8+0x8]
    3504:	48 81 fe 00 00 00 3f 	cmp    rsi,0x3f000000
    350b:	7f 4b                	jg     3558 <deallocShared+0x238>
    350d:	48 8d 3d 6c eb 20 00 	lea    rdi,[rip+0x20eb6c]        # 212080 <allocator__Het9ctRSeaVb4hPekZZNCJQ>
    3514:	4c 89 c6             	mov    rsi,r8
    3517:	48 83 c4 08          	add    rsp,0x8
    351b:	e9 60 e2 ff ff       	jmp    1780 <freeBigChunk__IPvsryqksLyNxxag3IQr2g>
    3520:	48 8d 50 07          	lea    rdx,[rax+0x7]
    3524:	48 85 c0             	test   rax,rax
    3527:	48 0f 49 d0          	cmovns rdx,rax
    352b:	48 c1 fa 03          	sar    rdx,0x3
    352f:	48 83 c2 02          	add    rdx,0x2
    3533:	49 8b 0c d1          	mov    rcx,QWORD PTR [r9+rdx*8]
    3537:	49 89 48 10          	mov    QWORD PTR [r8+0x10],rcx
    353b:	49 8b 0c d1          	mov    rcx,QWORD PTR [r9+rdx*8]
    353f:	48 85 c9             	test   rcx,rcx
    3542:	74 04                	je     3548 <deallocShared+0x228>
    3544:	4c 89 41 18          	mov    QWORD PTR [rcx+0x18],r8
    3548:	4d 89 04 d1          	mov    QWORD PTR [r9+rdx*8],r8
    354c:	49 01 40 28          	add    QWORD PTR [r8+0x28],rax
    3550:	c3                   	ret    
    3551:	0f 1f 80 00 00 00 00 	nop    DWORD PTR [rax+0x0]
    3558:	4c 89 c2             	mov    rdx,r8
    355b:	48 c1 fa 15          	sar    rdx,0x15
    355f:	0f b6 c2             	movzx  eax,dl
    3562:	49 8b 84 c1 a8 28 00 	mov    rax,QWORD PTR [r9+rax*8+0x28a8]
    3569:	00 
    356a:	48 85 c0             	test   rax,rax
    356d:	74 2d                	je     359c <deallocShared+0x27c>
    356f:	48 39 50 08          	cmp    QWORD PTR [rax+0x8],rdx
    3573:	75 69                	jne    35de <deallocShared+0x2be>
    3575:	0f 1f 00             	nop    DWORD PTR [rax]
    3578:	4c 89 c1             	mov    rcx,r8
    357b:	ba 01 00 00 00       	mov    edx,0x1
    3580:	48 c1 f9 0c          	sar    rcx,0xc
    3584:	81 e1 ff 01 00 00    	and    ecx,0x1ff
    358a:	48 89 cf             	mov    rdi,rcx
    358d:	48 d3 e2             	shl    rdx,cl
    3590:	48 c1 ff 06          	sar    rdi,0x6
    3594:	48 f7 d2             	not    rdx
    3597:	48 21 54 f8 10       	and    QWORD PTR [rax+rdi*8+0x10],rdx
    359c:	48 8b 05 5d 13 21 00 	mov    rax,QWORD PTR [rip+0x21135d]        # 214900 <allocator__Het9ctRSeaVb4hPekZZNCJQ+0x2880>
    35a3:	48 39 05 5e 13 21 00 	cmp    QWORD PTR [rip+0x21135e],rax        # 214908 <allocator__Het9ctRSeaVb4hPekZZNCJQ+0x2888>
    35aa:	4c 89 c7             	mov    rdi,r8
    35ad:	48 89 c2             	mov    rdx,rax
    35b0:	48 0f 4d 15 50 13 21 	cmovge rdx,QWORD PTR [rip+0x211350]        # 214908 <allocator__Het9ctRSeaVb4hPekZZNCJQ+0x2888>
    35b7:	00 
    35b8:	48 29 f0             	sub    rax,rsi
    35bb:	48 89 05 3e 13 21 00 	mov    QWORD PTR [rip+0x21133e],rax        # 214900 <allocator__Het9ctRSeaVb4hPekZZNCJQ+0x2880>
    35c2:	48 89 15 3f 13 21 00 	mov    QWORD PTR [rip+0x21133f],rdx        # 214908 <allocator__Het9ctRSeaVb4hPekZZNCJQ+0x2888>
    35c9:	48 83 c4 08          	add    rsp,0x8
    35cd:	e9 0e d4 ff ff       	jmp    9e0 <munmap@plt>
    35d2:	66 0f 1f 44 00 00    	nop    WORD PTR [rax+rax*1+0x0]
    35d8:	48 3b 50 08          	cmp    rdx,QWORD PTR [rax+0x8]
    35dc:	74 9a                	je     3578 <deallocShared+0x258>
    35de:	48 8b 00             	mov    rax,QWORD PTR [rax]
    35e1:	48 85 c0             	test   rax,rax
    35e4:	75 f2                	jne    35d8 <deallocShared+0x2b8>
    35e6:	eb b4                	jmp    359c <deallocShared+0x27c>
    35e8:	0f 1f 84 00 00 00 00 	nop    DWORD PTR [rax+rax*1+0x0]
    35ef:	00 
    35f0:	48 89 35 39 1b 21 00 	mov    QWORD PTR [rip+0x211b39],rsi        # 215130 <allocator__Het9ctRSeaVb4hPekZZNCJQ+0x30b0>
    35f7:	48 83 c6 08          	add    rsi,0x8
    35fb:	e9 cc fd ff ff       	jmp    33cc <deallocShared+0xac>
    3600:	4c 89 15 51 1b 21 00 	mov    QWORD PTR [rip+0x211b51],r10        # 215158 <allocator__Het9ctRSeaVb4hPekZZNCJQ+0x30d8>
    3607:	4c 89 15 52 1b 21 00 	mov    QWORD PTR [rip+0x211b52],r10        # 215160 <allocator__Het9ctRSeaVb4hPekZZNCJQ+0x30e0>
    360e:	e9 8d fd ff ff       	jmp    33a0 <deallocShared+0x80>
    3613:	0f 1f 44 00 00       	nop    DWORD PTR [rax+rax*1+0x0]
    3618:	48 8d 50 07          	lea    rdx,[rax+0x7]
    361c:	48 85 c0             	test   rax,rax
    361f:	48 0f 48 c2          	cmovs  rax,rdx
    3623:	49 8b 50 10          	mov    rdx,QWORD PTR [r8+0x10]
    3627:	48 c1 f8 03          	sar    rax,0x3
    362b:	48 83 c0 02          	add    rax,0x2
    362f:	4d 3b 04 c1          	cmp    r8,QWORD PTR [r9+rax*8]
    3633:	0f 84 37 01 00 00    	je     3770 <deallocShared+0x450>
    3639:	49 8b 40 18          	mov    rax,QWORD PTR [r8+0x18]
    363d:	48 89 50 10          	mov    QWORD PTR [rax+0x10],rdx
    3641:	49 8b 40 10          	mov    rax,QWORD PTR [r8+0x10]
    3645:	48 85 c0             	test   rax,rax
    3648:	74 08                	je     3652 <deallocShared+0x332>
    364a:	49 8b 50 18          	mov    rdx,QWORD PTR [r8+0x18]
    364e:	48 89 50 18          	mov    QWORD PTR [rax+0x18],rdx
    3652:	48 8d 3d 27 ea 20 00 	lea    rdi,[rip+0x20ea27]        # 212080 <allocator__Het9ctRSeaVb4hPekZZNCJQ>
    3659:	49 c7 40 10 00 00 00 	mov    QWORD PTR [r8+0x10],0x0
    3660:	00 
    3661:	49 c7 40 18 00 00 00 	mov    QWORD PTR [r8+0x18],0x0
    3668:	00 
    3669:	49 c7 40 08 00 10 00 	mov    QWORD PTR [r8+0x8],0x1000
    3670:	00 
    3671:	4c 89 c6             	mov    rsi,r8
    3674:	e9 07 e1 ff ff       	jmp    1780 <freeBigChunk__IPvsryqksLyNxxag3IQr2g>
    3679:	0f 1f 80 00 00 00 00 	nop    DWORD PTR [rax+0x0]
    3680:	48 8b 48 08          	mov    rcx,QWORD PTR [rax+0x8]
    3684:	48 3b 51 20          	cmp    rdx,QWORD PTR [rcx+0x20]
    3688:	0f 8e 72 fe ff ff    	jle    3500 <deallocShared+0x1e0>
    368e:	e9 71 fd ff ff       	jmp    3404 <deallocShared+0xe4>
    3693:	0f 1f 44 00 00       	nop    DWORD PTR [rax+rax*1+0x0]
    3698:	48 8b 15 91 1a 21 00 	mov    rdx,QWORD PTR [rip+0x211a91]        # 215130 <allocator__Het9ctRSeaVb4hPekZZNCJQ+0x30b0>
    369f:	48 3b 12             	cmp    rdx,QWORD PTR [rdx]
    36a2:	0f 84 47 fd ff ff    	je     33ef <deallocShared+0xcf>
    36a8:	4c 3b 5a 10          	cmp    r11,QWORD PTR [rdx+0x10]
    36ac:	0f 85 3d fd ff ff    	jne    33ef <deallocShared+0xcf>
    36b2:	48 8b 40 10          	mov    rax,QWORD PTR [rax+0x10]
    36b6:	48 89 42 10          	mov    QWORD PTR [rdx+0x10],rax
    36ba:	48 8b 05 67 1a 21 00 	mov    rax,QWORD PTR [rip+0x211a67]        # 215128 <allocator__Het9ctRSeaVb4hPekZZNCJQ+0x30a8>
    36c1:	48 8b 50 18          	mov    rdx,QWORD PTR [rax+0x18]
    36c5:	48 8b 05 64 1a 21 00 	mov    rax,QWORD PTR [rip+0x211a64]        # 215130 <allocator__Het9ctRSeaVb4hPekZZNCJQ+0x30b0>
    36cc:	48 89 50 18          	mov    QWORD PTR [rax+0x18],rdx
    36d0:	48 83 3d 80 1a 21 00 	cmp    QWORD PTR [rip+0x211a80],0x0        # 215158 <allocator__Het9ctRSeaVb4hPekZZNCJQ+0x30d8>
    36d7:	00 
    36d8:	75 0e                	jne    36e8 <deallocShared+0x3c8>
    36da:	4c 89 15 77 1a 21 00 	mov    QWORD PTR [rip+0x211a77],r10        # 215158 <allocator__Het9ctRSeaVb4hPekZZNCJQ+0x30d8>
    36e1:	4c 89 15 78 1a 21 00 	mov    QWORD PTR [rip+0x211a78],r10        # 215160 <allocator__Het9ctRSeaVb4hPekZZNCJQ+0x30e0>
    36e8:	48 8b 05 39 1a 21 00 	mov    rax,QWORD PTR [rip+0x211a39]        # 215128 <allocator__Het9ctRSeaVb4hPekZZNCJQ+0x30a8>
    36ef:	4c 89 15 3a 1a 21 00 	mov    QWORD PTR [rip+0x211a3a],r10        # 215130 <allocator__Het9ctRSeaVb4hPekZZNCJQ+0x30b0>
    36f6:	48 8b 15 43 1a 21 00 	mov    rdx,QWORD PTR [rip+0x211a43]        # 215140 <allocator__Het9ctRSeaVb4hPekZZNCJQ+0x30c0>
    36fd:	48 8b 40 08          	mov    rax,QWORD PTR [rax+0x8]
    3701:	48 89 05 20 1a 21 00 	mov    QWORD PTR [rip+0x211a20],rax        # 215128 <allocator__Het9ctRSeaVb4hPekZZNCJQ+0x30a8>
    3708:	48 8b 05 29 1a 21 00 	mov    rax,QWORD PTR [rip+0x211a29]        # 215138 <allocator__Het9ctRSeaVb4hPekZZNCJQ+0x30b8>
    370f:	48 89 10             	mov    QWORD PTR [rax],rdx
    3712:	48 89 05 27 1a 21 00 	mov    QWORD PTR [rip+0x211a27],rax        # 215140 <allocator__Het9ctRSeaVb4hPekZZNCJQ+0x30c0>
    3719:	49 8b 70 08          	mov    rsi,QWORD PTR [r8+0x8]
    371d:	48 81 fe 00 00 00 3f 	cmp    rsi,0x3f000000
    3724:	0f 8e e3 fd ff ff    	jle    350d <deallocShared+0x1ed>
    372a:	e9 29 fe ff ff       	jmp    3558 <deallocShared+0x238>
    372f:	90                   	nop
    3730:	48 89 51 20          	mov    QWORD PTR [rcx+0x20],rdx
    3734:	48 8b 05 ed 19 21 00 	mov    rax,QWORD PTR [rip+0x2119ed]        # 215128 <allocator__Het9ctRSeaVb4hPekZZNCJQ+0x30a8>
    373b:	48 8b 50 20          	mov    rdx,QWORD PTR [rax+0x20]
    373f:	e9 dd fc ff ff       	jmp    3421 <deallocShared+0x101>
    3744:	0f 1f 40 00          	nop    DWORD PTR [rax+0x0]
    3748:	48 89 48 08          	mov    QWORD PTR [rax+0x8],rcx
    374c:	48 8b 09             	mov    rcx,QWORD PTR [rcx]
    374f:	48 89 4a 08          	mov    QWORD PTR [rdx+0x8],rcx
    3753:	48 8b 48 08          	mov    rcx,QWORD PTR [rax+0x8]
    3757:	48 89 11             	mov    QWORD PTR [rcx],rdx
    375a:	48 8b 40 08          	mov    rax,QWORD PTR [rax+0x8]
    375e:	48 83 40 20 01       	add    QWORD PTR [rax+0x20],0x1
    3763:	e9 98 fd ff ff       	jmp    3500 <deallocShared+0x1e0>
    3768:	0f 1f 84 00 00 00 00 	nop    DWORD PTR [rax+rax*1+0x0]
    376f:	00 
    3770:	48 85 d2             	test   rdx,rdx
    3773:	49 89 14 c1          	mov    QWORD PTR [r9+rax*8],rdx
    3777:	0f 84 d5 fe ff ff    	je     3652 <deallocShared+0x332>
    377d:	48 c7 42 18 00 00 00 	mov    QWORD PTR [rdx+0x18],0x0
    3784:	00 
    3785:	e9 c8 fe ff ff       	jmp    3652 <deallocShared+0x332>
    378a:	66 0f 1f 44 00 00    	nop    WORD PTR [rax+rax*1+0x0]

0000000000003790 <eqdestroy___dS1BF3Vxjg9aJMmmhVJKSpQ>:
    3790:	48 8b 77 08          	mov    rsi,QWORD PTR [rdi+0x8]
    3794:	48 85 f6             	test   rsi,rsi
    3797:	74 0f                	je     37a8 <eqdestroy___dS1BF3Vxjg9aJMmmhVJKSpQ+0x18>
    3799:	48 b8 00 00 00 00 00 	movabs rax,0x4000000000000000
    37a0:	00 00 40 
    37a3:	48 85 06             	test   QWORD PTR [rsi],rax
    37a6:	74 08                	je     37b0 <eqdestroy___dS1BF3Vxjg9aJMmmhVJKSpQ+0x20>
    37a8:	f3 c3                	repz ret 
    37aa:	66 0f 1f 44 00 00    	nop    WORD PTR [rax+rax*1+0x0]
    37b0:	53                   	push   rbx
    37b1:	48 89 fb             	mov    rbx,rdi
    37b4:	48 8d 3d c5 e8 20 00 	lea    rdi,[rip+0x20e8c5]        # 212080 <allocator__Het9ctRSeaVb4hPekZZNCJQ>
    37bb:	e8 c0 e9 ff ff       	call   2180 <rawDealloc__K7uQ6aTKvW6OnOV8EMoNNQ>
    37c0:	48 c7 43 08 00 00 00 	mov    QWORD PTR [rbx+0x8],0x0
    37c7:	00 
    37c8:	48 c7 03 00 00 00 00 	mov    QWORD PTR [rbx],0x0
    37cf:	5b                   	pop    rbx
    37d0:	c3                   	ret    
    37d1:	0f 1f 44 00 00       	nop    DWORD PTR [rax+rax*1+0x0]
    37d6:	66 2e 0f 1f 84 00 00 	nop    WORD PTR cs:[rax+rax*1+0x0]
    37dd:	00 00 00 

00000000000037e0 <eqsink___aBBXmHFBEivKqERloP6zmA>:
    37e0:	55                   	push   rbp
    37e1:	53                   	push   rbx
    37e2:	48 89 f5             	mov    rbp,rsi
    37e5:	48 89 fb             	mov    rbx,rdi
    37e8:	48 83 ec 18          	sub    rsp,0x18
    37ec:	48 83 3f 00          	cmp    QWORD PTR [rdi],0x0
    37f0:	74 1d                	je     380f <eqsink___aBBXmHFBEivKqERloP6zmA+0x2f>
    37f2:	48 8b 77 08          	mov    rsi,QWORD PTR [rdi+0x8]
    37f6:	48 85 f6             	test   rsi,rsi
    37f9:	74 14                	je     380f <eqsink___aBBXmHFBEivKqERloP6zmA+0x2f>
    37fb:	48 39 d6             	cmp    rsi,rdx
    37fe:	74 0f                	je     380f <eqsink___aBBXmHFBEivKqERloP6zmA+0x2f>
    3800:	48 b8 00 00 00 00 00 	movabs rax,0x4000000000000000
    3807:	00 00 40 
    380a:	48 85 06             	test   QWORD PTR [rsi],rax
    380d:	74 11                	je     3820 <eqsink___aBBXmHFBEivKqERloP6zmA+0x40>
    380f:	48 89 2b             	mov    QWORD PTR [rbx],rbp
    3812:	48 89 53 08          	mov    QWORD PTR [rbx+0x8],rdx
    3816:	48 83 c4 18          	add    rsp,0x18
    381a:	5b                   	pop    rbx
    381b:	5d                   	pop    rbp
    381c:	c3                   	ret    
    381d:	0f 1f 00             	nop    DWORD PTR [rax]
    3820:	48 8d 3d 59 e8 20 00 	lea    rdi,[rip+0x20e859]        # 212080 <allocator__Het9ctRSeaVb4hPekZZNCJQ>
    3827:	48 89 54 24 08       	mov    QWORD PTR [rsp+0x8],rdx
    382c:	e8 4f e9 ff ff       	call   2180 <rawDealloc__K7uQ6aTKvW6OnOV8EMoNNQ>
    3831:	48 8b 54 24 08       	mov    rdx,QWORD PTR [rsp+0x8]
    3836:	eb d7                	jmp    380f <eqsink___aBBXmHFBEivKqERloP6zmA+0x2f>
    3838:	0f 1f 84 00 00 00 00 	nop    DWORD PTR [rax+rax*1+0x0]
    383f:	00 

0000000000003840 <nimRawDispose>:
    3840:	48 8d 4f f8          	lea    rcx,[rdi-0x8]
    3844:	48 8b 15 cd 10 21 00 	mov    rdx,QWORD PTR [rip+0x2110cd]        # 214918 <allocator__Het9ctRSeaVb4hPekZZNCJQ+0x2898>
    384b:	4c 8d 0d 2e e8 20 00 	lea    r9,[rip+0x20e82e]        # 212080 <allocator__Het9ctRSeaVb4hPekZZNCJQ>
    3852:	49 89 c8             	mov    r8,rcx
    3855:	49 81 e0 00 f0 ff ff 	and    r8,0xfffffffffffff000
    385c:	49 8b 40 08          	mov    rax,QWORD PTR [r8+0x8]
    3860:	48 29 c2             	sub    rdx,rax
    3863:	48 3d c8 0f 00 00    	cmp    rax,0xfc8
    3869:	7f 3d                	jg     38a8 <nimRawDispose+0x68>
    386b:	48 89 15 a6 10 21 00 	mov    QWORD PTR [rip+0x2110a6],rdx        # 214918 <allocator__Het9ctRSeaVb4hPekZZNCJQ+0x2898>
    3872:	49 8b 50 20          	mov    rdx,QWORD PTR [r8+0x20]
    3876:	48 89 57 f8          	mov    QWORD PTR [rdi-0x8],rdx
    387a:	49 8b 50 28          	mov    rdx,QWORD PTR [r8+0x28]
    387e:	49 89 48 20          	mov    QWORD PTR [r8+0x20],rcx
    3882:	48 39 d0             	cmp    rax,rdx
    3885:	0f 8f c5 01 00 00    	jg     3a50 <nimRawDispose+0x210>
    388b:	48 01 c2             	add    rdx,rax
    388e:	48 81 fa c8 0f 00 00 	cmp    rdx,0xfc8
    3895:	49 89 50 28          	mov    QWORD PTR [r8+0x28],rdx
    3899:	0f 84 a9 02 00 00    	je     3b48 <nimRawDispose+0x308>
    389f:	f3 c3                	repz ret 
    38a1:	0f 1f 80 00 00 00 00 	nop    DWORD PTR [rax+0x0]
    38a8:	48 83 ec 08          	sub    rsp,0x8
    38ac:	48 83 3d a4 18 21 00 	cmp    QWORD PTR [rip+0x2118a4],0x0        # 215158 <allocator__Het9ctRSeaVb4hPekZZNCJQ+0x30d8>
    38b3:	00 
    38b4:	48 89 15 5d 10 21 00 	mov    QWORD PTR [rip+0x21105d],rdx        # 214918 <allocator__Het9ctRSeaVb4hPekZZNCJQ+0x2898>
    38bb:	4c 8d 15 96 18 21 00 	lea    r10,[rip+0x211896]        # 215158 <allocator__Het9ctRSeaVb4hPekZZNCJQ+0x30d8>
    38c2:	0f 84 68 02 00 00    	je     3b30 <nimRawDispose+0x2f0>
    38c8:	48 8b 35 59 18 21 00 	mov    rsi,QWORD PTR [rip+0x211859]        # 215128 <allocator__Het9ctRSeaVb4hPekZZNCJQ+0x30a8>
    38cf:	4c 89 15 5a 18 21 00 	mov    QWORD PTR [rip+0x21185a],r10        # 215130 <allocator__Het9ctRSeaVb4hPekZZNCJQ+0x30b0>
    38d6:	48 3b 36             	cmp    rsi,QWORD PTR [rsi]
    38d9:	0f 84 49 01 00 00    	je     3a28 <nimRawDispose+0x1e8>
    38df:	4d 8d 58 20          	lea    r11,[r8+0x20]
    38e3:	48 89 35 4e 18 21 00 	mov    QWORD PTR [rip+0x21184e],rsi        # 215138 <allocator__Het9ctRSeaVb4hPekZZNCJQ+0x30b8>
    38ea:	4c 3b 5e 10          	cmp    r11,QWORD PTR [rsi+0x10]
    38ee:	0f 83 2c 02 00 00    	jae    3b20 <nimRawDispose+0x2e0>
    38f4:	48 8d 3d 85 e7 20 00 	lea    rdi,[rip+0x20e785]        # 212080 <allocator__Het9ctRSeaVb4hPekZZNCJQ>
    38fb:	4c 89 da             	mov    rdx,r11
    38fe:	e8 cd e5 ff ff       	call   1ed0 <del__Io5JDKCS5u26IEWw0J53hQ>
    3903:	48 8b 05 1e 18 21 00 	mov    rax,QWORD PTR [rip+0x21181e]        # 215128 <allocator__Het9ctRSeaVb4hPekZZNCJQ+0x30a8>
    390a:	48 3b 05 27 18 21 00 	cmp    rax,QWORD PTR [rip+0x211827]        # 215138 <allocator__Het9ctRSeaVb4hPekZZNCJQ+0x30b8>
    3911:	0f 84 b1 02 00 00    	je     3bc8 <nimRawDispose+0x388>
    3917:	48 8b 78 20          	mov    rdi,QWORD PTR [rax+0x20]
    391b:	48 8b 08             	mov    rcx,QWORD PTR [rax]
    391e:	48 8d 57 ff          	lea    rdx,[rdi-0x1]
    3922:	48 39 51 20          	cmp    QWORD PTR [rcx+0x20],rdx
    3926:	0f 8d 84 02 00 00    	jge    3bb0 <nimRawDispose+0x370>
    392c:	48 89 50 20          	mov    QWORD PTR [rax+0x20],rdx
    3930:	48 8b 05 f1 17 21 00 	mov    rax,QWORD PTR [rip+0x2117f1]        # 215128 <allocator__Het9ctRSeaVb4hPekZZNCJQ+0x30a8>
    3937:	48 8b 48 08          	mov    rcx,QWORD PTR [rax+0x8]
    393b:	48 8b 50 20          	mov    rdx,QWORD PTR [rax+0x20]
    393f:	48 3b 51 20          	cmp    rdx,QWORD PTR [rcx+0x20]
    3943:	0f 8c 17 03 00 00    	jl     3c60 <nimRawDispose+0x420>
    3949:	48 8b 08             	mov    rcx,QWORD PTR [rax]
    394c:	48 39 51 20          	cmp    QWORD PTR [rcx+0x20],rdx
    3950:	75 20                	jne    3972 <nimRawDispose+0x132>
    3952:	48 89 0d cf 17 21 00 	mov    QWORD PTR [rip+0x2117cf],rcx        # 215128 <allocator__Het9ctRSeaVb4hPekZZNCJQ+0x30a8>
    3959:	48 8b 51 08          	mov    rdx,QWORD PTR [rcx+0x8]
    395d:	48 89 10             	mov    QWORD PTR [rax],rdx
    3960:	48 8b 15 c1 17 21 00 	mov    rdx,QWORD PTR [rip+0x2117c1]        # 215128 <allocator__Het9ctRSeaVb4hPekZZNCJQ+0x30a8>
    3967:	48 89 42 08          	mov    QWORD PTR [rdx+0x8],rax
    396b:	48 8b 05 b6 17 21 00 	mov    rax,QWORD PTR [rip+0x2117b6]        # 215128 <allocator__Het9ctRSeaVb4hPekZZNCJQ+0x30a8>
    3972:	48 8b 50 08          	mov    rdx,QWORD PTR [rax+0x8]
    3976:	48 8b 0a             	mov    rcx,QWORD PTR [rdx]
    3979:	48 8b 72 20          	mov    rsi,QWORD PTR [rdx+0x20]
    397d:	48 39 71 20          	cmp    QWORD PTR [rcx+0x20],rsi
    3981:	75 1e                	jne    39a1 <nimRawDispose+0x161>
    3983:	48 89 48 08          	mov    QWORD PTR [rax+0x8],rcx
    3987:	48 8b 49 08          	mov    rcx,QWORD PTR [rcx+0x8]
    398b:	48 89 0a             	mov    QWORD PTR [rdx],rcx
    398e:	48 8b 40 08          	mov    rax,QWORD PTR [rax+0x8]
    3992:	48 89 50 08          	mov    QWORD PTR [rax+0x8],rdx
    3996:	48 8b 05 8b 17 21 00 	mov    rax,QWORD PTR [rip+0x21178b]        # 215128 <allocator__Het9ctRSeaVb4hPekZZNCJQ+0x30a8>
    399d:	48 8b 50 08          	mov    rdx,QWORD PTR [rax+0x8]
    39a1:	48 8b 4a 08          	mov    rcx,QWORD PTR [rdx+0x8]
    39a5:	48 8b 39             	mov    rdi,QWORD PTR [rcx]
    39a8:	48 8b 71 20          	mov    rsi,QWORD PTR [rcx+0x20]
    39ac:	48 39 77 20          	cmp    QWORD PTR [rdi+0x20],rsi
    39b0:	75 26                	jne    39d8 <nimRawDispose+0x198>
    39b2:	48 89 7a 08          	mov    QWORD PTR [rdx+0x8],rdi
    39b6:	48 8b 47 08          	mov    rax,QWORD PTR [rdi+0x8]
    39ba:	48 89 01             	mov    QWORD PTR [rcx],rax
    39bd:	48 8b 42 08          	mov    rax,QWORD PTR [rdx+0x8]
    39c1:	48 89 48 08          	mov    QWORD PTR [rax+0x8],rcx
    39c5:	48 8b 05 5c 17 21 00 	mov    rax,QWORD PTR [rip+0x21175c]        # 215128 <allocator__Het9ctRSeaVb4hPekZZNCJQ+0x30a8>
    39cc:	48 8b 50 08          	mov    rdx,QWORD PTR [rax+0x8]
    39d0:	48 8b 4a 08          	mov    rcx,QWORD PTR [rdx+0x8]
    39d4:	48 8b 71 20          	mov    rsi,QWORD PTR [rcx+0x20]
    39d8:	48 39 70 20          	cmp    QWORD PTR [rax+0x20],rsi
    39dc:	75 33                	jne    3a11 <nimRawDispose+0x1d1>
    39de:	48 89 15 43 17 21 00 	mov    QWORD PTR [rip+0x211743],rdx        # 215128 <allocator__Het9ctRSeaVb4hPekZZNCJQ+0x30a8>
    39e5:	48 8b 12             	mov    rdx,QWORD PTR [rdx]
    39e8:	48 89 50 08          	mov    QWORD PTR [rax+0x8],rdx
    39ec:	48 8b 15 35 17 21 00 	mov    rdx,QWORD PTR [rip+0x211735]        # 215128 <allocator__Het9ctRSeaVb4hPekZZNCJQ+0x30a8>
    39f3:	48 89 02             	mov    QWORD PTR [rdx],rax
    39f6:	48 8b 05 2b 17 21 00 	mov    rax,QWORD PTR [rip+0x21172b]        # 215128 <allocator__Het9ctRSeaVb4hPekZZNCJQ+0x30a8>
    39fd:	48 83 40 20 01       	add    QWORD PTR [rax+0x20],0x1
    3a02:	48 8b 05 1f 17 21 00 	mov    rax,QWORD PTR [rip+0x21171f]        # 215128 <allocator__Het9ctRSeaVb4hPekZZNCJQ+0x30a8>
    3a09:	48 8b 50 08          	mov    rdx,QWORD PTR [rax+0x8]
    3a0d:	48 8b 4a 08          	mov    rcx,QWORD PTR [rdx+0x8]
    3a11:	48 8b 71 08          	mov    rsi,QWORD PTR [rcx+0x8]
    3a15:	48 8b 7a 20          	mov    rdi,QWORD PTR [rdx+0x20]
    3a19:	48 39 7e 20          	cmp    QWORD PTR [rsi+0x20],rdi
    3a1d:	0f 84 55 02 00 00    	je     3c78 <nimRawDispose+0x438>
    3a23:	0f 1f 44 00 00       	nop    DWORD PTR [rax+rax*1+0x0]
    3a28:	49 8b 70 08          	mov    rsi,QWORD PTR [r8+0x8]
    3a2c:	48 81 fe 00 00 00 3f 	cmp    rsi,0x3f000000
    3a33:	7f 53                	jg     3a88 <nimRawDispose+0x248>
    3a35:	48 8d 3d 44 e6 20 00 	lea    rdi,[rip+0x20e644]        # 212080 <allocator__Het9ctRSeaVb4hPekZZNCJQ>
    3a3c:	4c 89 c6             	mov    rsi,r8
    3a3f:	48 83 c4 08          	add    rsp,0x8
    3a43:	e9 38 dd ff ff       	jmp    1780 <freeBigChunk__IPvsryqksLyNxxag3IQr2g>
    3a48:	0f 1f 84 00 00 00 00 	nop    DWORD PTR [rax+rax*1+0x0]
    3a4f:	00 
    3a50:	48 8d 50 07          	lea    rdx,[rax+0x7]
    3a54:	48 85 c0             	test   rax,rax
    3a57:	48 0f 49 d0          	cmovns rdx,rax
    3a5b:	48 c1 fa 03          	sar    rdx,0x3
    3a5f:	48 83 c2 02          	add    rdx,0x2
    3a63:	49 8b 0c d1          	mov    rcx,QWORD PTR [r9+rdx*8]
    3a67:	49 89 48 10          	mov    QWORD PTR [r8+0x10],rcx
    3a6b:	49 8b 0c d1          	mov    rcx,QWORD PTR [r9+rdx*8]
    3a6f:	48 85 c9             	test   rcx,rcx
    3a72:	74 04                	je     3a78 <nimRawDispose+0x238>
    3a74:	4c 89 41 18          	mov    QWORD PTR [rcx+0x18],r8
    3a78:	4d 89 04 d1          	mov    QWORD PTR [r9+rdx*8],r8
    3a7c:	49 01 40 28          	add    QWORD PTR [r8+0x28],rax
    3a80:	c3                   	ret    
    3a81:	0f 1f 80 00 00 00 00 	nop    DWORD PTR [rax+0x0]
    3a88:	4c 89 c2             	mov    rdx,r8
    3a8b:	48 c1 fa 15          	sar    rdx,0x15
    3a8f:	0f b6 c2             	movzx  eax,dl
    3a92:	49 8b 84 c1 a8 28 00 	mov    rax,QWORD PTR [r9+rax*8+0x28a8]
    3a99:	00 
    3a9a:	48 85 c0             	test   rax,rax
    3a9d:	74 2d                	je     3acc <nimRawDispose+0x28c>
    3a9f:	48 39 50 08          	cmp    QWORD PTR [rax+0x8],rdx
    3aa3:	75 69                	jne    3b0e <nimRawDispose+0x2ce>
    3aa5:	0f 1f 00             	nop    DWORD PTR [rax]
    3aa8:	4c 89 c1             	mov    rcx,r8
    3aab:	ba 01 00 00 00       	mov    edx,0x1
    3ab0:	48 c1 f9 0c          	sar    rcx,0xc
    3ab4:	81 e1 ff 01 00 00    	and    ecx,0x1ff
    3aba:	48 89 cf             	mov    rdi,rcx
    3abd:	48 d3 e2             	shl    rdx,cl
    3ac0:	48 c1 ff 06          	sar    rdi,0x6
    3ac4:	48 f7 d2             	not    rdx
    3ac7:	48 21 54 f8 10       	and    QWORD PTR [rax+rdi*8+0x10],rdx
    3acc:	48 8b 05 2d 0e 21 00 	mov    rax,QWORD PTR [rip+0x210e2d]        # 214900 <allocator__Het9ctRSeaVb4hPekZZNCJQ+0x2880>
    3ad3:	48 39 05 2e 0e 21 00 	cmp    QWORD PTR [rip+0x210e2e],rax        # 214908 <allocator__Het9ctRSeaVb4hPekZZNCJQ+0x2888>
    3ada:	4c 89 c7             	mov    rdi,r8
    3add:	48 89 c2             	mov    rdx,rax
    3ae0:	48 0f 4d 15 20 0e 21 	cmovge rdx,QWORD PTR [rip+0x210e20]        # 214908 <allocator__Het9ctRSeaVb4hPekZZNCJQ+0x2888>
    3ae7:	00 
    3ae8:	48 29 f0             	sub    rax,rsi
    3aeb:	48 89 05 0e 0e 21 00 	mov    QWORD PTR [rip+0x210e0e],rax        # 214900 <allocator__Het9ctRSeaVb4hPekZZNCJQ+0x2880>
    3af2:	48 89 15 0f 0e 21 00 	mov    QWORD PTR [rip+0x210e0f],rdx        # 214908 <allocator__Het9ctRSeaVb4hPekZZNCJQ+0x2888>
    3af9:	48 83 c4 08          	add    rsp,0x8
    3afd:	e9 de ce ff ff       	jmp    9e0 <munmap@plt>
    3b02:	66 0f 1f 44 00 00    	nop    WORD PTR [rax+rax*1+0x0]
    3b08:	48 3b 50 08          	cmp    rdx,QWORD PTR [rax+0x8]
    3b0c:	74 9a                	je     3aa8 <nimRawDispose+0x268>
    3b0e:	48 8b 00             	mov    rax,QWORD PTR [rax]
    3b11:	48 85 c0             	test   rax,rax
    3b14:	75 f2                	jne    3b08 <nimRawDispose+0x2c8>
    3b16:	eb b4                	jmp    3acc <nimRawDispose+0x28c>
    3b18:	0f 1f 84 00 00 00 00 	nop    DWORD PTR [rax+rax*1+0x0]
    3b1f:	00 
    3b20:	48 89 35 09 16 21 00 	mov    QWORD PTR [rip+0x211609],rsi        # 215130 <allocator__Het9ctRSeaVb4hPekZZNCJQ+0x30b0>
    3b27:	48 83 c6 08          	add    rsi,0x8
    3b2b:	e9 c4 fd ff ff       	jmp    38f4 <nimRawDispose+0xb4>
    3b30:	4c 89 15 21 16 21 00 	mov    QWORD PTR [rip+0x211621],r10        # 215158 <allocator__Het9ctRSeaVb4hPekZZNCJQ+0x30d8>
    3b37:	4c 89 15 22 16 21 00 	mov    QWORD PTR [rip+0x211622],r10        # 215160 <allocator__Het9ctRSeaVb4hPekZZNCJQ+0x30e0>
    3b3e:	e9 85 fd ff ff       	jmp    38c8 <nimRawDispose+0x88>
    3b43:	0f 1f 44 00 00       	nop    DWORD PTR [rax+rax*1+0x0]
    3b48:	48 8d 50 07          	lea    rdx,[rax+0x7]
    3b4c:	48 85 c0             	test   rax,rax
    3b4f:	48 0f 48 c2          	cmovs  rax,rdx
    3b53:	49 8b 50 10          	mov    rdx,QWORD PTR [r8+0x10]
    3b57:	48 c1 f8 03          	sar    rax,0x3
    3b5b:	48 83 c0 02          	add    rax,0x2
    3b5f:	4d 3b 04 c1          	cmp    r8,QWORD PTR [r9+rax*8]
    3b63:	0f 84 37 01 00 00    	je     3ca0 <nimRawDispose+0x460>
    3b69:	49 8b 40 18          	mov    rax,QWORD PTR [r8+0x18]
    3b6d:	48 89 50 10          	mov    QWORD PTR [rax+0x10],rdx
    3b71:	49 8b 40 10          	mov    rax,QWORD PTR [r8+0x10]
    3b75:	48 85 c0             	test   rax,rax
    3b78:	74 08                	je     3b82 <nimRawDispose+0x342>
    3b7a:	49 8b 50 18          	mov    rdx,QWORD PTR [r8+0x18]
    3b7e:	48 89 50 18          	mov    QWORD PTR [rax+0x18],rdx
    3b82:	48 8d 3d f7 e4 20 00 	lea    rdi,[rip+0x20e4f7]        # 212080 <allocator__Het9ctRSeaVb4hPekZZNCJQ>
    3b89:	49 c7 40 10 00 00 00 	mov    QWORD PTR [r8+0x10],0x0
    3b90:	00 
    3b91:	49 c7 40 18 00 00 00 	mov    QWORD PTR [r8+0x18],0x0
    3b98:	00 
    3b99:	49 c7 40 08 00 10 00 	mov    QWORD PTR [r8+0x8],0x1000
    3ba0:	00 
    3ba1:	4c 89 c6             	mov    rsi,r8
    3ba4:	e9 d7 db ff ff       	jmp    1780 <freeBigChunk__IPvsryqksLyNxxag3IQr2g>
    3ba9:	0f 1f 80 00 00 00 00 	nop    DWORD PTR [rax+0x0]
    3bb0:	48 8b 48 08          	mov    rcx,QWORD PTR [rax+0x8]
    3bb4:	48 3b 51 20          	cmp    rdx,QWORD PTR [rcx+0x20]
    3bb8:	0f 8e 6a fe ff ff    	jle    3a28 <nimRawDispose+0x1e8>
    3bbe:	e9 69 fd ff ff       	jmp    392c <nimRawDispose+0xec>
    3bc3:	0f 1f 44 00 00       	nop    DWORD PTR [rax+rax*1+0x0]
    3bc8:	48 8b 15 61 15 21 00 	mov    rdx,QWORD PTR [rip+0x211561]        # 215130 <allocator__Het9ctRSeaVb4hPekZZNCJQ+0x30b0>
    3bcf:	48 3b 12             	cmp    rdx,QWORD PTR [rdx]
    3bd2:	0f 84 3f fd ff ff    	je     3917 <nimRawDispose+0xd7>
    3bd8:	4c 3b 5a 10          	cmp    r11,QWORD PTR [rdx+0x10]
    3bdc:	0f 85 35 fd ff ff    	jne    3917 <nimRawDispose+0xd7>
    3be2:	48 8b 40 10          	mov    rax,QWORD PTR [rax+0x10]
    3be6:	48 89 42 10          	mov    QWORD PTR [rdx+0x10],rax
    3bea:	48 8b 05 37 15 21 00 	mov    rax,QWORD PTR [rip+0x211537]        # 215128 <allocator__Het9ctRSeaVb4hPekZZNCJQ+0x30a8>
    3bf1:	48 8b 50 18          	mov    rdx,QWORD PTR [rax+0x18]
    3bf5:	48 8b 05 34 15 21 00 	mov    rax,QWORD PTR [rip+0x211534]        # 215130 <allocator__Het9ctRSeaVb4hPekZZNCJQ+0x30b0>
    3bfc:	48 89 50 18          	mov    QWORD PTR [rax+0x18],rdx
    3c00:	48 83 3d 50 15 21 00 	cmp    QWORD PTR [rip+0x211550],0x0        # 215158 <allocator__Het9ctRSeaVb4hPekZZNCJQ+0x30d8>
    3c07:	00 
    3c08:	75 0e                	jne    3c18 <nimRawDispose+0x3d8>
    3c0a:	4c 89 15 47 15 21 00 	mov    QWORD PTR [rip+0x211547],r10        # 215158 <allocator__Het9ctRSeaVb4hPekZZNCJQ+0x30d8>
    3c11:	4c 89 15 48 15 21 00 	mov    QWORD PTR [rip+0x211548],r10        # 215160 <allocator__Het9ctRSeaVb4hPekZZNCJQ+0x30e0>
    3c18:	48 8b 05 09 15 21 00 	mov    rax,QWORD PTR [rip+0x211509]        # 215128 <allocator__Het9ctRSeaVb4hPekZZNCJQ+0x30a8>
    3c1f:	4c 89 15 0a 15 21 00 	mov    QWORD PTR [rip+0x21150a],r10        # 215130 <allocator__Het9ctRSeaVb4hPekZZNCJQ+0x30b0>
    3c26:	48 8b 15 13 15 21 00 	mov    rdx,QWORD PTR [rip+0x211513]        # 215140 <allocator__Het9ctRSeaVb4hPekZZNCJQ+0x30c0>
    3c2d:	48 8b 40 08          	mov    rax,QWORD PTR [rax+0x8]
    3c31:	48 89 05 f0 14 21 00 	mov    QWORD PTR [rip+0x2114f0],rax        # 215128 <allocator__Het9ctRSeaVb4hPekZZNCJQ+0x30a8>
    3c38:	48 8b 05 f9 14 21 00 	mov    rax,QWORD PTR [rip+0x2114f9]        # 215138 <allocator__Het9ctRSeaVb4hPekZZNCJQ+0x30b8>
    3c3f:	48 89 10             	mov    QWORD PTR [rax],rdx
    3c42:	48 89 05 f7 14 21 00 	mov    QWORD PTR [rip+0x2114f7],rax        # 215140 <allocator__Het9ctRSeaVb4hPekZZNCJQ+0x30c0>
    3c49:	49 8b 70 08          	mov    rsi,QWORD PTR [r8+0x8]
    3c4d:	48 81 fe 00 00 00 3f 	cmp    rsi,0x3f000000
    3c54:	0f 8e db fd ff ff    	jle    3a35 <nimRawDispose+0x1f5>
    3c5a:	e9 29 fe ff ff       	jmp    3a88 <nimRawDispose+0x248>
    3c5f:	90                   	nop
    3c60:	48 89 51 20          	mov    QWORD PTR [rcx+0x20],rdx
    3c64:	48 8b 05 bd 14 21 00 	mov    rax,QWORD PTR [rip+0x2114bd]        # 215128 <allocator__Het9ctRSeaVb4hPekZZNCJQ+0x30a8>
    3c6b:	48 8b 50 20          	mov    rdx,QWORD PTR [rax+0x20]
    3c6f:	e9 d5 fc ff ff       	jmp    3949 <nimRawDispose+0x109>
    3c74:	0f 1f 40 00          	nop    DWORD PTR [rax+0x0]
    3c78:	48 89 48 08          	mov    QWORD PTR [rax+0x8],rcx
    3c7c:	48 8b 09             	mov    rcx,QWORD PTR [rcx]
    3c7f:	48 89 4a 08          	mov    QWORD PTR [rdx+0x8],rcx
    3c83:	48 8b 48 08          	mov    rcx,QWORD PTR [rax+0x8]
    3c87:	48 89 11             	mov    QWORD PTR [rcx],rdx
    3c8a:	48 8b 40 08          	mov    rax,QWORD PTR [rax+0x8]
    3c8e:	48 83 40 20 01       	add    QWORD PTR [rax+0x20],0x1
    3c93:	e9 90 fd ff ff       	jmp    3a28 <nimRawDispose+0x1e8>
    3c98:	0f 1f 84 00 00 00 00 	nop    DWORD PTR [rax+rax*1+0x0]
    3c9f:	00 
    3ca0:	48 85 d2             	test   rdx,rdx
    3ca3:	49 89 14 c1          	mov    QWORD PTR [r9+rax*8],rdx
    3ca7:	0f 84 d5 fe ff ff    	je     3b82 <nimRawDispose+0x342>
    3cad:	48 c7 42 18 00 00 00 	mov    QWORD PTR [rdx+0x18],0x0
    3cb4:	00 
    3cb5:	e9 c8 fe ff ff       	jmp    3b82 <nimRawDispose+0x342>
    3cba:	66 0f 1f 44 00 00    	nop    WORD PTR [rax+rax*1+0x0]

0000000000003cc0 <nimDestroyAndDispose>:
    3cc0:	53                   	push   rbx
    3cc1:	48 8b 07             	mov    rax,QWORD PTR [rdi]
    3cc4:	48 89 fb             	mov    rbx,rdi
    3cc7:	48 8b 00             	mov    rax,QWORD PTR [rax]
    3cca:	48 85 c0             	test   rax,rax
    3ccd:	74 10                	je     3cdf <nimDestroyAndDispose+0x1f>
    3ccf:	ff d0                	call   rax
    3cd1:	48 83 3d 37 17 21 00 	cmp    QWORD PTR [rip+0x211737],0x0        # 215410 <nimInErrorMode__759bT87luu8XGcbkw13FUjA>
    3cd8:	00 
    3cd9:	0f 85 1d 02 00 00    	jne    3efc <nimDestroyAndDispose+0x23c>
    3cdf:	48 8d 4b f8          	lea    rcx,[rbx-0x8]
    3ce3:	48 8b 15 2e 0c 21 00 	mov    rdx,QWORD PTR [rip+0x210c2e]        # 214918 <allocator__Het9ctRSeaVb4hPekZZNCJQ+0x2898>
    3cea:	4c 8d 0d 8f e3 20 00 	lea    r9,[rip+0x20e38f]        # 212080 <allocator__Het9ctRSeaVb4hPekZZNCJQ>
    3cf1:	49 89 c8             	mov    r8,rcx
    3cf4:	49 81 e0 00 f0 ff ff 	and    r8,0xfffffffffffff000
    3cfb:	49 8b 40 08          	mov    rax,QWORD PTR [r8+0x8]
    3cff:	48 29 c2             	sub    rdx,rax
    3d02:	48 3d c8 0f 00 00    	cmp    rax,0xfc8
    3d08:	0f 8e a2 01 00 00    	jle    3eb0 <nimDestroyAndDispose+0x1f0>
    3d0e:	48 83 3d 42 14 21 00 	cmp    QWORD PTR [rip+0x211442],0x0        # 215158 <allocator__Het9ctRSeaVb4hPekZZNCJQ+0x30d8>
    3d15:	00 
    3d16:	48 89 15 fb 0b 21 00 	mov    QWORD PTR [rip+0x210bfb],rdx        # 214918 <allocator__Het9ctRSeaVb4hPekZZNCJQ+0x2898>
    3d1d:	4c 8d 15 34 14 21 00 	lea    r10,[rip+0x211434]        # 215158 <allocator__Het9ctRSeaVb4hPekZZNCJQ+0x30d8>
    3d24:	0f 84 1e 03 00 00    	je     4048 <nimDestroyAndDispose+0x388>
    3d2a:	48 8b 35 f7 13 21 00 	mov    rsi,QWORD PTR [rip+0x2113f7]        # 215128 <allocator__Het9ctRSeaVb4hPekZZNCJQ+0x30a8>
    3d31:	4c 89 15 f8 13 21 00 	mov    QWORD PTR [rip+0x2113f8],r10        # 215130 <allocator__Het9ctRSeaVb4hPekZZNCJQ+0x30b0>
    3d38:	48 3b 36             	cmp    rsi,QWORD PTR [rsi]
    3d3b:	0f 84 47 01 00 00    	je     3e88 <nimDestroyAndDispose+0x1c8>
    3d41:	4d 8d 58 20          	lea    r11,[r8+0x20]
    3d45:	48 89 35 ec 13 21 00 	mov    QWORD PTR [rip+0x2113ec],rsi        # 215138 <allocator__Het9ctRSeaVb4hPekZZNCJQ+0x30b8>
    3d4c:	4c 3b 5e 10          	cmp    r11,QWORD PTR [rsi+0x10]
    3d50:	0f 83 92 02 00 00    	jae    3fe8 <nimDestroyAndDispose+0x328>
    3d56:	48 8d 3d 23 e3 20 00 	lea    rdi,[rip+0x20e323]        # 212080 <allocator__Het9ctRSeaVb4hPekZZNCJQ>
    3d5d:	4c 89 da             	mov    rdx,r11
    3d60:	e8 6b e1 ff ff       	call   1ed0 <del__Io5JDKCS5u26IEWw0J53hQ>
    3d65:	48 8b 05 bc 13 21 00 	mov    rax,QWORD PTR [rip+0x2113bc]        # 215128 <allocator__Het9ctRSeaVb4hPekZZNCJQ+0x30a8>
    3d6c:	48 3b 05 c5 13 21 00 	cmp    rax,QWORD PTR [rip+0x2113c5]        # 215138 <allocator__Het9ctRSeaVb4hPekZZNCJQ+0x30b8>
    3d73:	0f 84 e7 02 00 00    	je     4060 <nimDestroyAndDispose+0x3a0>
    3d79:	48 8b 78 20          	mov    rdi,QWORD PTR [rax+0x20]
    3d7d:	48 8b 08             	mov    rcx,QWORD PTR [rax]
    3d80:	48 8d 57 ff          	lea    rdx,[rdi-0x1]
    3d84:	48 39 51 20          	cmp    QWORD PTR [rcx+0x20],rdx
    3d88:	0f 8d 72 02 00 00    	jge    4000 <nimDestroyAndDispose+0x340>
    3d8e:	48 89 50 20          	mov    QWORD PTR [rax+0x20],rdx
    3d92:	48 8b 05 8f 13 21 00 	mov    rax,QWORD PTR [rip+0x21138f]        # 215128 <allocator__Het9ctRSeaVb4hPekZZNCJQ+0x30a8>
    3d99:	48 8b 48 08          	mov    rcx,QWORD PTR [rax+0x8]
    3d9d:	48 8b 50 20          	mov    rdx,QWORD PTR [rax+0x20]
    3da1:	48 3b 51 20          	cmp    rdx,QWORD PTR [rcx+0x20]
    3da5:	0f 8c 45 03 00 00    	jl     40f0 <nimDestroyAndDispose+0x430>
    3dab:	48 8b 08             	mov    rcx,QWORD PTR [rax]
    3dae:	48 39 51 20          	cmp    QWORD PTR [rcx+0x20],rdx
    3db2:	75 20                	jne    3dd4 <nimDestroyAndDispose+0x114>
    3db4:	48 89 0d 6d 13 21 00 	mov    QWORD PTR [rip+0x21136d],rcx        # 215128 <allocator__Het9ctRSeaVb4hPekZZNCJQ+0x30a8>
    3dbb:	48 8b 51 08          	mov    rdx,QWORD PTR [rcx+0x8]
    3dbf:	48 89 10             	mov    QWORD PTR [rax],rdx
    3dc2:	48 8b 15 5f 13 21 00 	mov    rdx,QWORD PTR [rip+0x21135f]        # 215128 <allocator__Het9ctRSeaVb4hPekZZNCJQ+0x30a8>
    3dc9:	48 89 42 08          	mov    QWORD PTR [rdx+0x8],rax
    3dcd:	48 8b 05 54 13 21 00 	mov    rax,QWORD PTR [rip+0x211354]        # 215128 <allocator__Het9ctRSeaVb4hPekZZNCJQ+0x30a8>
    3dd4:	48 8b 50 08          	mov    rdx,QWORD PTR [rax+0x8]
    3dd8:	48 8b 0a             	mov    rcx,QWORD PTR [rdx]
    3ddb:	48 8b 7a 20          	mov    rdi,QWORD PTR [rdx+0x20]
    3ddf:	48 39 79 20          	cmp    QWORD PTR [rcx+0x20],rdi
    3de3:	75 1e                	jne    3e03 <nimDestroyAndDispose+0x143>
    3de5:	48 89 48 08          	mov    QWORD PTR [rax+0x8],rcx
    3de9:	48 8b 49 08          	mov    rcx,QWORD PTR [rcx+0x8]
    3ded:	48 89 0a             	mov    QWORD PTR [rdx],rcx
    3df0:	48 8b 40 08          	mov    rax,QWORD PTR [rax+0x8]
    3df4:	48 89 50 08          	mov    QWORD PTR [rax+0x8],rdx
    3df8:	48 8b 05 29 13 21 00 	mov    rax,QWORD PTR [rip+0x211329]        # 215128 <allocator__Het9ctRSeaVb4hPekZZNCJQ+0x30a8>
    3dff:	48 8b 50 08          	mov    rdx,QWORD PTR [rax+0x8]
    3e03:	48 8b 4a 08          	mov    rcx,QWORD PTR [rdx+0x8]
    3e07:	48 8b 39             	mov    rdi,QWORD PTR [rcx]
    3e0a:	48 8b 71 20          	mov    rsi,QWORD PTR [rcx+0x20]
    3e0e:	48 39 77 20          	cmp    QWORD PTR [rdi+0x20],rsi
    3e12:	75 26                	jne    3e3a <nimDestroyAndDispose+0x17a>
    3e14:	48 89 7a 08          	mov    QWORD PTR [rdx+0x8],rdi
    3e18:	48 8b 47 08          	mov    rax,QWORD PTR [rdi+0x8]
    3e1c:	48 89 01             	mov    QWORD PTR [rcx],rax
    3e1f:	48 8b 42 08          	mov    rax,QWORD PTR [rdx+0x8]
    3e23:	48 89 48 08          	mov    QWORD PTR [rax+0x8],rcx
    3e27:	48 8b 05 fa 12 21 00 	mov    rax,QWORD PTR [rip+0x2112fa]        # 215128 <allocator__Het9ctRSeaVb4hPekZZNCJQ+0x30a8>
    3e2e:	48 8b 50 08          	mov    rdx,QWORD PTR [rax+0x8]
    3e32:	48 8b 4a 08          	mov    rcx,QWORD PTR [rdx+0x8]
    3e36:	48 8b 71 20          	mov    rsi,QWORD PTR [rcx+0x20]
    3e3a:	48 39 70 20          	cmp    QWORD PTR [rax+0x20],rsi
    3e3e:	75 33                	jne    3e73 <nimDestroyAndDispose+0x1b3>
    3e40:	48 89 15 e1 12 21 00 	mov    QWORD PTR [rip+0x2112e1],rdx        # 215128 <allocator__Het9ctRSeaVb4hPekZZNCJQ+0x30a8>
    3e47:	48 8b 12             	mov    rdx,QWORD PTR [rdx]
    3e4a:	48 89 50 08          	mov    QWORD PTR [rax+0x8],rdx
    3e4e:	48 8b 15 d3 12 21 00 	mov    rdx,QWORD PTR [rip+0x2112d3]        # 215128 <allocator__Het9ctRSeaVb4hPekZZNCJQ+0x30a8>
    3e55:	48 89 02             	mov    QWORD PTR [rdx],rax
    3e58:	48 8b 05 c9 12 21 00 	mov    rax,QWORD PTR [rip+0x2112c9]        # 215128 <allocator__Het9ctRSeaVb4hPekZZNCJQ+0x30a8>
    3e5f:	48 83 40 20 01       	add    QWORD PTR [rax+0x20],0x1
    3e64:	48 8b 05 bd 12 21 00 	mov    rax,QWORD PTR [rip+0x2112bd]        # 215128 <allocator__Het9ctRSeaVb4hPekZZNCJQ+0x30a8>
    3e6b:	48 8b 50 08          	mov    rdx,QWORD PTR [rax+0x8]
    3e6f:	48 8b 4a 08          	mov    rcx,QWORD PTR [rdx+0x8]
    3e73:	48 8b 71 08          	mov    rsi,QWORD PTR [rcx+0x8]
    3e77:	48 8b 5a 20          	mov    rbx,QWORD PTR [rdx+0x20]
    3e7b:	48 39 5e 20          	cmp    QWORD PTR [rsi+0x20],rbx
    3e7f:	0f 84 83 02 00 00    	je     4108 <nimDestroyAndDispose+0x448>
    3e85:	0f 1f 00             	nop    DWORD PTR [rax]
    3e88:	49 8b 70 08          	mov    rsi,QWORD PTR [r8+0x8]
    3e8c:	48 81 fe 00 00 00 3f 	cmp    rsi,0x3f000000
    3e93:	0f 8f df 00 00 00    	jg     3f78 <nimDestroyAndDispose+0x2b8>
    3e99:	5b                   	pop    rbx
    3e9a:	48 8d 3d df e1 20 00 	lea    rdi,[rip+0x20e1df]        # 212080 <allocator__Het9ctRSeaVb4hPekZZNCJQ>
    3ea1:	4c 89 c6             	mov    rsi,r8
    3ea4:	e9 d7 d8 ff ff       	jmp    1780 <freeBigChunk__IPvsryqksLyNxxag3IQr2g>
    3ea9:	0f 1f 80 00 00 00 00 	nop    DWORD PTR [rax+0x0]
    3eb0:	48 89 15 61 0a 21 00 	mov    QWORD PTR [rip+0x210a61],rdx        # 214918 <allocator__Het9ctRSeaVb4hPekZZNCJQ+0x2898>
    3eb7:	49 8b 50 20          	mov    rdx,QWORD PTR [r8+0x20]
    3ebb:	48 89 53 f8          	mov    QWORD PTR [rbx-0x8],rdx
    3ebf:	49 8b 50 28          	mov    rdx,QWORD PTR [r8+0x28]
    3ec3:	49 89 48 20          	mov    QWORD PTR [r8+0x20],rcx
    3ec7:	48 39 d0             	cmp    rax,rdx
    3eca:	7e 34                	jle    3f00 <nimDestroyAndDispose+0x240>
    3ecc:	48 8d 50 07          	lea    rdx,[rax+0x7]
    3ed0:	48 85 c0             	test   rax,rax
    3ed3:	48 0f 49 d0          	cmovns rdx,rax
    3ed7:	48 c1 fa 03          	sar    rdx,0x3
    3edb:	48 83 c2 02          	add    rdx,0x2
    3edf:	49 8b 0c d1          	mov    rcx,QWORD PTR [r9+rdx*8]
    3ee3:	49 89 48 10          	mov    QWORD PTR [r8+0x10],rcx
    3ee7:	49 8b 0c d1          	mov    rcx,QWORD PTR [r9+rdx*8]
    3eeb:	48 85 c9             	test   rcx,rcx
    3eee:	74 04                	je     3ef4 <nimDestroyAndDispose+0x234>
    3ef0:	4c 89 41 18          	mov    QWORD PTR [rcx+0x18],r8
    3ef4:	4d 89 04 d1          	mov    QWORD PTR [r9+rdx*8],r8
    3ef8:	49 01 40 28          	add    QWORD PTR [r8+0x28],rax
    3efc:	5b                   	pop    rbx
    3efd:	c3                   	ret    
    3efe:	66 90                	xchg   ax,ax
    3f00:	48 01 c2             	add    rdx,rax
    3f03:	48 81 fa c8 0f 00 00 	cmp    rdx,0xfc8
    3f0a:	49 89 50 28          	mov    QWORD PTR [r8+0x28],rdx
    3f0e:	75 ec                	jne    3efc <nimDestroyAndDispose+0x23c>
    3f10:	48 8d 50 07          	lea    rdx,[rax+0x7]
    3f14:	48 85 c0             	test   rax,rax
    3f17:	48 0f 48 c2          	cmovs  rax,rdx
    3f1b:	49 8b 50 10          	mov    rdx,QWORD PTR [r8+0x10]
    3f1f:	48 c1 f8 03          	sar    rax,0x3
    3f23:	48 83 c0 02          	add    rax,0x2
    3f27:	4d 3b 04 c1          	cmp    r8,QWORD PTR [r9+rax*8]
    3f2b:	0f 84 ff 01 00 00    	je     4130 <nimDestroyAndDispose+0x470>
    3f31:	49 8b 40 18          	mov    rax,QWORD PTR [r8+0x18]
    3f35:	48 89 50 10          	mov    QWORD PTR [rax+0x10],rdx
    3f39:	49 8b 40 10          	mov    rax,QWORD PTR [r8+0x10]
    3f3d:	48 85 c0             	test   rax,rax
    3f40:	74 08                	je     3f4a <nimDestroyAndDispose+0x28a>
    3f42:	49 8b 50 18          	mov    rdx,QWORD PTR [r8+0x18]
    3f46:	48 89 50 18          	mov    QWORD PTR [rax+0x18],rdx
    3f4a:	49 c7 40 10 00 00 00 	mov    QWORD PTR [r8+0x10],0x0
    3f51:	00 
    3f52:	49 c7 40 18 00 00 00 	mov    QWORD PTR [r8+0x18],0x0
    3f59:	00 
    3f5a:	48 8d 3d 1f e1 20 00 	lea    rdi,[rip+0x20e11f]        # 212080 <allocator__Het9ctRSeaVb4hPekZZNCJQ>
    3f61:	49 c7 40 08 00 10 00 	mov    QWORD PTR [r8+0x8],0x1000
    3f68:	00 
    3f69:	4c 89 c6             	mov    rsi,r8
    3f6c:	5b                   	pop    rbx
    3f6d:	e9 0e d8 ff ff       	jmp    1780 <freeBigChunk__IPvsryqksLyNxxag3IQr2g>
    3f72:	66 0f 1f 44 00 00    	nop    WORD PTR [rax+rax*1+0x0]
    3f78:	4c 89 c2             	mov    rdx,r8
    3f7b:	48 c1 fa 15          	sar    rdx,0x15
    3f7f:	0f b6 c2             	movzx  eax,dl
    3f82:	49 8b 84 c1 a8 28 00 	mov    rax,QWORD PTR [r9+rax*8+0x28a8]
    3f89:	00 
    3f8a:	48 85 c0             	test   rax,rax
    3f8d:	74 1f                	je     3fae <nimDestroyAndDispose+0x2ee>
    3f8f:	48 39 50 08          	cmp    QWORD PTR [rax+0x8],rdx
    3f93:	75 11                	jne    3fa6 <nimDestroyAndDispose+0x2e6>
    3f95:	e9 7e 00 00 00       	jmp    4018 <nimDestroyAndDispose+0x358>
    3f9a:	66 0f 1f 44 00 00    	nop    WORD PTR [rax+rax*1+0x0]
    3fa0:	48 3b 50 08          	cmp    rdx,QWORD PTR [rax+0x8]
    3fa4:	74 72                	je     4018 <nimDestroyAndDispose+0x358>
    3fa6:	48 8b 00             	mov    rax,QWORD PTR [rax]
    3fa9:	48 85 c0             	test   rax,rax
    3fac:	75 f2                	jne    3fa0 <nimDestroyAndDispose+0x2e0>
    3fae:	48 8b 05 4b 09 21 00 	mov    rax,QWORD PTR [rip+0x21094b]        # 214900 <allocator__Het9ctRSeaVb4hPekZZNCJQ+0x2880>
    3fb5:	48 39 05 4c 09 21 00 	cmp    QWORD PTR [rip+0x21094c],rax        # 214908 <allocator__Het9ctRSeaVb4hPekZZNCJQ+0x2888>
    3fbc:	4c 89 c7             	mov    rdi,r8
    3fbf:	5b                   	pop    rbx
    3fc0:	48 89 c2             	mov    rdx,rax
    3fc3:	48 0f 4d 15 3d 09 21 	cmovge rdx,QWORD PTR [rip+0x21093d]        # 214908 <allocator__Het9ctRSeaVb4hPekZZNCJQ+0x2888>
    3fca:	00 
    3fcb:	48 29 f0             	sub    rax,rsi
    3fce:	48 89 05 2b 09 21 00 	mov    QWORD PTR [rip+0x21092b],rax        # 214900 <allocator__Het9ctRSeaVb4hPekZZNCJQ+0x2880>
    3fd5:	48 89 15 2c 09 21 00 	mov    QWORD PTR [rip+0x21092c],rdx        # 214908 <allocator__Het9ctRSeaVb4hPekZZNCJQ+0x2888>
    3fdc:	e9 ff c9 ff ff       	jmp    9e0 <munmap@plt>
    3fe1:	0f 1f 80 00 00 00 00 	nop    DWORD PTR [rax+0x0]
    3fe8:	48 89 35 41 11 21 00 	mov    QWORD PTR [rip+0x211141],rsi        # 215130 <allocator__Het9ctRSeaVb4hPekZZNCJQ+0x30b0>
    3fef:	48 83 c6 08          	add    rsi,0x8
    3ff3:	e9 5e fd ff ff       	jmp    3d56 <nimDestroyAndDispose+0x96>
    3ff8:	0f 1f 84 00 00 00 00 	nop    DWORD PTR [rax+rax*1+0x0]
    3fff:	00 
    4000:	48 8b 48 08          	mov    rcx,QWORD PTR [rax+0x8]
    4004:	48 3b 51 20          	cmp    rdx,QWORD PTR [rcx+0x20]
    4008:	0f 8e 7a fe ff ff    	jle    3e88 <nimDestroyAndDispose+0x1c8>
    400e:	e9 7b fd ff ff       	jmp    3d8e <nimDestroyAndDispose+0xce>
    4013:	0f 1f 44 00 00       	nop    DWORD PTR [rax+rax*1+0x0]
    4018:	4c 89 c1             	mov    rcx,r8
    401b:	ba 01 00 00 00       	mov    edx,0x1
    4020:	48 c1 f9 0c          	sar    rcx,0xc
    4024:	81 e1 ff 01 00 00    	and    ecx,0x1ff
    402a:	48 89 cf             	mov    rdi,rcx
    402d:	48 d3 e2             	shl    rdx,cl
    4030:	48 c1 ff 06          	sar    rdi,0x6
    4034:	48 f7 d2             	not    rdx
    4037:	48 21 54 f8 10       	and    QWORD PTR [rax+rdi*8+0x10],rdx
    403c:	e9 6d ff ff ff       	jmp    3fae <nimDestroyAndDispose+0x2ee>
    4041:	0f 1f 80 00 00 00 00 	nop    DWORD PTR [rax+0x0]
    4048:	4c 89 15 09 11 21 00 	mov    QWORD PTR [rip+0x211109],r10        # 215158 <allocator__Het9ctRSeaVb4hPekZZNCJQ+0x30d8>
    404f:	4c 89 15 0a 11 21 00 	mov    QWORD PTR [rip+0x21110a],r10        # 215160 <allocator__Het9ctRSeaVb4hPekZZNCJQ+0x30e0>
    4056:	e9 cf fc ff ff       	jmp    3d2a <nimDestroyAndDispose+0x6a>
    405b:	0f 1f 44 00 00       	nop    DWORD PTR [rax+rax*1+0x0]
    4060:	48 8b 15 c9 10 21 00 	mov    rdx,QWORD PTR [rip+0x2110c9]        # 215130 <allocator__Het9ctRSeaVb4hPekZZNCJQ+0x30b0>
    4067:	48 3b 12             	cmp    rdx,QWORD PTR [rdx]
    406a:	0f 84 09 fd ff ff    	je     3d79 <nimDestroyAndDispose+0xb9>
    4070:	4c 3b 5a 10          	cmp    r11,QWORD PTR [rdx+0x10]
    4074:	0f 85 ff fc ff ff    	jne    3d79 <nimDestroyAndDispose+0xb9>
    407a:	48 8b 40 10          	mov    rax,QWORD PTR [rax+0x10]
    407e:	48 89 42 10          	mov    QWORD PTR [rdx+0x10],rax
    4082:	48 8b 05 9f 10 21 00 	mov    rax,QWORD PTR [rip+0x21109f]        # 215128 <allocator__Het9ctRSeaVb4hPekZZNCJQ+0x30a8>
    4089:	48 8b 50 18          	mov    rdx,QWORD PTR [rax+0x18]
    408d:	48 8b 05 9c 10 21 00 	mov    rax,QWORD PTR [rip+0x21109c]        # 215130 <allocator__Het9ctRSeaVb4hPekZZNCJQ+0x30b0>
    4094:	48 89 50 18          	mov    QWORD PTR [rax+0x18],rdx
    4098:	48 83 3d b8 10 21 00 	cmp    QWORD PTR [rip+0x2110b8],0x0        # 215158 <allocator__Het9ctRSeaVb4hPekZZNCJQ+0x30d8>
    409f:	00 
    40a0:	75 0e                	jne    40b0 <nimDestroyAndDispose+0x3f0>
    40a2:	4c 89 15 af 10 21 00 	mov    QWORD PTR [rip+0x2110af],r10        # 215158 <allocator__Het9ctRSeaVb4hPekZZNCJQ+0x30d8>
    40a9:	4c 89 15 b0 10 21 00 	mov    QWORD PTR [rip+0x2110b0],r10        # 215160 <allocator__Het9ctRSeaVb4hPekZZNCJQ+0x30e0>
    40b0:	48 8b 05 71 10 21 00 	mov    rax,QWORD PTR [rip+0x211071]        # 215128 <allocator__Het9ctRSeaVb4hPekZZNCJQ+0x30a8>
    40b7:	4c 89 15 72 10 21 00 	mov    QWORD PTR [rip+0x211072],r10        # 215130 <allocator__Het9ctRSeaVb4hPekZZNCJQ+0x30b0>
    40be:	48 8b 15 7b 10 21 00 	mov    rdx,QWORD PTR [rip+0x21107b]        # 215140 <allocator__Het9ctRSeaVb4hPekZZNCJQ+0x30c0>
    40c5:	48 8b 40 08          	mov    rax,QWORD PTR [rax+0x8]
    40c9:	48 89 05 58 10 21 00 	mov    QWORD PTR [rip+0x211058],rax        # 215128 <allocator__Het9ctRSeaVb4hPekZZNCJQ+0x30a8>
    40d0:	48 8b 05 61 10 21 00 	mov    rax,QWORD PTR [rip+0x211061]        # 215138 <allocator__Het9ctRSeaVb4hPekZZNCJQ+0x30b8>
    40d7:	48 89 10             	mov    QWORD PTR [rax],rdx
    40da:	48 89 05 5f 10 21 00 	mov    QWORD PTR [rip+0x21105f],rax        # 215140 <allocator__Het9ctRSeaVb4hPekZZNCJQ+0x30c0>
    40e1:	e9 a2 fd ff ff       	jmp    3e88 <nimDestroyAndDispose+0x1c8>
    40e6:	66 2e 0f 1f 84 00 00 	nop    WORD PTR cs:[rax+rax*1+0x0]
    40ed:	00 00 00 
    40f0:	48 89 51 20          	mov    QWORD PTR [rcx+0x20],rdx
    40f4:	48 8b 05 2d 10 21 00 	mov    rax,QWORD PTR [rip+0x21102d]        # 215128 <allocator__Het9ctRSeaVb4hPekZZNCJQ+0x30a8>
    40fb:	48 8b 50 20          	mov    rdx,QWORD PTR [rax+0x20]
    40ff:	e9 a7 fc ff ff       	jmp    3dab <nimDestroyAndDispose+0xeb>
    4104:	0f 1f 40 00          	nop    DWORD PTR [rax+0x0]
    4108:	48 89 48 08          	mov    QWORD PTR [rax+0x8],rcx
    410c:	48 8b 09             	mov    rcx,QWORD PTR [rcx]
    410f:	48 89 4a 08          	mov    QWORD PTR [rdx+0x8],rcx
    4113:	48 8b 48 08          	mov    rcx,QWORD PTR [rax+0x8]
    4117:	48 89 11             	mov    QWORD PTR [rcx],rdx
    411a:	48 8b 40 08          	mov    rax,QWORD PTR [rax+0x8]
    411e:	48 83 40 20 01       	add    QWORD PTR [rax+0x20],0x1
    4123:	e9 60 fd ff ff       	jmp    3e88 <nimDestroyAndDispose+0x1c8>
    4128:	0f 1f 84 00 00 00 00 	nop    DWORD PTR [rax+rax*1+0x0]
    412f:	00 
    4130:	48 85 d2             	test   rdx,rdx
    4133:	49 89 14 c1          	mov    QWORD PTR [r9+rax*8],rdx
    4137:	0f 84 0d fe ff ff    	je     3f4a <nimDestroyAndDispose+0x28a>
    413d:	48 c7 42 18 00 00 00 	mov    QWORD PTR [rdx+0x18],0x0
    4144:	00 
    4145:	e9 00 fe ff ff       	jmp    3f4a <nimDestroyAndDispose+0x28a>
    414a:	66 0f 1f 44 00 00    	nop    WORD PTR [rax+rax*1+0x0]

0000000000004150 <eqdestroy___4fQQqvAqifkWGVa4g39cI5A>:
    4150:	48 8b 77 08          	mov    rsi,QWORD PTR [rdi+0x8]
    4154:	48 85 f6             	test   rsi,rsi
    4157:	74 0f                	je     4168 <eqdestroy___4fQQqvAqifkWGVa4g39cI5A+0x18>
    4159:	48 b8 00 00 00 00 00 	movabs rax,0x4000000000000000
    4160:	00 00 40 
    4163:	48 85 06             	test   QWORD PTR [rsi],rax
    4166:	74 08                	je     4170 <eqdestroy___4fQQqvAqifkWGVa4g39cI5A+0x20>
    4168:	f3 c3                	repz ret 
    416a:	66 0f 1f 44 00 00    	nop    WORD PTR [rax+rax*1+0x0]
    4170:	53                   	push   rbx
    4171:	48 89 fb             	mov    rbx,rdi
    4174:	48 8d 3d 05 df 20 00 	lea    rdi,[rip+0x20df05]        # 212080 <allocator__Het9ctRSeaVb4hPekZZNCJQ>
    417b:	e8 00 e0 ff ff       	call   2180 <rawDealloc__K7uQ6aTKvW6OnOV8EMoNNQ>
    4180:	48 c7 43 08 00 00 00 	mov    QWORD PTR [rbx+0x8],0x0
    4187:	00 
    4188:	48 c7 03 00 00 00 00 	mov    QWORD PTR [rbx],0x0
    418f:	5b                   	pop    rbx
    4190:	c3                   	ret    
    4191:	0f 1f 44 00 00       	nop    DWORD PTR [rax+rax*1+0x0]
    4196:	66 2e 0f 1f 84 00 00 	nop    WORD PTR cs:[rax+rax*1+0x0]
    419d:	00 00 00 

00000000000041a0 <addHeapLink__LIRFHBfc9aX3C5dmMmLnpwA>:
    41a0:	41 55                	push   r13
    41a2:	41 54                	push   r12
    41a4:	49 89 f5             	mov    r13,rsi
    41a7:	55                   	push   rbp
    41a8:	53                   	push   rbx
    41a9:	49 89 d4             	mov    r12,rdx
    41ac:	48 89 fb             	mov    rbx,rdi
    41af:	48 8d 87 00 31 00 00 	lea    rax,[rdi+0x3100]
    41b6:	48 83 ec 18          	sub    rsp,0x18
    41ba:	eb 15                	jmp    41d1 <addHeapLink__LIRFHBfc9aX3C5dmMmLnpwA+0x31>
    41bc:	0f 1f 40 00          	nop    DWORD PTR [rax+0x0]
    41c0:	48 83 38 1d          	cmp    QWORD PTR [rax],0x1d
    41c4:	0f 8e a9 00 00 00    	jle    4273 <addHeapLink__LIRFHBfc9aX3C5dmMmLnpwA+0xd3>
    41ca:	48 8b 80 e8 01 00 00 	mov    rax,QWORD PTR [rax+0x1e8]
    41d1:	48 85 c0             	test   rax,rax
    41d4:	75 ea                	jne    41c0 <addHeapLink__LIRFHBfc9aX3C5dmMmLnpwA+0x20>
    41d6:	48 8b ab 78 28 00 00 	mov    rbp,QWORD PTR [rbx+0x2878]
    41dd:	48 85 ed             	test   rbp,rbp
    41e0:	0f 84 ba 00 00 00    	je     42a0 <addHeapLink__LIRFHBfc9aX3C5dmMmLnpwA+0x100>
    41e6:	48 8b 45 00          	mov    rax,QWORD PTR [rbp+0x0]
    41ea:	48 3d ef 01 00 00    	cmp    rax,0x1ef
    41f0:	0f 8e aa 00 00 00    	jle    42a0 <addHeapLink__LIRFHBfc9aX3C5dmMmLnpwA+0x100>
    41f6:	48 8b 55 08          	mov    rdx,QWORD PTR [rbp+0x8]
    41fa:	48 2d f0 01 00 00    	sub    rax,0x1f0
    4200:	48 89 45 00          	mov    QWORD PTR [rbp+0x0],rax
    4204:	48 8b 83 78 28 00 00 	mov    rax,QWORD PTR [rbx+0x2878]
    420b:	48 01 ea             	add    rdx,rbp
    420e:	48 8d 7a 08          	lea    rdi,[rdx+0x8]
    4212:	48 89 d1             	mov    rcx,rdx
    4215:	48 81 40 08 f0 01 00 	add    QWORD PTR [rax+0x8],0x1f0
    421c:	00 
    421d:	31 c0                	xor    eax,eax
    421f:	48 c7 02 00 00 00 00 	mov    QWORD PTR [rdx],0x0
    4226:	48 c7 82 e8 01 00 00 	mov    QWORD PTR [rdx+0x1e8],0x0
    422d:	00 00 00 00 
    4231:	48 83 e7 f8          	and    rdi,0xfffffffffffffff8
    4235:	48 29 f9             	sub    rcx,rdi
    4238:	81 c1 f0 01 00 00    	add    ecx,0x1f0
    423e:	c1 e9 03             	shr    ecx,0x3
    4241:	f3 48 ab             	rep stos QWORD PTR es:[rdi],rax
    4244:	48 8b 83 e8 32 00 00 	mov    rax,QWORD PTR [rbx+0x32e8]
    424b:	48 89 82 e8 01 00 00 	mov    QWORD PTR [rdx+0x1e8],rax
    4252:	48 89 93 e8 32 00 00 	mov    QWORD PTR [rbx+0x32e8],rdx
    4259:	4c 89 6a 08          	mov    QWORD PTR [rdx+0x8],r13
    425d:	4c 89 62 10          	mov    QWORD PTR [rdx+0x10],r12
    4261:	48 c7 02 01 00 00 00 	mov    QWORD PTR [rdx],0x1
    4268:	48 83 c4 18          	add    rsp,0x18
    426c:	5b                   	pop    rbx
    426d:	5d                   	pop    rbp
    426e:	41 5c                	pop    r12
    4270:	41 5d                	pop    r13
    4272:	c3                   	ret    
    4273:	48 8b 08             	mov    rcx,QWORD PTR [rax]
    4276:	48 89 cf             	mov    rdi,rcx
    4279:	48 83 c1 01          	add    rcx,0x1
    427d:	48 c1 e7 04          	shl    rdi,0x4
    4281:	48 01 c7             	add    rdi,rax
    4284:	4c 89 6f 08          	mov    QWORD PTR [rdi+0x8],r13
    4288:	4c 89 67 10          	mov    QWORD PTR [rdi+0x10],r12
    428c:	48 89 08             	mov    QWORD PTR [rax],rcx
    428f:	48 83 c4 18          	add    rsp,0x18
    4293:	5b                   	pop    rbx
    4294:	5d                   	pop    rbp
    4295:	41 5c                	pop    r12
    4297:	41 5d                	pop    r13
    4299:	c3                   	ret    
    429a:	66 0f 1f 44 00 00    	nop    WORD PTR [rax+rax*1+0x0]
    42a0:	45 31 c9             	xor    r9d,r9d
    42a3:	ba 03 00 00 00       	mov    edx,0x3
    42a8:	31 ff                	xor    edi,edi
    42aa:	41 b8 ff ff ff ff    	mov    r8d,0xffffffff
    42b0:	b9 22 00 00 00       	mov    ecx,0x22
    42b5:	be 00 10 00 00       	mov    esi,0x1000
    42ba:	e8 b1 c6 ff ff       	call   970 <mmap@plt>
    42bf:	48 8d 50 ff          	lea    rdx,[rax-0x1]
    42c3:	48 83 fa fd          	cmp    rdx,0xfffffffffffffffd
    42c7:	77 43                	ja     430c <addHeapLink__LIRFHBfc9aX3C5dmMmLnpwA+0x16c>
    42c9:	48 89 83 78 28 00 00 	mov    QWORD PTR [rbx+0x2878],rax
    42d0:	48 81 83 80 28 00 00 	add    QWORD PTR [rbx+0x2880],0x1000
    42d7:	00 10 00 00 
    42db:	48 c7 00 e8 0f 00 00 	mov    QWORD PTR [rax],0xfe8
    42e2:	48 8b 83 78 28 00 00 	mov    rax,QWORD PTR [rbx+0x2878]
    42e9:	48 c7 40 08 18 00 00 	mov    QWORD PTR [rax+0x8],0x18
    42f0:	00 
    42f1:	48 8b 83 78 28 00 00 	mov    rax,QWORD PTR [rbx+0x2878]
    42f8:	48 89 68 10          	mov    QWORD PTR [rax+0x10],rbp
    42fc:	48 8b ab 78 28 00 00 	mov    rbp,QWORD PTR [rbx+0x2878]
    4303:	48 8b 45 00          	mov    rax,QWORD PTR [rbp+0x0]
    4307:	e9 ea fe ff ff       	jmp    41f6 <addHeapLink__LIRFHBfc9aX3C5dmMmLnpwA+0x56>
    430c:	48 89 44 24 08       	mov    QWORD PTR [rsp+0x8],rax
    4311:	e8 ea cd ff ff       	call   1100 <raiseOutOfMem__mMRdr4sgmnykA9aWeM9aDZlw>
    4316:	48 8b 44 24 08       	mov    rax,QWORD PTR [rsp+0x8]
    431b:	eb ac                	jmp    42c9 <addHeapLink__LIRFHBfc9aX3C5dmMmLnpwA+0x129>
    431d:	0f 1f 00             	nop    DWORD PTR [rax]

0000000000004320 <requestOsChunks__stlXHMKRKFIGOvq8t4ynRQ_2>:
    4320:	41 55                	push   r13
    4322:	41 54                	push   r12
    4324:	49 89 f4             	mov    r12,rsi
    4327:	55                   	push   rbp
    4328:	53                   	push   rbx
    4329:	48 89 fb             	mov    rbx,rdi
    432c:	48 83 ec 18          	sub    rsp,0x18
    4330:	80 bf c9 30 00 00 00 	cmp    BYTE PTR [rdi+0x30c9],0x0
    4337:	0f 84 3b 02 00 00    	je     4578 <requestOsChunks__stlXHMKRKFIGOvq8t4ynRQ_2+0x258>
    433d:	48 8b b7 d0 30 00 00 	mov    rsi,QWORD PTR [rdi+0x30d0]
    4344:	45 31 c9             	xor    r9d,r9d
    4347:	49 39 f4             	cmp    r12,rsi
    434a:	41 b8 ff ff ff ff    	mov    r8d,0xffffffff
    4350:	b9 22 00 00 00       	mov    ecx,0x22
    4355:	ba 03 00 00 00       	mov    edx,0x3
    435a:	0f 8e f0 01 00 00    	jle    4550 <requestOsChunks__stlXHMKRKFIGOvq8t4ynRQ_2+0x230>
    4360:	31 ff                	xor    edi,edi
    4362:	4c 89 e6             	mov    rsi,r12
    4365:	e8 06 c6 ff ff       	call   970 <mmap@plt>
    436a:	48 89 c5             	mov    rbp,rax
    436d:	48 8d 40 ff          	lea    rax,[rax-0x1]
    4371:	48 83 f8 fd          	cmp    rax,0xfffffffffffffffd
    4375:	0f 87 b5 02 00 00    	ja     4630 <requestOsChunks__stlXHMKRKFIGOvq8t4ynRQ_2+0x310>
    437b:	4c 01 a3 80 28 00 00 	add    QWORD PTR [rbx+0x2880],r12
    4382:	4c 01 a3 90 28 00 00 	add    QWORD PTR [rbx+0x2890],r12
    4389:	48 8d 83 00 31 00 00 	lea    rax,[rbx+0x3100]
    4390:	48 83 38 1d          	cmp    QWORD PTR [rax],0x1d
    4394:	0f 8e a0 00 00 00    	jle    443a <requestOsChunks__stlXHMKRKFIGOvq8t4ynRQ_2+0x11a>
    439a:	48 8b 80 e8 01 00 00 	mov    rax,QWORD PTR [rax+0x1e8]
    43a1:	48 85 c0             	test   rax,rax
    43a4:	75 ea                	jne    4390 <requestOsChunks__stlXHMKRKFIGOvq8t4ynRQ_2+0x70>
    43a6:	4c 8b ab 78 28 00 00 	mov    r13,QWORD PTR [rbx+0x2878]
    43ad:	4d 85 ed             	test   r13,r13
    43b0:	0f 84 92 02 00 00    	je     4648 <requestOsChunks__stlXHMKRKFIGOvq8t4ynRQ_2+0x328>
    43b6:	49 8b 45 00          	mov    rax,QWORD PTR [r13+0x0]
    43ba:	48 3d ef 01 00 00    	cmp    rax,0x1ef
    43c0:	0f 8e 82 02 00 00    	jle    4648 <requestOsChunks__stlXHMKRKFIGOvq8t4ynRQ_2+0x328>
    43c6:	49 8b 55 08          	mov    rdx,QWORD PTR [r13+0x8]
    43ca:	48 2d f0 01 00 00    	sub    rax,0x1f0
    43d0:	49 89 45 00          	mov    QWORD PTR [r13+0x0],rax
    43d4:	48 8b 83 78 28 00 00 	mov    rax,QWORD PTR [rbx+0x2878]
    43db:	4c 01 ea             	add    rdx,r13
    43de:	48 8d 7a 08          	lea    rdi,[rdx+0x8]
    43e2:	48 89 d1             	mov    rcx,rdx
    43e5:	48 81 40 08 f0 01 00 	add    QWORD PTR [rax+0x8],0x1f0
    43ec:	00 
    43ed:	31 c0                	xor    eax,eax
    43ef:	48 c7 02 00 00 00 00 	mov    QWORD PTR [rdx],0x0
    43f6:	48 c7 82 e8 01 00 00 	mov    QWORD PTR [rdx+0x1e8],0x0
    43fd:	00 00 00 00 
    4401:	48 83 e7 f8          	and    rdi,0xfffffffffffffff8
    4405:	48 29 f9             	sub    rcx,rdi
    4408:	81 c1 f0 01 00 00    	add    ecx,0x1f0
    440e:	c1 e9 03             	shr    ecx,0x3
    4411:	f3 48 ab             	rep stos QWORD PTR es:[rdi],rax
    4414:	48 8b 83 e8 32 00 00 	mov    rax,QWORD PTR [rbx+0x32e8]
    441b:	48 89 82 e8 01 00 00 	mov    QWORD PTR [rdx+0x1e8],rax
    4422:	48 89 93 e8 32 00 00 	mov    QWORD PTR [rbx+0x32e8],rdx
    4429:	48 89 6a 08          	mov    QWORD PTR [rdx+0x8],rbp
    442d:	4c 89 62 10          	mov    QWORD PTR [rdx+0x10],r12
    4431:	48 c7 02 01 00 00 00 	mov    QWORD PTR [rdx],0x1
    4438:	eb 1c                	jmp    4456 <requestOsChunks__stlXHMKRKFIGOvq8t4ynRQ_2+0x136>
    443a:	48 8b 10             	mov    rdx,QWORD PTR [rax]
    443d:	48 89 d1             	mov    rcx,rdx
    4440:	48 83 c2 01          	add    rdx,0x1
    4444:	48 c1 e1 04          	shl    rcx,0x4
    4448:	48 01 c1             	add    rcx,rax
    444b:	48 89 69 08          	mov    QWORD PTR [rcx+0x8],rbp
    444f:	4c 89 61 10          	mov    QWORD PTR [rcx+0x10],r12
    4453:	48 89 10             	mov    QWORD PTR [rax],rdx
    4456:	4a 8d 4c 25 00       	lea    rcx,[rbp+r12*1+0x0]
    445b:	48 c7 45 10 00 00 00 	mov    QWORD PTR [rbp+0x10],0x0
    4462:	00 
    4463:	48 c7 45 18 00 00 00 	mov    QWORD PTR [rbp+0x18],0x0
    446a:	00 
    446b:	4c 89 65 08          	mov    QWORD PTR [rbp+0x8],r12
    446f:	48 89 ca             	mov    rdx,rcx
    4472:	48 c1 fa 15          	sar    rdx,0x15
    4476:	0f b6 c2             	movzx  eax,dl
    4479:	48 8b 84 c3 a8 28 00 	mov    rax,QWORD PTR [rbx+rax*8+0x28a8]
    4480:	00 
    4481:	48 85 c0             	test   rax,rax
    4484:	75 12                	jne    4498 <requestOsChunks__stlXHMKRKFIGOvq8t4ynRQ_2+0x178>
    4486:	eb 39                	jmp    44c1 <requestOsChunks__stlXHMKRKFIGOvq8t4ynRQ_2+0x1a1>
    4488:	0f 1f 84 00 00 00 00 	nop    DWORD PTR [rax+rax*1+0x0]
    448f:	00 
    4490:	48 8b 00             	mov    rax,QWORD PTR [rax]
    4493:	48 85 c0             	test   rax,rax
    4496:	74 29                	je     44c1 <requestOsChunks__stlXHMKRKFIGOvq8t4ynRQ_2+0x1a1>
    4498:	48 3b 50 08          	cmp    rdx,QWORD PTR [rax+0x8]
    449c:	75 f2                	jne    4490 <requestOsChunks__stlXHMKRKFIGOvq8t4ynRQ_2+0x170>
    449e:	48 89 ca             	mov    rdx,rcx
    44a1:	48 c1 fa 0c          	sar    rdx,0xc
    44a5:	81 e2 ff 01 00 00    	and    edx,0x1ff
    44ab:	48 89 d6             	mov    rsi,rdx
    44ae:	48 c1 fe 06          	sar    rsi,0x6
    44b2:	48 8b 44 f0 10       	mov    rax,QWORD PTR [rax+rsi*8+0x10]
    44b7:	48 0f a3 d0          	bt     rax,rdx
    44bb:	0f 82 07 01 00 00    	jb     45c8 <requestOsChunks__stlXHMKRKFIGOvq8t4ynRQ_2+0x2a8>
    44c1:	48 8b b3 a0 28 00 00 	mov    rsi,QWORD PTR [rbx+0x28a0]
    44c8:	48 85 f6             	test   rsi,rsi
    44cb:	48 89 f0             	mov    rax,rsi
    44ce:	75 0a                	jne    44da <requestOsChunks__stlXHMKRKFIGOvq8t4ynRQ_2+0x1ba>
    44d0:	b8 00 10 00 00       	mov    eax,0x1000
    44d5:	be 00 10 00 00       	mov    esi,0x1000
    44da:	48 89 ef             	mov    rdi,rbp
    44dd:	48 8b 4d 00          	mov    rcx,QWORD PTR [rbp+0x0]
    44e1:	48 29 c7             	sub    rdi,rax
    44e4:	48 89 fa             	mov    rdx,rdi
    44e7:	48 c1 fa 15          	sar    rdx,0x15
    44eb:	83 e1 01             	and    ecx,0x1
    44ee:	0f b6 c2             	movzx  eax,dl
    44f1:	48 8b 84 c3 a8 28 00 	mov    rax,QWORD PTR [rbx+rax*8+0x28a8]
    44f8:	00 
    44f9:	48 85 c0             	test   rax,rax
    44fc:	75 0a                	jne    4508 <requestOsChunks__stlXHMKRKFIGOvq8t4ynRQ_2+0x1e8>
    44fe:	eb 36                	jmp    4536 <requestOsChunks__stlXHMKRKFIGOvq8t4ynRQ_2+0x216>
    4500:	48 8b 00             	mov    rax,QWORD PTR [rax]
    4503:	48 85 c0             	test   rax,rax
    4506:	74 2e                	je     4536 <requestOsChunks__stlXHMKRKFIGOvq8t4ynRQ_2+0x216>
    4508:	48 3b 50 08          	cmp    rdx,QWORD PTR [rax+0x8]
    450c:	75 f2                	jne    4500 <requestOsChunks__stlXHMKRKFIGOvq8t4ynRQ_2+0x1e0>
    450e:	48 89 fa             	mov    rdx,rdi
    4511:	48 c1 fa 0c          	sar    rdx,0xc
    4515:	81 e2 ff 01 00 00    	and    edx,0x1ff
    451b:	49 89 d0             	mov    r8,rdx
    451e:	49 c1 f8 06          	sar    r8,0x6
    4522:	4a 8b 44 c0 10       	mov    rax,QWORD PTR [rax+r8*8+0x10]
    4527:	48 0f a3 d0          	bt     rax,rdx
    452b:	73 09                	jae    4536 <requestOsChunks__stlXHMKRKFIGOvq8t4ynRQ_2+0x216>
    452d:	48 39 77 08          	cmp    QWORD PTR [rdi+0x8],rsi
    4531:	75 03                	jne    4536 <requestOsChunks__stlXHMKRKFIGOvq8t4ynRQ_2+0x216>
    4533:	48 09 f1             	or     rcx,rsi
    4536:	48 89 4d 00          	mov    QWORD PTR [rbp+0x0],rcx
    453a:	4c 89 a3 a0 28 00 00 	mov    QWORD PTR [rbx+0x28a0],r12
    4541:	48 83 c4 18          	add    rsp,0x18
    4545:	5b                   	pop    rbx
    4546:	48 89 e8             	mov    rax,rbp
    4549:	5d                   	pop    rbp
    454a:	41 5c                	pop    r12
    454c:	41 5d                	pop    r13
    454e:	c3                   	ret    
    454f:	90                   	nop
    4550:	31 ff                	xor    edi,edi
    4552:	e8 19 c4 ff ff       	call   970 <mmap@plt>
    4557:	48 89 c5             	mov    rbp,rax
    455a:	48 8d 40 ff          	lea    rax,[rax-0x1]
    455e:	48 83 f8 fd          	cmp    rax,0xfffffffffffffffd
    4562:	0f 87 90 00 00 00    	ja     45f8 <requestOsChunks__stlXHMKRKFIGOvq8t4ynRQ_2+0x2d8>
    4568:	4c 8b a3 d0 30 00 00 	mov    r12,QWORD PTR [rbx+0x30d0]
    456f:	e9 07 fe ff ff       	jmp    437b <requestOsChunks__stlXHMKRKFIGOvq8t4ynRQ_2+0x5b>
    4574:	0f 1f 40 00          	nop    DWORD PTR [rax+0x0]
    4578:	48 8b 87 98 28 00 00 	mov    rax,QWORD PTR [rdi+0x2898]
    457f:	48 3d ff ff 00 00    	cmp    rax,0xffff
    4585:	7e 59                	jle    45e0 <requestOsChunks__stlXHMKRKFIGOvq8t4ynRQ_2+0x2c0>
    4587:	48 c1 f8 02          	sar    rax,0x2
    458b:	ba 00 00 00 3f       	mov    edx,0x3f000000
    4590:	48 8d b0 ff 0f 00 00 	lea    rsi,[rax+0xfff]
    4597:	48 8b 87 d0 30 00 00 	mov    rax,QWORD PTR [rdi+0x30d0]
    459e:	48 81 e6 00 f0 ff ff 	and    rsi,0xfffffffffffff000
    45a5:	48 01 c0             	add    rax,rax
    45a8:	48 3d 00 00 00 3f    	cmp    rax,0x3f000000
    45ae:	48 0f 4f c2          	cmovg  rax,rdx
    45b2:	48 39 c6             	cmp    rsi,rax
    45b5:	48 0f 4f f0          	cmovg  rsi,rax
    45b9:	48 89 b7 d0 30 00 00 	mov    QWORD PTR [rdi+0x30d0],rsi
    45c0:	e9 7f fd ff ff       	jmp    4344 <requestOsChunks__stlXHMKRKFIGOvq8t4ynRQ_2+0x24>
    45c5:	0f 1f 00             	nop    DWORD PTR [rax]
    45c8:	48 8b 01             	mov    rax,QWORD PTR [rcx]
    45cb:	83 e0 01             	and    eax,0x1
    45ce:	4c 09 e0             	or     rax,r12
    45d1:	48 89 01             	mov    QWORD PTR [rcx],rax
    45d4:	e9 e8 fe ff ff       	jmp    44c1 <requestOsChunks__stlXHMKRKFIGOvq8t4ynRQ_2+0x1a1>
    45d9:	0f 1f 80 00 00 00 00 	nop    DWORD PTR [rax+0x0]
    45e0:	48 c7 87 d0 30 00 00 	mov    QWORD PTR [rdi+0x30d0],0x4000
    45e7:	00 40 00 00 
    45eb:	be 00 40 00 00       	mov    esi,0x4000
    45f0:	e9 4f fd ff ff       	jmp    4344 <requestOsChunks__stlXHMKRKFIGOvq8t4ynRQ_2+0x24>
    45f5:	0f 1f 00             	nop    DWORD PTR [rax]
    45f8:	45 31 c9             	xor    r9d,r9d
    45fb:	31 ff                	xor    edi,edi
    45fd:	41 b8 ff ff ff ff    	mov    r8d,0xffffffff
    4603:	b9 22 00 00 00       	mov    ecx,0x22
    4608:	ba 03 00 00 00       	mov    edx,0x3
    460d:	4c 89 e6             	mov    rsi,r12
    4610:	e8 5b c3 ff ff       	call   970 <mmap@plt>
    4615:	48 89 c5             	mov    rbp,rax
    4618:	48 8d 40 ff          	lea    rax,[rax-0x1]
    461c:	48 83 f8 fd          	cmp    rax,0xfffffffffffffffd
    4620:	77 18                	ja     463a <requestOsChunks__stlXHMKRKFIGOvq8t4ynRQ_2+0x31a>
    4622:	c6 83 c9 30 00 00 01 	mov    BYTE PTR [rbx+0x30c9],0x1
    4629:	e9 4d fd ff ff       	jmp    437b <requestOsChunks__stlXHMKRKFIGOvq8t4ynRQ_2+0x5b>
    462e:	66 90                	xchg   ax,ax
    4630:	e8 cb ca ff ff       	call   1100 <raiseOutOfMem__mMRdr4sgmnykA9aWeM9aDZlw>
    4635:	e9 41 fd ff ff       	jmp    437b <requestOsChunks__stlXHMKRKFIGOvq8t4ynRQ_2+0x5b>
    463a:	e8 c1 ca ff ff       	call   1100 <raiseOutOfMem__mMRdr4sgmnykA9aWeM9aDZlw>
    463f:	eb e1                	jmp    4622 <requestOsChunks__stlXHMKRKFIGOvq8t4ynRQ_2+0x302>
    4641:	0f 1f 80 00 00 00 00 	nop    DWORD PTR [rax+0x0]
    4648:	45 31 c9             	xor    r9d,r9d
    464b:	ba 03 00 00 00       	mov    edx,0x3
    4650:	31 ff                	xor    edi,edi
    4652:	41 b8 ff ff ff ff    	mov    r8d,0xffffffff
    4658:	b9 22 00 00 00       	mov    ecx,0x22
    465d:	be 00 10 00 00       	mov    esi,0x1000
    4662:	e8 09 c3 ff ff       	call   970 <mmap@plt>
    4667:	48 8d 50 ff          	lea    rdx,[rax-0x1]
    466b:	48 83 fa fd          	cmp    rdx,0xfffffffffffffffd
    466f:	77 43                	ja     46b4 <requestOsChunks__stlXHMKRKFIGOvq8t4ynRQ_2+0x394>
    4671:	48 89 83 78 28 00 00 	mov    QWORD PTR [rbx+0x2878],rax
    4678:	48 81 83 80 28 00 00 	add    QWORD PTR [rbx+0x2880],0x1000
    467f:	00 10 00 00 
    4683:	48 c7 00 e8 0f 00 00 	mov    QWORD PTR [rax],0xfe8
    468a:	48 8b 83 78 28 00 00 	mov    rax,QWORD PTR [rbx+0x2878]
    4691:	48 c7 40 08 18 00 00 	mov    QWORD PTR [rax+0x8],0x18
    4698:	00 
    4699:	48 8b 83 78 28 00 00 	mov    rax,QWORD PTR [rbx+0x2878]
    46a0:	4c 89 68 10          	mov    QWORD PTR [rax+0x10],r13
    46a4:	4c 8b ab 78 28 00 00 	mov    r13,QWORD PTR [rbx+0x2878]
    46ab:	49 8b 45 00          	mov    rax,QWORD PTR [r13+0x0]
    46af:	e9 12 fd ff ff       	jmp    43c6 <requestOsChunks__stlXHMKRKFIGOvq8t4ynRQ_2+0xa6>
    46b4:	48 89 44 24 08       	mov    QWORD PTR [rsp+0x8],rax
    46b9:	e8 42 ca ff ff       	call   1100 <raiseOutOfMem__mMRdr4sgmnykA9aWeM9aDZlw>
    46be:	48 8b 44 24 08       	mov    rax,QWORD PTR [rsp+0x8]
    46c3:	eb ac                	jmp    4671 <requestOsChunks__stlXHMKRKFIGOvq8t4ynRQ_2+0x351>
    46c5:	90                   	nop
    46c6:	66 2e 0f 1f 84 00 00 	nop    WORD PTR cs:[rax+rax*1+0x0]
    46cd:	00 00 00 

00000000000046d0 <splitChunk__BqFVAuadgXfvAiq8B9cBjqQ>:
    46d0:	41 57                	push   r15
    46d2:	41 56                	push   r14
    46d4:	41 55                	push   r13
    46d6:	41 54                	push   r12
    46d8:	55                   	push   rbp
    46d9:	53                   	push   rbx
    46da:	48 89 fd             	mov    rbp,rdi
    46dd:	48 8d 1c 32          	lea    rbx,[rdx+rsi*1]
    46e1:	48 83 ec 18          	sub    rsp,0x18
    46e5:	48 8b 7e 08          	mov    rdi,QWORD PTR [rsi+0x8]
    46e9:	48 c7 43 10 00 00 00 	mov    QWORD PTR [rbx+0x10],0x0
    46f0:	00 
    46f1:	48 c7 43 18 00 00 00 	mov    QWORD PTR [rbx+0x18],0x0
    46f8:	00 
    46f9:	48 89 13             	mov    QWORD PTR [rbx],rdx
    46fc:	48 29 d7             	sub    rdi,rdx
    46ff:	48 89 7b 08          	mov    QWORD PTR [rbx+0x8],rdi
    4703:	4c 8b 46 08          	mov    r8,QWORD PTR [rsi+0x8]
    4707:	49 01 f0             	add    r8,rsi
    470a:	4c 89 c1             	mov    rcx,r8
    470d:	48 c1 f9 15          	sar    rcx,0x15
    4711:	0f b6 c1             	movzx  eax,cl
    4714:	48 8b 84 c5 a8 28 00 	mov    rax,QWORD PTR [rbp+rax*8+0x28a8]
    471b:	00 
    471c:	48 85 c0             	test   rax,rax
    471f:	75 0f                	jne    4730 <splitChunk__BqFVAuadgXfvAiq8B9cBjqQ+0x60>
    4721:	eb 3e                	jmp    4761 <splitChunk__BqFVAuadgXfvAiq8B9cBjqQ+0x91>
    4723:	0f 1f 44 00 00       	nop    DWORD PTR [rax+rax*1+0x0]
    4728:	48 8b 00             	mov    rax,QWORD PTR [rax]
    472b:	48 85 c0             	test   rax,rax
    472e:	74 31                	je     4761 <splitChunk__BqFVAuadgXfvAiq8B9cBjqQ+0x91>
    4730:	48 3b 48 08          	cmp    rcx,QWORD PTR [rax+0x8]
    4734:	75 f2                	jne    4728 <splitChunk__BqFVAuadgXfvAiq8B9cBjqQ+0x58>
    4736:	4c 89 c1             	mov    rcx,r8
    4739:	48 c1 f9 0c          	sar    rcx,0xc
    473d:	81 e1 ff 01 00 00    	and    ecx,0x1ff
    4743:	49 89 c9             	mov    r9,rcx
    4746:	49 c1 f9 06          	sar    r9,0x6
    474a:	4a 8b 44 c8 10       	mov    rax,QWORD PTR [rax+r9*8+0x10]
    474f:	48 0f a3 c8          	bt     rax,rcx
    4753:	73 0c                	jae    4761 <splitChunk__BqFVAuadgXfvAiq8B9cBjqQ+0x91>
    4755:	49 8b 00             	mov    rax,QWORD PTR [r8]
    4758:	83 e0 01             	and    eax,0x1
    475b:	48 09 c7             	or     rdi,rax
    475e:	49 89 38             	mov    QWORD PTR [r8],rdi
    4761:	49 89 dc             	mov    r12,rbx
    4764:	48 89 56 08          	mov    QWORD PTR [rsi+0x8],rdx
    4768:	49 89 dd             	mov    r13,rbx
    476b:	49 c1 fc 15          	sar    r12,0x15
    476f:	49 c1 fd 0c          	sar    r13,0xc
    4773:	41 0f b6 c4          	movzx  eax,r12b
    4777:	4c 8d 74 c5 00       	lea    r14,[rbp+rax*8+0x0]
    477c:	49 8b 86 a8 28 00 00 	mov    rax,QWORD PTR [r14+0x28a8]
    4783:	48 85 c0             	test   rax,rax
    4786:	75 14                	jne    479c <splitChunk__BqFVAuadgXfvAiq8B9cBjqQ+0xcc>
    4788:	e9 db 00 00 00       	jmp    4868 <splitChunk__BqFVAuadgXfvAiq8B9cBjqQ+0x198>
    478d:	0f 1f 00             	nop    DWORD PTR [rax]
    4790:	48 8b 00             	mov    rax,QWORD PTR [rax]
    4793:	48 85 c0             	test   rax,rax
    4796:	0f 84 cc 00 00 00    	je     4868 <splitChunk__BqFVAuadgXfvAiq8B9cBjqQ+0x198>
    479c:	4c 3b 60 08          	cmp    r12,QWORD PTR [rax+0x8]
    47a0:	75 ee                	jne    4790 <splitChunk__BqFVAuadgXfvAiq8B9cBjqQ+0xc0>
    47a2:	4c 89 e9             	mov    rcx,r13
    47a5:	ba 01 00 00 00       	mov    edx,0x1
    47aa:	81 e1 ff 01 00 00    	and    ecx,0x1ff
    47b0:	48 89 ce             	mov    rsi,rcx
    47b3:	48 d3 e2             	shl    rdx,cl
    47b6:	48 c1 fe 06          	sar    rsi,0x6
    47ba:	48 09 54 f0 10       	or     QWORD PTR [rax+rsi*8+0x10],rdx
    47bf:	48 8b 43 08          	mov    rax,QWORD PTR [rbx+0x8]
    47c3:	3d ff ff 00 00       	cmp    eax,0xffff
    47c8:	89 c1                	mov    ecx,eax
    47ca:	0f 87 00 01 00 00    	ja     48d0 <splitChunk__BqFVAuadgXfvAiq8B9cBjqQ+0x200>
    47d0:	31 d2                	xor    edx,edx
    47d2:	3d ff 00 00 00       	cmp    eax,0xff
    47d7:	0f 87 13 01 00 00    	ja     48f0 <splitChunk__BqFVAuadgXfvAiq8B9cBjqQ+0x220>
    47dd:	48 8d 35 1c ae 00 00 	lea    rsi,[rip+0xae1c]        # f600 <fsLookupTable__Gn52IZvqY4slyBTOYwGNRQ>
    47e4:	48 c7 43 18 00 00 00 	mov    QWORD PTR [rbx+0x18],0x0
    47eb:	00 
    47ec:	48 0f be 0c 0e       	movsx  rcx,BYTE PTR [rsi+rcx*1]
    47f1:	48 01 ca             	add    rdx,rcx
    47f4:	8d 4a fb             	lea    ecx,[rdx-0x5]
    47f7:	48 8d 72 fa          	lea    rsi,[rdx-0x6]
    47fb:	48 d3 f8             	sar    rax,cl
    47fe:	48 8d 48 e0          	lea    rcx,[rax-0x20]
    4802:	48 89 f0             	mov    rax,rsi
    4805:	48 c1 e0 05          	shl    rax,0x5
    4809:	48 01 c8             	add    rax,rcx
    480c:	48 8d 44 c5 00       	lea    rax,[rbp+rax*8+0x0]
    4811:	48 8b b8 78 10 00 00 	mov    rdi,QWORD PTR [rax+0x1078]
    4818:	48 89 7b 10          	mov    QWORD PTR [rbx+0x10],rdi
    481c:	48 8b b8 78 10 00 00 	mov    rdi,QWORD PTR [rax+0x1078]
    4823:	48 85 ff             	test   rdi,rdi
    4826:	74 04                	je     482c <splitChunk__BqFVAuadgXfvAiq8B9cBjqQ+0x15c>
    4828:	48 89 5f 18          	mov    QWORD PTR [rdi+0x18],rbx
    482c:	48 89 98 78 10 00 00 	mov    QWORD PTR [rax+0x1078],rbx
    4833:	b8 01 00 00 00       	mov    eax,0x1
    4838:	83 e1 1f             	and    ecx,0x1f
    483b:	48 89 c3             	mov    rbx,rax
    483e:	48 d3 e3             	shl    rbx,cl
    4841:	89 f1                	mov    ecx,esi
    4843:	09 9c 95 fc 0f 00 00 	or     DWORD PTR [rbp+rdx*4+0xffc],ebx
    484a:	83 e1 1f             	and    ecx,0x1f
    484d:	48 d3 e0             	shl    rax,cl
    4850:	09 85 10 10 00 00    	or     DWORD PTR [rbp+0x1010],eax
    4856:	48 83 c4 18          	add    rsp,0x18
    485a:	5b                   	pop    rbx
    485b:	5d                   	pop    rbp
    485c:	41 5c                	pop    r12
    485e:	41 5d                	pop    r13
    4860:	41 5e                	pop    r14
    4862:	41 5f                	pop    r15
    4864:	c3                   	ret    
    4865:	0f 1f 00             	nop    DWORD PTR [rax]
    4868:	4c 8b bd 78 28 00 00 	mov    r15,QWORD PTR [rbp+0x2878]
    486f:	4d 85 ff             	test   r15,r15
    4872:	0f 84 98 00 00 00    	je     4910 <splitChunk__BqFVAuadgXfvAiq8B9cBjqQ+0x240>
    4878:	49 8b 17             	mov    rdx,QWORD PTR [r15]
    487b:	48 83 fa 4f          	cmp    rdx,0x4f
    487f:	0f 8e 8b 00 00 00    	jle    4910 <splitChunk__BqFVAuadgXfvAiq8B9cBjqQ+0x240>
    4885:	48 83 ea 50          	sub    rdx,0x50
    4889:	49 8b 47 08          	mov    rax,QWORD PTR [r15+0x8]
    488d:	49 89 17             	mov    QWORD PTR [r15],rdx
    4890:	48 8b 95 78 28 00 00 	mov    rdx,QWORD PTR [rbp+0x2878]
    4897:	66 0f ef c0          	pxor   xmm0,xmm0
    489b:	4c 01 f8             	add    rax,r15
    489e:	48 83 42 08 50       	add    QWORD PTR [rdx+0x8],0x50
    48a3:	0f 11 00             	movups XMMWORD PTR [rax],xmm0
    48a6:	0f 11 40 10          	movups XMMWORD PTR [rax+0x10],xmm0
    48aa:	0f 11 40 20          	movups XMMWORD PTR [rax+0x20],xmm0
    48ae:	0f 11 40 30          	movups XMMWORD PTR [rax+0x30],xmm0
    48b2:	0f 11 40 40          	movups XMMWORD PTR [rax+0x40],xmm0
    48b6:	49 8b 96 a8 28 00 00 	mov    rdx,QWORD PTR [r14+0x28a8]
    48bd:	48 89 10             	mov    QWORD PTR [rax],rdx
    48c0:	49 89 86 a8 28 00 00 	mov    QWORD PTR [r14+0x28a8],rax
    48c7:	4c 89 60 08          	mov    QWORD PTR [rax+0x8],r12
    48cb:	e9 d2 fe ff ff       	jmp    47a2 <splitChunk__BqFVAuadgXfvAiq8B9cBjqQ+0xd2>
    48d0:	3d ff ff ff 00       	cmp    eax,0xffffff
    48d5:	89 c1                	mov    ecx,eax
    48d7:	76 27                	jbe    4900 <splitChunk__BqFVAuadgXfvAiq8B9cBjqQ+0x230>
    48d9:	c1 e9 18             	shr    ecx,0x18
    48dc:	ba 18 00 00 00       	mov    edx,0x18
    48e1:	e9 f7 fe ff ff       	jmp    47dd <splitChunk__BqFVAuadgXfvAiq8B9cBjqQ+0x10d>
    48e6:	66 2e 0f 1f 84 00 00 	nop    WORD PTR cs:[rax+rax*1+0x0]
    48ed:	00 00 00 
    48f0:	c1 e9 08             	shr    ecx,0x8
    48f3:	ba 08 00 00 00       	mov    edx,0x8
    48f8:	e9 e0 fe ff ff       	jmp    47dd <splitChunk__BqFVAuadgXfvAiq8B9cBjqQ+0x10d>
    48fd:	0f 1f 00             	nop    DWORD PTR [rax]
    4900:	c1 e9 10             	shr    ecx,0x10
    4903:	ba 10 00 00 00       	mov    edx,0x10
    4908:	e9 d0 fe ff ff       	jmp    47dd <splitChunk__BqFVAuadgXfvAiq8B9cBjqQ+0x10d>
    490d:	0f 1f 00             	nop    DWORD PTR [rax]
    4910:	45 31 c9             	xor    r9d,r9d
    4913:	ba 03 00 00 00       	mov    edx,0x3
    4918:	31 ff                	xor    edi,edi
    491a:	41 b8 ff ff ff ff    	mov    r8d,0xffffffff
